
/Users/nams/Documents/projects/covid/adafruit/ble_adv_covid/particle/check_power/target/1.5.0/argon/check_power.elf:     file format elf32-littlearm

Sections:
Idx Name          Size      VMA       LMA       File off  Algn
  0 .module_info  00000018  000d4000  000d4000  00004000  2**2
                  CONTENTS, ALLOC, LOAD, READONLY, DATA
  1 .dynalib      00000004  000d4018  000d4018  00004018  2**2
                  CONTENTS, ALLOC, LOAD, READONLY, DATA
  2 .text         000041d0  000d4020  000d4020  00004020  2**3
                  CONTENTS, ALLOC, LOAD, READONLY, CODE
  3 .backup       00000004  2003f400  000d81f0  0000f400  2**2
                  CONTENTS, ALLOC, LOAD, DATA
  4 .data         00000074  2003e274  000d81f4  0001e274  2**2
                  CONTENTS, ALLOC, LOAD, DATA
  5 .bss          00000508  2003e2e8  2003e2e8  0002e2e8  2**2
                  ALLOC
  6 .module_info_suffix 00000028  000d8268  000d8268  00028268  2**0
                  CONTENTS, ALLOC, LOAD, READONLY, DATA
  7 .module_info_crc 00000004  000d8290  000d8290  00028290  2**0
                  CONTENTS, ALLOC, LOAD, READONLY, DATA
  8 .debug_info   000ee3db  00000000  00000000  00028294  2**0
                  CONTENTS, READONLY, DEBUGGING
  9 .debug_abbrev 0001222d  00000000  00000000  0011666f  2**0
                  CONTENTS, READONLY, DEBUGGING
 10 .debug_loc    0002102d  00000000  00000000  0012889c  2**0
                  CONTENTS, READONLY, DEBUGGING
 11 .debug_aranges 00002878  00000000  00000000  001498c9  2**0
                  CONTENTS, READONLY, DEBUGGING
 12 .debug_ranges 00004ca8  00000000  00000000  0014c141  2**0
                  CONTENTS, READONLY, DEBUGGING
 13 .debug_macro  00035095  00000000  00000000  00150de9  2**0
                  CONTENTS, READONLY, DEBUGGING
 14 .debug_line   000292f8  00000000  00000000  00185e7e  2**0
                  CONTENTS, READONLY, DEBUGGING
 15 .debug_str    00107581  00000000  00000000  001af176  2**0
                  CONTENTS, READONLY, DEBUGGING
 16 .debug_frame  0000da60  00000000  00000000  002b66f8  2**2
                  CONTENTS, READONLY, DEBUGGING

Disassembly of section .text:

000d4020 <module_user_pre_init>:
/**
 * Initializes this user module. Returns the start of the heap.
 */
void* module_user_pre_init() {

    if ( (&link_global_data_start!=&link_global_data_initial_values) && (link_global_data_size != 0))
   d4020:	4809      	ldr	r0, [pc, #36]	; (d4048 <module_user_pre_init+0x28>)
   d4022:	490a      	ldr	r1, [pc, #40]	; (d404c <module_user_pre_init+0x2c>)
   d4024:	4288      	cmp	r0, r1
extern constructor_ptr_t link_constructors_end;

/**
 * Initializes this user module. Returns the start of the heap.
 */
void* module_user_pre_init() {
   d4026:	b508      	push	{r3, lr}

    if ( (&link_global_data_start!=&link_global_data_initial_values) && (link_global_data_size != 0))
   d4028:	d005      	beq.n	d4036 <module_user_pre_init+0x16>
   d402a:	4a09      	ldr	r2, [pc, #36]	; (d4050 <module_user_pre_init+0x30>)
   d402c:	4282      	cmp	r2, r0
   d402e:	d002      	beq.n	d4036 <module_user_pre_init+0x16>
    {
        memcpy(&link_global_data_start, &link_global_data_initial_values, link_global_data_size);
   d4030:	1a12      	subs	r2, r2, r0
   d4032:	f003 fcd9 	bl	d79e8 <memcpy>
    }

    memset(&link_bss_location, 0, link_bss_size );
   d4036:	4807      	ldr	r0, [pc, #28]	; (d4054 <module_user_pre_init+0x34>)
   d4038:	4a07      	ldr	r2, [pc, #28]	; (d4058 <module_user_pre_init+0x38>)
   d403a:	2100      	movs	r1, #0
   d403c:	1a12      	subs	r2, r2, r0
   d403e:	f003 fcf9 	bl	d7a34 <memset>
    return &link_global_data_start;
}
   d4042:	4801      	ldr	r0, [pc, #4]	; (d4048 <module_user_pre_init+0x28>)
   d4044:	bd08      	pop	{r3, pc}
   d4046:	bf00      	nop
   d4048:	2003e274 	.word	0x2003e274
   d404c:	000d81f4 	.word	0x000d81f4
   d4050:	2003e2e8 	.word	0x2003e2e8
   d4054:	2003e2e8 	.word	0x2003e2e8
   d4058:	2003e7f0 	.word	0x2003e7f0

000d405c <module_user_init>:
extern constructor_ptr_t link_constructors_location[];
extern constructor_ptr_t link_constructors_end;
#define link_constructors_size   ((unsigned long)&link_constructors_end  -  (unsigned long)&link_constructors_location )

void module_user_init()
{
   d405c:	b570      	push	{r4, r5, r6, lr}
    module_user_init_hook();
   d405e:	f002 fe45 	bl	d6cec <module_user_init_hook>
   d4062:	4c07      	ldr	r4, [pc, #28]	; (d4080 <module_user_init+0x24>)
   d4064:	4b07      	ldr	r3, [pc, #28]	; (d4084 <module_user_init+0x28>)
   d4066:	1ae4      	subs	r4, r4, r3
   d4068:	08a4      	lsrs	r4, r4, #2

    // invoke constructors
    int ctor_num;
    for (ctor_num=0; ctor_num < link_constructors_size/sizeof(constructor_ptr_t); ctor_num++ )
   d406a:	2500      	movs	r5, #0
   d406c:	461e      	mov	r6, r3
   d406e:	42a5      	cmp	r5, r4
   d4070:	d004      	beq.n	d407c <module_user_init+0x20>
    {
        link_constructors_location[ctor_num]();
   d4072:	f856 3025 	ldr.w	r3, [r6, r5, lsl #2]
   d4076:	4798      	blx	r3
{
    module_user_init_hook();

    // invoke constructors
    int ctor_num;
    for (ctor_num=0; ctor_num < link_constructors_size/sizeof(constructor_ptr_t); ctor_num++ )
   d4078:	3501      	adds	r5, #1
   d407a:	e7f8      	b.n	d406e <module_user_init+0x12>
    {
        link_constructors_location[ctor_num]();
    }
}
   d407c:	bd70      	pop	{r4, r5, r6, pc}
   d407e:	bf00      	nop
   d4080:	000d81e8 	.word	0x000d81e8
   d4084:	000d81b0 	.word	0x000d81b0

000d4088 <module_user_setup>:

/**
 * Export these functions with a fuller name so they don't clash with the setup/loop wrappers in the system module.
 */
void module_user_setup() {
    setup();
   d4088:	f000 b861 	b.w	d414e <setup>

000d408c <module_user_loop>:
}

void module_user_loop() {
   d408c:	b508      	push	{r3, lr}
    loop();
   d408e:	f000 f86f 	bl	d4170 <loop>
    _post_loop();
}
   d4092:	e8bd 4008 	ldmia.w	sp!, {r3, lr}
    setup();
}

void module_user_loop() {
    loop();
    _post_loop();
   d4096:	f002 bdeb 	b.w	d6c70 <_post_loop>

000d409a <_Znwj>:
   d409a:	f000 bbc3 	b.w	d4824 <malloc>

000d409e <_ZdlPv>:
   d409e:	f000 bbc9 	b.w	d4834 <free>

000d40a2 <_ZdaPv>:
	free(p);
}

void operator delete[](void *p)
{
	free(p);
   d40a2:	f000 bbc7 	b.w	d4834 <free>
	...

000d40a8 <__cxa_pure_virtual>:
char* strerror(int errnum) {
    return (char*)"";
}

/* Default implementation for call made to pure virtual function. */
void __cxa_pure_virtual() {
   d40a8:	b508      	push	{r3, lr}
  PANIC(PureVirtualCall,"Call on pure virtual");
   d40aa:	4a03      	ldr	r2, [pc, #12]	; (d40b8 <__cxa_pure_virtual+0x10>)
   d40ac:	2100      	movs	r1, #0
   d40ae:	200c      	movs	r0, #12
   d40b0:	f000 fb04 	bl	d46bc <panic_>
   d40b4:	e7fe      	b.n	d40b4 <__cxa_pure_virtual+0xc>
   d40b6:	bf00      	nop
   d40b8:	000d445d 	.word	0x000d445d

000d40bc <__cxa_guard_acquire>:

/* Provide default implemenation for __cxa_guard_acquire() and
 * __cxa_guard_release(). Note: these must be revisited if a multitasking
 * OS is ported to this platform. */
__extension__ typedef int __guard __attribute__((mode (__DI__)));
int __cxa_guard_acquire(__guard *g) {return !*(char *)(g);};
   d40bc:	7800      	ldrb	r0, [r0, #0]
   d40be:	fab0 f080 	clz	r0, r0
   d40c2:	0940      	lsrs	r0, r0, #5
   d40c4:	4770      	bx	lr

000d40c6 <__cxa_guard_release>:
void __cxa_guard_release (__guard *g) {*(char *)g = 1;};
   d40c6:	2301      	movs	r3, #1
   d40c8:	7003      	strb	r3, [r0, #0]
   d40ca:	4770      	bx	lr

000d40cc <_ZN5spark10LogHandler5writeEPKcj>:
    if (level >= filter_.level(category)) {
        write(data, size);
    }
}

inline void spark::LogHandler::write(const char *data, size_t size) {
   d40cc:	4770      	bx	lr

000d40ce <_ZN5spark16StreamLogHandler5writeEPKcj>:
inline Print* spark::StreamLogHandler::stream() const {
    return stream_;
}

inline void spark::StreamLogHandler::write(const char *data, size_t size) {
    stream_->write((const uint8_t*)data, size);
   d40ce:	6a00      	ldr	r0, [r0, #32]
   d40d0:	6803      	ldr	r3, [r0, #0]
   d40d2:	68db      	ldr	r3, [r3, #12]
   d40d4:	4718      	bx	r3
	...

000d40d8 <_ZN5spark16SerialLogHandlerD1Ev>:
            StreamLogHandler(Serial, level, filters) {
        Serial.begin(baud);
        LogManager::instance()->addHandler(this);
    }

    virtual ~SerialLogHandler() {
   d40d8:	4b0a      	ldr	r3, [pc, #40]	; (d4104 <_ZN5spark16SerialLogHandlerD1Ev+0x2c>)
   d40da:	b510      	push	{r4, lr}
   d40dc:	4604      	mov	r4, r0
   d40de:	6003      	str	r3, [r0, #0]
        LogManager::instance()->removeHandler(this);
   d40e0:	f001 fb0e 	bl	d5700 <_ZN5spark10LogManager8instanceEv>
   d40e4:	4621      	mov	r1, r4
   d40e6:	f001 fcfb 	bl	d5ae0 <_ZN5spark10LogManager13removeHandlerEPNS_10LogHandlerE>
        Serial.end();
   d40ea:	f002 fd3f 	bl	d6b6c <_Z16_fetch_usbserialv>
   d40ee:	f002 fd31 	bl	d6b54 <_ZN9USBSerial3endEv>
    */
    LogHandler(LogLevel level, LogCategoryFilters filters);
    /*!
        \brief Destructor.
    */
    virtual ~LogHandler() = default;
   d40f2:	4620      	mov	r0, r4
   d40f4:	4b04      	ldr	r3, [pc, #16]	; (d4108 <_ZN5spark16SerialLogHandlerD1Ev+0x30>)
   d40f6:	f840 3b04 	str.w	r3, [r0], #4
   d40fa:	f001 fbf7 	bl	d58ec <_ZN5spark6detail9LogFilterD1Ev>
    }
   d40fe:	4620      	mov	r0, r4
   d4100:	bd10      	pop	{r4, pc}
   d4102:	bf00      	nop
   d4104:	000d7cd4 	.word	0x000d7cd4
   d4108:	000d7cbc 	.word	0x000d7cbc

000d410c <_ZN5spark16SerialLogHandlerD0Ev>:
            StreamLogHandler(Serial, level, filters) {
        Serial.begin(baud);
        LogManager::instance()->addHandler(this);
    }

    virtual ~SerialLogHandler() {
   d410c:	b510      	push	{r4, lr}
   d410e:	4604      	mov	r4, r0
        LogManager::instance()->removeHandler(this);
        Serial.end();
    }
   d4110:	f7ff ffe2 	bl	d40d8 <_ZN5spark16SerialLogHandlerD1Ev>
   d4114:	4620      	mov	r0, r4
   d4116:	2124      	movs	r1, #36	; 0x24
   d4118:	f002 fed7 	bl	d6eca <_ZdlPvj>
   d411c:	4620      	mov	r0, r4
   d411e:	bd10      	pop	{r4, pc}

000d4120 <_ZNK5spark6Logger4infoEPKcz>:
    va_start(args, fmt);
    log(LOG_LEVEL_TRACE, fmt, args);
    va_end(args);
}

inline void spark::Logger::info(const char *fmt, ...) const {
   d4120:	b40e      	push	{r1, r2, r3}
   d4122:	b500      	push	{lr}
   d4124:	b08c      	sub	sp, #48	; 0x30
   d4126:	aa0d      	add	r2, sp, #52	; 0x34
    va_end(args);
}

inline void spark::Logger::log(LogLevel level, const char *fmt, va_list args) const {
    LogAttributes attr;
    attr.size = sizeof(LogAttributes);
   d4128:	2320      	movs	r3, #32
    va_start(args, fmt);
    log(LOG_LEVEL_TRACE, fmt, args);
    va_end(args);
}

inline void spark::Logger::info(const char *fmt, ...) const {
   d412a:	f852 1b04 	ldr.w	r1, [r2], #4
    va_list args;
    va_start(args, fmt);
   d412e:	9203      	str	r2, [sp, #12]

inline void spark::Logger::log(LogLevel level, const char *fmt, va_list args) const {
    LogAttributes attr;
    attr.size = sizeof(LogAttributes);
    attr.flags = 0;
    log_message_v(level, name_, &attr, nullptr, fmt, args);
   d4130:	e88d 0006 	stmia.w	sp, {r1, r2}
    va_end(args);
}

inline void spark::Logger::log(LogLevel level, const char *fmt, va_list args) const {
    LogAttributes attr;
    attr.size = sizeof(LogAttributes);
   d4134:	9304      	str	r3, [sp, #16]
    attr.flags = 0;
    log_message_v(level, name_, &attr, nullptr, fmt, args);
   d4136:	6801      	ldr	r1, [r0, #0]
}

inline void spark::Logger::log(LogLevel level, const char *fmt, va_list args) const {
    LogAttributes attr;
    attr.size = sizeof(LogAttributes);
    attr.flags = 0;
   d4138:	2300      	movs	r3, #0
    log_message_v(level, name_, &attr, nullptr, fmt, args);
   d413a:	aa04      	add	r2, sp, #16
   d413c:	201e      	movs	r0, #30
}

inline void spark::Logger::log(LogLevel level, const char *fmt, va_list args) const {
    LogAttributes attr;
    attr.size = sizeof(LogAttributes);
    attr.flags = 0;
   d413e:	9305      	str	r3, [sp, #20]
    log_message_v(level, name_, &attr, nullptr, fmt, args);
   d4140:	f000 fac4 	bl	d46cc <log_message_v>
inline void spark::Logger::info(const char *fmt, ...) const {
    va_list args;
    va_start(args, fmt);
    log(LOG_LEVEL_INFO, fmt, args);
    va_end(args);
}
   d4144:	b00c      	add	sp, #48	; 0x30
   d4146:	f85d eb04 	ldr.w	lr, [sp], #4
   d414a:	b003      	add	sp, #12
   d414c:	4770      	bx	lr

000d414e <setup>:
SerialLogHandler logHandler;

char lastMsg[128];
unsigned long lastPublish = 0;

void setup() {
   d414e:	b508      	push	{r3, lr}
	Serial.begin();
   d4150:	f002 fd0c 	bl	d6b6c <_Z16_fetch_usbserialv>
   d4154:	f44f 5116 	mov.w	r1, #9600	; 0x2580
   d4158:	f002 fcf8 	bl	d6b4c <_ZN9USBSerial5beginEl>
	pinMode(PWR, INPUT);
   d415c:	2100      	movs	r1, #0
   d415e:	2022      	movs	r0, #34	; 0x22
   d4160:	f002 fe12 	bl	d6d88 <pinMode>
	pinMode(CHG, INPUT);
   d4164:	2100      	movs	r1, #0
   d4166:	2023      	movs	r0, #35	; 0x23
}
   d4168:	e8bd 4008 	ldmia.w	sp!, {r3, lr}
unsigned long lastPublish = 0;

void setup() {
	Serial.begin();
	pinMode(PWR, INPUT);
	pinMode(CHG, INPUT);
   d416c:	f002 be0c 	b.w	d6d88 <pinMode>

000d4170 <loop>:
}

void loop() {
   d4170:	b530      	push	{r4, r5, lr}
	float voltage = analogRead(BATT) * 0.0011224;
   d4172:	2021      	movs	r0, #33	; 0x21
	Serial.begin();
	pinMode(PWR, INPUT);
	pinMode(CHG, INPUT);
}

void loop() {
   d4174:	b0a7      	sub	sp, #156	; 0x9c
	float voltage = analogRead(BATT) * 0.0011224;
   d4176:	f002 fe2b 	bl	d6dd0 <analogRead>
   d417a:	4604      	mov	r4, r0

	// PWR: 0=no USB power, 1=USB powered
	// CHG: 0=charging, 1=not charging
	char buf[128];
	snprintf(buf, sizeof(buf), "voltage=%.1f PWR=%d CHG=%d", voltage, digitalRead(PWR), digitalRead(CHG));
   d417c:	2022      	movs	r0, #34	; 0x22
   d417e:	f002 fe14 	bl	d6daa <digitalRead>
   d4182:	4605      	mov	r5, r0
   d4184:	2023      	movs	r0, #35	; 0x23
   d4186:	f002 fe10 	bl	d6daa <digitalRead>
   d418a:	9003      	str	r0, [sp, #12]
   d418c:	4620      	mov	r0, r4
   d418e:	9502      	str	r5, [sp, #8]
   d4190:	f003 f954 	bl	d743c <__aeabi_i2d>
   d4194:	a32a      	add	r3, pc, #168	; (adr r3, d4240 <loop+0xd0>)
   d4196:	e9d3 2300 	ldrd	r2, r3, [r3]
   d419a:	f003 f9b5 	bl	d7508 <__aeabi_dmul>
   d419e:	f003 fbc5 	bl	d792c <__aeabi_d2f>
   d41a2:	f003 f95d 	bl	d7460 <__aeabi_f2d>
   d41a6:	4a20      	ldr	r2, [pc, #128]	; (d4228 <loop+0xb8>)
   d41a8:	e9cd 0100 	strd	r0, r1, [sp]
   d41ac:	2180      	movs	r1, #128	; 0x80
   d41ae:	a806      	add	r0, sp, #24
   d41b0:	f000 fb50 	bl	d4854 <snprintf>

	if (strcmp(buf, lastMsg) != 0 && millis() - lastPublish > 2000) {
   d41b4:	491d      	ldr	r1, [pc, #116]	; (d422c <loop+0xbc>)
   d41b6:	a806      	add	r0, sp, #24
   d41b8:	f003 fc84 	bl	d7ac4 <strcmp>
   d41bc:	2800      	cmp	r0, #0
   d41be:	d02f      	beq.n	d4220 <loop+0xb0>

#ifdef __cplusplus
extern "C" {
#endif

inline system_tick_t millis(void) { return HAL_Timer_Get_Milli_Seconds(); }
   d41c0:	f000 f954 	bl	d446c <HAL_Timer_Get_Milli_Seconds>
   d41c4:	4a1a      	ldr	r2, [pc, #104]	; (d4230 <loop+0xc0>)
   d41c6:	6813      	ldr	r3, [r2, #0]
   d41c8:	1ac0      	subs	r0, r0, r3
   d41ca:	f5b0 6ffa 	cmp.w	r0, #2000	; 0x7d0
   d41ce:	4615      	mov	r5, r2
   d41d0:	d926      	bls.n	d4220 <loop+0xb0>
   d41d2:	4b18      	ldr	r3, [pc, #96]	; (d4234 <loop+0xc4>)
        return publish(eventName, eventData, DEFAULT_CLOUD_EVENT_TTL, flags1, flags2);
    }

    inline particle::Future<bool> publish(const char *eventName, const char *eventData, int ttl, PublishFlags flags1, PublishFlags flags2 = PublishFlags())
    {
        return publish_event(eventName, eventData, ttl, flags1 | flags2);
   d41d4:	4918      	ldr	r1, [pc, #96]	; (d4238 <loop+0xc8>)
   d41d6:	781b      	ldrb	r3, [r3, #0]
   d41d8:	f88d 3000 	strb.w	r3, [sp]
   d41dc:	aa06      	add	r2, sp, #24
   d41de:	233c      	movs	r3, #60	; 0x3c
   d41e0:	a804      	add	r0, sp, #16
   d41e2:	f000 fd19 	bl	d4c18 <_ZN10CloudClass13publish_eventEPKcS1_iN8particle5FlagsI15PublishFlagTypehEE>
      // Does not throw if __r._M_get_use_count() == 0, caller must check.
      explicit __shared_count(const __weak_count<_Lp>& __r, std::nothrow_t);

      ~__shared_count() noexcept
      {
	if (_M_pi != nullptr)
   d41e6:	9c05      	ldr	r4, [sp, #20]
   d41e8:	b17c      	cbz	r4, d420a <loop+0x9a>

  template<>
    inline void
    _Sp_counted_base<_S_single>::_M_release() noexcept
    {
      if (--_M_use_count == 0)
   d41ea:	6863      	ldr	r3, [r4, #4]
   d41ec:	3b01      	subs	r3, #1
   d41ee:	6063      	str	r3, [r4, #4]
   d41f0:	b95b      	cbnz	r3, d420a <loop+0x9a>
        {
          _M_dispose();
   d41f2:	6823      	ldr	r3, [r4, #0]
   d41f4:	4620      	mov	r0, r4
   d41f6:	689b      	ldr	r3, [r3, #8]
   d41f8:	4798      	blx	r3
          if (--_M_weak_count == 0)
   d41fa:	68a3      	ldr	r3, [r4, #8]
   d41fc:	3b01      	subs	r3, #1
   d41fe:	60a3      	str	r3, [r4, #8]
   d4200:	b91b      	cbnz	r3, d420a <loop+0x9a>
            _M_destroy();
   d4202:	6823      	ldr	r3, [r4, #0]
   d4204:	4620      	mov	r0, r4
   d4206:	68db      	ldr	r3, [r3, #12]
   d4208:	4798      	blx	r3
		Particle.publish("battery", buf, PRIVATE);
		Log.info(buf);
   d420a:	a906      	add	r1, sp, #24
   d420c:	480b      	ldr	r0, [pc, #44]	; (d423c <loop+0xcc>)
   d420e:	f7ff ff87 	bl	d4120 <_ZNK5spark6Logger4infoEPKcz>
		strcpy(lastMsg, buf);
   d4212:	a906      	add	r1, sp, #24
   d4214:	4805      	ldr	r0, [pc, #20]	; (d422c <loop+0xbc>)
   d4216:	f003 fc5f 	bl	d7ad8 <strcpy>
   d421a:	f000 f927 	bl	d446c <HAL_Timer_Get_Milli_Seconds>
		lastPublish = millis();
   d421e:	6028      	str	r0, [r5, #0]
	}
}
   d4220:	b027      	add	sp, #156	; 0x9c
   d4222:	bd30      	pop	{r4, r5, pc}
   d4224:	f3af 8000 	nop.w
   d4228:	000d7ce4 	.word	0x000d7ce4
   d422c:	2003e314 	.word	0x2003e314
   d4230:	2003e310 	.word	0x2003e310
   d4234:	2003e394 	.word	0x2003e394
   d4238:	000d7cff 	.word	0x000d7cff
   d423c:	2003e3d8 	.word	0x2003e3d8
   d4240:	d2c10294 	.word	0xd2c10294
   d4244:	3f5263af 	.word	0x3f5263af

000d4248 <_ZN5spark6VectorINS_17LogCategoryFilterENS_16DefaultAllocatorEED1Ev>:
inline spark::Vector<T, AllocatorT>::Vector(Vector<T, AllocatorT>&& vector) : Vector() {
    swap(*this, vector);
}

template<typename T, typename AllocatorT>
inline spark::Vector<T, AllocatorT>::~Vector() {
   d4248:	b570      	push	{r4, r5, r6, lr}
    destruct(data_, data_ + size_);
   d424a:	6804      	ldr	r4, [r0, #0]
   d424c:	6843      	ldr	r3, [r0, #4]
   d424e:	2614      	movs	r6, #20
inline spark::Vector<T, AllocatorT>::Vector(Vector<T, AllocatorT>&& vector) : Vector() {
    swap(*this, vector);
}

template<typename T, typename AllocatorT>
inline spark::Vector<T, AllocatorT>::~Vector() {
   d4250:	4605      	mov	r5, r0
    destruct(data_, data_ + size_);
   d4252:	fb06 4603 	mla	r6, r6, r3, r4
            new(p) T(std::forward<ArgsT>(args)...);
        }
    }

    static void destruct(T* p, const T* end) {
        for (; p != end; ++p) {
   d4256:	42a6      	cmp	r6, r4
   d4258:	d004      	beq.n	d4264 <_ZN5spark6VectorINS_17LogCategoryFilterENS_16DefaultAllocatorEED1Ev+0x1c>
    static int nodeIndex(const Vector<Node> &nodes, const char *name, size_t size, bool &found);
};

} // namespace spark::detail

class LogCategoryFilter {
   d425a:	4620      	mov	r0, r4
   d425c:	f002 faff 	bl	d685e <_ZN6StringD1Ev>
   d4260:	3414      	adds	r4, #20
   d4262:	e7f8      	b.n	d4256 <_ZN5spark6VectorINS_17LogCategoryFilterENS_16DefaultAllocatorEED1Ev+0xe>
inline void* spark::DefaultAllocator::realloc(void* ptr, size_t size) {
    return ::realloc(ptr, size);
}

inline void spark::DefaultAllocator::free(void* ptr) {
    ::free(ptr);
   d4264:	6828      	ldr	r0, [r5, #0]
   d4266:	f000 fae5 	bl	d4834 <free>

template<typename T, typename AllocatorT>
inline spark::Vector<T, AllocatorT>::~Vector() {
    destruct(data_, data_ + size_);
    AllocatorT::free(data_);
}
   d426a:	4628      	mov	r0, r5
   d426c:	bd70      	pop	{r4, r5, r6, pc}

000d426e <_ZN5spark6VectorINS_17LogCategoryFilterENS_16DefaultAllocatorEE4moveIS1_Li0EEEvPS1_S5_S5_>:
        ::memmove(dest, p, (end - p) * sizeof(T));
    }

    template<PARTICLE_VECTOR_ENABLE_IF_NOT_TRIVIALLY_COPYABLE(T)>
    static void move(T* dest, T* p, T* end) {
        if (dest > p && dest < end) {
   d426e:	4288      	cmp	r0, r1
    static void move(T* dest, const T* p, const T* end) {
        ::memmove(dest, p, (end - p) * sizeof(T));
    }

    template<PARTICLE_VECTOR_ENABLE_IF_NOT_TRIVIALLY_COPYABLE(T)>
    static void move(T* dest, T* p, T* end) {
   d4270:	b5f8      	push	{r3, r4, r5, r6, r7, lr}
   d4272:	4606      	mov	r6, r0
   d4274:	460c      	mov	r4, r1
   d4276:	4615      	mov	r5, r2
        if (dest > p && dest < end) {
   d4278:	d916      	bls.n	d42a8 <_ZN5spark6VectorINS_17LogCategoryFilterENS_16DefaultAllocatorEE4moveIS1_Li0EEEvPS1_S5_S5_+0x3a>
   d427a:	4290      	cmp	r0, r2
   d427c:	d215      	bcs.n	d42aa <_ZN5spark6VectorINS_17LogCategoryFilterENS_16DefaultAllocatorEE4moveIS1_Li0EEEvPS1_S5_S5_+0x3c>
            // Move elements in reverse order
            --p;
            --end;
   d427e:	f1a2 0514 	sub.w	r5, r2, #20
            dest += end - p - 1;
   d4282:	1a6c      	subs	r4, r5, r1
   d4284:	f1a1 0714 	sub.w	r7, r1, #20
   d4288:	4404      	add	r4, r0
            for (; end != p; --end, --dest) {
   d428a:	42af      	cmp	r7, r5
   d428c:	d01c      	beq.n	d42c8 <_ZN5spark6VectorINS_17LogCategoryFilterENS_16DefaultAllocatorEE4moveIS1_Li0EEEvPS1_S5_S5_+0x5a>
                new(dest) T(std::move(*end));
   d428e:	b12c      	cbz	r4, d429c <_ZN5spark6VectorINS_17LogCategoryFilterENS_16DefaultAllocatorEE4moveIS1_Li0EEEvPS1_S5_S5_+0x2e>
   d4290:	4629      	mov	r1, r5
   d4292:	4620      	mov	r0, r4
   d4294:	f002 fad3 	bl	d683e <_ZN6StringC1EOS_>
   d4298:	7c2b      	ldrb	r3, [r5, #16]
   d429a:	7423      	strb	r3, [r4, #16]
   d429c:	4628      	mov	r0, r5
   d429e:	f002 fade 	bl	d685e <_ZN6StringD1Ev>
        if (dest > p && dest < end) {
            // Move elements in reverse order
            --p;
            --end;
            dest += end - p - 1;
            for (; end != p; --end, --dest) {
   d42a2:	3d14      	subs	r5, #20
   d42a4:	3c14      	subs	r4, #20
   d42a6:	e7f0      	b.n	d428a <_ZN5spark6VectorINS_17LogCategoryFilterENS_16DefaultAllocatorEE4moveIS1_Li0EEEvPS1_S5_S5_+0x1c>
                new(dest) T(std::move(*end));
                end->~T();
            }
        } else if (dest != p) {
   d42a8:	d00e      	beq.n	d42c8 <_ZN5spark6VectorINS_17LogCategoryFilterENS_16DefaultAllocatorEE4moveIS1_Li0EEEvPS1_S5_S5_+0x5a>
            for (; p != end; ++p, ++dest) {
   d42aa:	42ac      	cmp	r4, r5
   d42ac:	d00c      	beq.n	d42c8 <_ZN5spark6VectorINS_17LogCategoryFilterENS_16DefaultAllocatorEE4moveIS1_Li0EEEvPS1_S5_S5_+0x5a>
                new(dest) T(std::move(*p));
   d42ae:	b12e      	cbz	r6, d42bc <_ZN5spark6VectorINS_17LogCategoryFilterENS_16DefaultAllocatorEE4moveIS1_Li0EEEvPS1_S5_S5_+0x4e>
   d42b0:	4621      	mov	r1, r4
   d42b2:	4630      	mov	r0, r6
   d42b4:	f002 fac3 	bl	d683e <_ZN6StringC1EOS_>
   d42b8:	7c23      	ldrb	r3, [r4, #16]
   d42ba:	7433      	strb	r3, [r6, #16]
   d42bc:	4620      	mov	r0, r4
   d42be:	f002 face 	bl	d685e <_ZN6StringD1Ev>
            for (; end != p; --end, --dest) {
                new(dest) T(std::move(*end));
                end->~T();
            }
        } else if (dest != p) {
            for (; p != end; ++p, ++dest) {
   d42c2:	3414      	adds	r4, #20
   d42c4:	3614      	adds	r6, #20
   d42c6:	e7f0      	b.n	d42aa <_ZN5spark6VectorINS_17LogCategoryFilterENS_16DefaultAllocatorEE4moveIS1_Li0EEEvPS1_S5_S5_+0x3c>
   d42c8:	bdf8      	pop	{r3, r4, r5, r6, r7, pc}

000d42ca <_ZN5spark6VectorINS_17LogCategoryFilterENS_16DefaultAllocatorEEC1ERKS3_>:
        size_ = n;
    }
}

template<typename T, typename AllocatorT>
inline spark::Vector<T, AllocatorT>::Vector(const Vector<T, AllocatorT>& vector) : Vector() {
   d42ca:	e92d 41f0 	stmdb	sp!, {r4, r5, r6, r7, r8, lr}
// spark::Vector
template<typename T, typename AllocatorT>
inline spark::Vector<T, AllocatorT>::Vector() :
        data_(nullptr),
        size_(0),
        capacity_(0) {
   d42ce:	2300      	movs	r3, #0
   d42d0:	6003      	str	r3, [r0, #0]
   d42d2:	6043      	str	r3, [r0, #4]
   d42d4:	6083      	str	r3, [r0, #8]
    }
}

template<typename T, typename AllocatorT>
inline spark::Vector<T, AllocatorT>::Vector(const Vector<T, AllocatorT>& vector) : Vector() {
    if (vector.size_ > 0 && realloc(vector.size_)) {
   d42d6:	684e      	ldr	r6, [r1, #4]
   d42d8:	429e      	cmp	r6, r3
        size_ = n;
    }
}

template<typename T, typename AllocatorT>
inline spark::Vector<T, AllocatorT>::Vector(const Vector<T, AllocatorT>& vector) : Vector() {
   d42da:	4604      	mov	r4, r0
   d42dc:	460f      	mov	r7, r1
    if (vector.size_ > 0 && realloc(vector.size_)) {
   d42de:	dd24      	ble.n	d432a <_ZN5spark6VectorINS_17LogCategoryFilterENS_16DefaultAllocatorEEC1ERKS3_+0x60>

} // particle

// spark::DefaultAllocator
inline void* spark::DefaultAllocator::malloc(size_t size) {
    return ::malloc(size);
   d42e0:	f04f 0814 	mov.w	r8, #20
   d42e4:	fb08 f006 	mul.w	r0, r8, r6
   d42e8:	f000 fa9c 	bl	d4824 <malloc>
    template<PARTICLE_VECTOR_ENABLE_IF_NOT_TRIVIALLY_COPYABLE(T)>
    bool realloc(int n) {
        T* d = nullptr;
        if (n > 0) {
            d = (T*)AllocatorT::malloc(n * sizeof(T));
            if (!d) {
   d42ec:	4605      	mov	r5, r0
   d42ee:	b1e0      	cbz	r0, d432a <_ZN5spark6VectorINS_17LogCategoryFilterENS_16DefaultAllocatorEEC1ERKS3_+0x60>
                return false;
            }
            move(d, data_, data_ + size_);
   d42f0:	e894 0006 	ldmia.w	r4, {r1, r2}
   d42f4:	fb08 1202 	mla	r2, r8, r2, r1
   d42f8:	f7ff ffb9 	bl	d426e <_ZN5spark6VectorINS_17LogCategoryFilterENS_16DefaultAllocatorEE4moveIS1_Li0EEEvPS1_S5_S5_>
inline void* spark::DefaultAllocator::realloc(void* ptr, size_t size) {
    return ::realloc(ptr, size);
}

inline void spark::DefaultAllocator::free(void* ptr) {
    ::free(ptr);
   d42fc:	6820      	ldr	r0, [r4, #0]
   d42fe:	f000 fa99 	bl	d4834 <free>
                return false;
            }
            move(d, data_, data_ + size_);
        }
        AllocatorT::free(data_);
        data_ = d;
   d4302:	6025      	str	r5, [r4, #0]
        capacity_ = n;
   d4304:	60a6      	str	r6, [r4, #8]
}

template<typename T, typename AllocatorT>
inline spark::Vector<T, AllocatorT>::Vector(const Vector<T, AllocatorT>& vector) : Vector() {
    if (vector.size_ > 0 && realloc(vector.size_)) {
        copy(data_, vector.data_, vector.data_ + vector.size_);
   d4306:	683e      	ldr	r6, [r7, #0]
   d4308:	687b      	ldr	r3, [r7, #4]
   d430a:	fb08 6803 	mla	r8, r8, r3, r6
        }
    }

    template<typename IteratorT>
    static void copy(IteratorT dest, IteratorT it, IteratorT end) {
        for (; it != end; ++it, ++dest) {
   d430e:	4546      	cmp	r6, r8
   d4310:	d009      	beq.n	d4326 <_ZN5spark6VectorINS_17LogCategoryFilterENS_16DefaultAllocatorEEC1ERKS3_+0x5c>
            new(dest) T(*it);
   d4312:	b12d      	cbz	r5, d4320 <_ZN5spark6VectorINS_17LogCategoryFilterENS_16DefaultAllocatorEEC1ERKS3_+0x56>
   d4314:	4631      	mov	r1, r6
   d4316:	4628      	mov	r0, r5
   d4318:	f002 faf7 	bl	d690a <_ZN6StringC1ERKS_>
   d431c:	7c33      	ldrb	r3, [r6, #16]
   d431e:	742b      	strb	r3, [r5, #16]
        }
    }

    template<typename IteratorT>
    static void copy(IteratorT dest, IteratorT it, IteratorT end) {
        for (; it != end; ++it, ++dest) {
   d4320:	3614      	adds	r6, #20
   d4322:	3514      	adds	r5, #20
   d4324:	e7f3      	b.n	d430e <_ZN5spark6VectorINS_17LogCategoryFilterENS_16DefaultAllocatorEEC1ERKS3_+0x44>

template<typename T, typename AllocatorT>
inline spark::Vector<T, AllocatorT>::Vector(const Vector<T, AllocatorT>& vector) : Vector() {
    if (vector.size_ > 0 && realloc(vector.size_)) {
        copy(data_, vector.data_, vector.data_ + vector.size_);
        size_ = vector.size_;
   d4326:	687b      	ldr	r3, [r7, #4]
   d4328:	6063      	str	r3, [r4, #4]
    }
}
   d432a:	4620      	mov	r0, r4
   d432c:	e8bd 81f0 	ldmia.w	sp!, {r4, r5, r6, r7, r8, pc}

000d4330 <_GLOBAL__sub_I_logHandler>:
   d4330:	b570      	push	{r4, r5, r6, lr}
} // namespace particle

// particle::Flag<TagT, ValueT>
template<typename TagT, typename ValueT>
inline particle::Flag<TagT, ValueT>::Flag(ValueT val) :
        val_(val) {
   d4332:	4b23      	ldr	r3, [pc, #140]	; (d43c0 <_GLOBAL__sub_I_logHandler+0x90>)
inline spark::LogHandler::LogHandler(LogLevel level) :
        filter_(level) {
}

inline spark::LogHandler::LogHandler(LogLevel level, LogCategoryFilters filters) :
        filter_(level, filters) {
   d4334:	4c23      	ldr	r4, [pc, #140]	; (d43c4 <_GLOBAL__sub_I_logHandler+0x94>)
   d4336:	b08c      	sub	sp, #48	; 0x30
   d4338:	2201      	movs	r2, #1
   d433a:	701a      	strb	r2, [r3, #0]

inline void pinSetFast(pin_t _pin) __attribute__((always_inline));
inline void pinResetFast(pin_t _pin) __attribute__((always_inline));
inline int32_t pinReadFast(pin_t _pin) __attribute__((always_inline));

static Hal_Pin_Info* PIN_MAP = HAL_Pin_Map();
   d433c:	f000 f89e 	bl	d447c <HAL_Pin_Map>
// spark::Vector
template<typename T, typename AllocatorT>
inline spark::Vector<T, AllocatorT>::Vector() :
        data_(nullptr),
        size_(0),
        capacity_(0) {
   d4340:	2300      	movs	r3, #0
   d4342:	9300      	str	r3, [sp, #0]
   d4344:	9301      	str	r3, [sp, #4]
   d4346:	9302      	str	r3, [sp, #8]
namespace spark {

class SerialLogHandler: public StreamLogHandler {
public:
    explicit SerialLogHandler(LogLevel level = LOG_LEVEL_INFO, LogCategoryFilters filters = {}) :
            StreamLogHandler(Serial, level, filters) {
   d4348:	f002 fc10 	bl	d6b6c <_Z16_fetch_usbserialv>
   d434c:	4669      	mov	r1, sp
   d434e:	4606      	mov	r6, r0
   d4350:	a803      	add	r0, sp, #12
   d4352:	f7ff ffba 	bl	d42ca <_ZN5spark6VectorINS_17LogCategoryFilterENS_16DefaultAllocatorEEC1ERKS3_>
   d4356:	4625      	mov	r5, r4
}

// spark::StreamLogHandler
inline spark::StreamLogHandler::StreamLogHandler(Print &stream, LogLevel level, LogCategoryFilters filters) :
        LogHandler(level, filters),
        stream_(&stream) {
   d4358:	a903      	add	r1, sp, #12
   d435a:	a806      	add	r0, sp, #24
   d435c:	f7ff ffb5 	bl	d42ca <_ZN5spark6VectorINS_17LogCategoryFilterENS_16DefaultAllocatorEEC1ERKS3_>
inline spark::LogHandler::LogHandler(LogLevel level) :
        filter_(level) {
}

inline spark::LogHandler::LogHandler(LogLevel level, LogCategoryFilters filters) :
        filter_(level, filters) {
   d4360:	4b19      	ldr	r3, [pc, #100]	; (d43c8 <_GLOBAL__sub_I_logHandler+0x98>)
   d4362:	f845 3b04 	str.w	r3, [r5], #4
   d4366:	a906      	add	r1, sp, #24
   d4368:	a809      	add	r0, sp, #36	; 0x24
   d436a:	f7ff ffae 	bl	d42ca <_ZN5spark6VectorINS_17LogCategoryFilterENS_16DefaultAllocatorEEC1ERKS3_>
   d436e:	aa09      	add	r2, sp, #36	; 0x24
   d4370:	211e      	movs	r1, #30
   d4372:	4628      	mov	r0, r5
   d4374:	f001 fd1b 	bl	d5dae <_ZN5spark6detail9LogFilterC1E8LogLevelNS_6VectorINS_17LogCategoryFilterENS_16DefaultAllocatorEEE>
   d4378:	a809      	add	r0, sp, #36	; 0x24
   d437a:	f7ff ff65 	bl	d4248 <_ZN5spark6VectorINS_17LogCategoryFilterENS_16DefaultAllocatorEED1Ev>
}

// spark::StreamLogHandler
inline spark::StreamLogHandler::StreamLogHandler(Print &stream, LogLevel level, LogCategoryFilters filters) :
        LogHandler(level, filters),
        stream_(&stream) {
   d437e:	a806      	add	r0, sp, #24
   d4380:	f7ff ff62 	bl	d4248 <_ZN5spark6VectorINS_17LogCategoryFilterENS_16DefaultAllocatorEED1Ev>
   d4384:	4b11      	ldr	r3, [pc, #68]	; (d43cc <_GLOBAL__sub_I_logHandler+0x9c>)
   d4386:	6023      	str	r3, [r4, #0]
   d4388:	a803      	add	r0, sp, #12
   d438a:	6226      	str	r6, [r4, #32]
   d438c:	f7ff ff5c 	bl	d4248 <_ZN5spark6VectorINS_17LogCategoryFilterENS_16DefaultAllocatorEED1Ev>
   d4390:	4b0f      	ldr	r3, [pc, #60]	; (d43d0 <_GLOBAL__sub_I_logHandler+0xa0>)
   d4392:	6023      	str	r3, [r4, #0]
        Serial.begin();
   d4394:	f002 fbea 	bl	d6b6c <_Z16_fetch_usbserialv>
   d4398:	f44f 5116 	mov.w	r1, #9600	; 0x2580
   d439c:	f002 fbd6 	bl	d6b4c <_ZN9USBSerial5beginEl>
        LogManager::instance()->addHandler(this);
   d43a0:	f001 f9ae 	bl	d5700 <_ZN5spark10LogManager8instanceEv>
   d43a4:	4621      	mov	r1, r4
   d43a6:	f001 fc95 	bl	d5cd4 <_ZN5spark10LogManager10addHandlerEPNS_10LogHandlerE>
 * Date: April 20, 2020
 */

#include "Particle.h"

SerialLogHandler logHandler;
   d43aa:	4668      	mov	r0, sp
   d43ac:	f7ff ff4c 	bl	d4248 <_ZN5spark6VectorINS_17LogCategoryFilterENS_16DefaultAllocatorEED1Ev>
   d43b0:	4a08      	ldr	r2, [pc, #32]	; (d43d4 <_GLOBAL__sub_I_logHandler+0xa4>)
   d43b2:	4909      	ldr	r1, [pc, #36]	; (d43d8 <_GLOBAL__sub_I_logHandler+0xa8>)
   d43b4:	4620      	mov	r0, r4
   d43b6:	f002 fd83 	bl	d6ec0 <__aeabi_atexit>
		Particle.publish("battery", buf, PRIVATE);
		Log.info(buf);
		strcpy(lastMsg, buf);
		lastPublish = millis();
	}
}
   d43ba:	b00c      	add	sp, #48	; 0x30
   d43bc:	bd70      	pop	{r4, r5, r6, pc}
   d43be:	bf00      	nop
   d43c0:	2003e394 	.word	0x2003e394
   d43c4:	2003e2ec 	.word	0x2003e2ec
   d43c8:	000d7cbc 	.word	0x000d7cbc
   d43cc:	000d7ed0 	.word	0x000d7ed0
   d43d0:	000d7cd4 	.word	0x000d7cd4
   d43d4:	2003e2e8 	.word	0x2003e2e8
   d43d8:	000d40d9 	.word	0x000d40d9

000d43dc <os_thread_is_current>:
DYNALIB_BEGIN(hal_concurrent)

#if PLATFORM_THREADING
DYNALIB_FN(0, hal_concurrent, __gthread_equal, bool(__gthread_t, __gthread_t))
DYNALIB_FN(1, hal_concurrent, os_thread_create, os_result_t(os_thread_t*, const char*, os_thread_prio_t, os_thread_fn_t, void*, size_t))
DYNALIB_FN(2, hal_concurrent, os_thread_is_current, bool(os_thread_t))
   d43dc:	b508      	push	{r3, lr}
   d43de:	4b02      	ldr	r3, [pc, #8]	; (d43e8 <os_thread_is_current+0xc>)
   d43e0:	681b      	ldr	r3, [r3, #0]
   d43e2:	689b      	ldr	r3, [r3, #8]
   d43e4:	9301      	str	r3, [sp, #4]
   d43e6:	bd08      	pop	{r3, pc}
   d43e8:	00030248 	.word	0x00030248

000d43ec <os_thread_join>:
DYNALIB_FN(3, hal_concurrent, os_thread_yield, os_result_t(void))
DYNALIB_FN(4, hal_concurrent, os_thread_join, os_result_t(os_thread_t))
   d43ec:	b508      	push	{r3, lr}
   d43ee:	4b02      	ldr	r3, [pc, #8]	; (d43f8 <os_thread_join+0xc>)
   d43f0:	681b      	ldr	r3, [r3, #0]
   d43f2:	691b      	ldr	r3, [r3, #16]
   d43f4:	9301      	str	r3, [sp, #4]
   d43f6:	bd08      	pop	{r3, pc}
   d43f8:	00030248 	.word	0x00030248

000d43fc <os_thread_cleanup>:
DYNALIB_FN(5, hal_concurrent, os_thread_cleanup, os_result_t(os_thread_t))
   d43fc:	b508      	push	{r3, lr}
   d43fe:	4b02      	ldr	r3, [pc, #8]	; (d4408 <os_thread_cleanup+0xc>)
   d4400:	681b      	ldr	r3, [r3, #0]
   d4402:	695b      	ldr	r3, [r3, #20]
   d4404:	9301      	str	r3, [sp, #4]
   d4406:	bd08      	pop	{r3, pc}
   d4408:	00030248 	.word	0x00030248

000d440c <os_mutex_recursive_create>:
DYNALIB_FN(13, hal_concurrent, os_mutex_destroy, int(os_mutex_t))
DYNALIB_FN(14, hal_concurrent, os_mutex_lock, int(os_mutex_t))
DYNALIB_FN(15, hal_concurrent, os_mutex_trylock, int(os_mutex_t))
DYNALIB_FN(16, hal_concurrent, os_mutex_unlock, int(os_mutex_t))

DYNALIB_FN(17, hal_concurrent, os_mutex_recursive_create, int(os_mutex_recursive_t*))
   d440c:	b508      	push	{r3, lr}
   d440e:	4b02      	ldr	r3, [pc, #8]	; (d4418 <os_mutex_recursive_create+0xc>)
   d4410:	681b      	ldr	r3, [r3, #0]
   d4412:	6c5b      	ldr	r3, [r3, #68]	; 0x44
   d4414:	9301      	str	r3, [sp, #4]
   d4416:	bd08      	pop	{r3, pc}
   d4418:	00030248 	.word	0x00030248

000d441c <os_mutex_recursive_destroy>:
DYNALIB_FN(18, hal_concurrent, os_mutex_recursive_destroy, int(os_mutex_recursive_t))
   d441c:	b508      	push	{r3, lr}
   d441e:	4b02      	ldr	r3, [pc, #8]	; (d4428 <os_mutex_recursive_destroy+0xc>)
   d4420:	681b      	ldr	r3, [r3, #0]
   d4422:	6c9b      	ldr	r3, [r3, #72]	; 0x48
   d4424:	9301      	str	r3, [sp, #4]
   d4426:	bd08      	pop	{r3, pc}
   d4428:	00030248 	.word	0x00030248

000d442c <os_mutex_recursive_lock>:
DYNALIB_FN(19, hal_concurrent, os_mutex_recursive_lock, int(os_mutex_recursive_t))
   d442c:	b508      	push	{r3, lr}
   d442e:	4b02      	ldr	r3, [pc, #8]	; (d4438 <os_mutex_recursive_lock+0xc>)
   d4430:	681b      	ldr	r3, [r3, #0]
   d4432:	6cdb      	ldr	r3, [r3, #76]	; 0x4c
   d4434:	9301      	str	r3, [sp, #4]
   d4436:	bd08      	pop	{r3, pc}
   d4438:	00030248 	.word	0x00030248

000d443c <os_mutex_recursive_unlock>:
DYNALIB_FN(20, hal_concurrent, os_mutex_recursive_trylock, int(os_mutex_recursive_t))
DYNALIB_FN(21, hal_concurrent, os_mutex_recursive_unlock, int(os_mutex_recursive_t))
   d443c:	b508      	push	{r3, lr}
   d443e:	4b02      	ldr	r3, [pc, #8]	; (d4448 <os_mutex_recursive_unlock+0xc>)
   d4440:	681b      	ldr	r3, [r3, #0]
   d4442:	6d5b      	ldr	r3, [r3, #84]	; 0x54
   d4444:	9301      	str	r3, [sp, #4]
   d4446:	bd08      	pop	{r3, pc}
   d4448:	00030248 	.word	0x00030248

000d444c <HAL_RNG_GetRandomNumber>:

DYNALIB_BEGIN(hal)

#if PLATFORM_ID > 3
DYNALIB_FN(0, hal, HAL_RNG_Configuration, void(void))
DYNALIB_FN(1, hal, HAL_RNG_GetRandomNumber, uint32_t(void))
   d444c:	b508      	push	{r3, lr}
   d444e:	4b02      	ldr	r3, [pc, #8]	; (d4458 <HAL_RNG_GetRandomNumber+0xc>)
   d4450:	681b      	ldr	r3, [r3, #0]
   d4452:	685b      	ldr	r3, [r3, #4]
   d4454:	9301      	str	r3, [sp, #4]
   d4456:	bd08      	pop	{r3, pc}
   d4458:	00030218 	.word	0x00030218

000d445c <HAL_Delay_Microseconds>:
#else
#define BASE_IDX 0
#endif

DYNALIB_FN(BASE_IDX + 0, hal, HAL_Delay_Milliseconds, void(uint32_t))
DYNALIB_FN(BASE_IDX + 1, hal, HAL_Delay_Microseconds, void(uint32_t))
   d445c:	b508      	push	{r3, lr}
   d445e:	4b02      	ldr	r3, [pc, #8]	; (d4468 <HAL_Delay_Microseconds+0xc>)
   d4460:	681b      	ldr	r3, [r3, #0]
   d4462:	68db      	ldr	r3, [r3, #12]
   d4464:	9301      	str	r3, [sp, #4]
   d4466:	bd08      	pop	{r3, pc}
   d4468:	00030218 	.word	0x00030218

000d446c <HAL_Timer_Get_Milli_Seconds>:
DYNALIB_FN(BASE_IDX + 2, hal, HAL_Timer_Get_Micro_Seconds, system_tick_t(void))
DYNALIB_FN(BASE_IDX + 3, hal, HAL_Timer_Get_Milli_Seconds, system_tick_t(void))
   d446c:	b508      	push	{r3, lr}
   d446e:	4b02      	ldr	r3, [pc, #8]	; (d4478 <HAL_Timer_Get_Milli_Seconds+0xc>)
   d4470:	681b      	ldr	r3, [r3, #0]
   d4472:	695b      	ldr	r3, [r3, #20]
   d4474:	9301      	str	r3, [sp, #4]
   d4476:	bd08      	pop	{r3, pc}
   d4478:	00030218 	.word	0x00030218

000d447c <HAL_Pin_Map>:
// New HAL functions must be added to the end of this list.
// GNINRAW

DYNALIB_BEGIN(hal_gpio)

DYNALIB_FN(0, hal_gpio, HAL_Pin_Map, Hal_Pin_Info*(void))
   d447c:	b508      	push	{r3, lr}
   d447e:	4b02      	ldr	r3, [pc, #8]	; (d4488 <HAL_Pin_Map+0xc>)
   d4480:	681b      	ldr	r3, [r3, #0]
   d4482:	681b      	ldr	r3, [r3, #0]
   d4484:	9301      	str	r3, [sp, #4]
   d4486:	bd08      	pop	{r3, pc}
   d4488:	0003022c 	.word	0x0003022c

000d448c <HAL_Validate_Pin_Function>:
DYNALIB_FN(1, hal_gpio, HAL_Validate_Pin_Function, PinFunction(pin_t, PinFunction))
   d448c:	b508      	push	{r3, lr}
   d448e:	4b02      	ldr	r3, [pc, #8]	; (d4498 <HAL_Validate_Pin_Function+0xc>)
   d4490:	681b      	ldr	r3, [r3, #0]
   d4492:	685b      	ldr	r3, [r3, #4]
   d4494:	9301      	str	r3, [sp, #4]
   d4496:	bd08      	pop	{r3, pc}
   d4498:	0003022c 	.word	0x0003022c

000d449c <HAL_Pin_Mode>:
DYNALIB_FN(2, hal_gpio, HAL_Pin_Mode, void(pin_t, PinMode))
   d449c:	b508      	push	{r3, lr}
   d449e:	4b02      	ldr	r3, [pc, #8]	; (d44a8 <HAL_Pin_Mode+0xc>)
   d44a0:	681b      	ldr	r3, [r3, #0]
   d44a2:	689b      	ldr	r3, [r3, #8]
   d44a4:	9301      	str	r3, [sp, #4]
   d44a6:	bd08      	pop	{r3, pc}
   d44a8:	0003022c 	.word	0x0003022c

000d44ac <HAL_Get_Pin_Mode>:
DYNALIB_FN(3, hal_gpio, HAL_Get_Pin_Mode, PinMode(pin_t))
   d44ac:	b508      	push	{r3, lr}
   d44ae:	4b02      	ldr	r3, [pc, #8]	; (d44b8 <HAL_Get_Pin_Mode+0xc>)
   d44b0:	681b      	ldr	r3, [r3, #0]
   d44b2:	68db      	ldr	r3, [r3, #12]
   d44b4:	9301      	str	r3, [sp, #4]
   d44b6:	bd08      	pop	{r3, pc}
   d44b8:	0003022c 	.word	0x0003022c

000d44bc <HAL_GPIO_Read>:
DYNALIB_FN(4, hal_gpio, HAL_GPIO_Write, void(pin_t, uint8_t))
DYNALIB_FN(5, hal_gpio, HAL_GPIO_Read, int32_t(pin_t))
   d44bc:	b508      	push	{r3, lr}
   d44be:	4b02      	ldr	r3, [pc, #8]	; (d44c8 <HAL_GPIO_Read+0xc>)
   d44c0:	681b      	ldr	r3, [r3, #0]
   d44c2:	695b      	ldr	r3, [r3, #20]
   d44c4:	9301      	str	r3, [sp, #4]
   d44c6:	bd08      	pop	{r3, pc}
   d44c8:	0003022c 	.word	0x0003022c

000d44cc <HAL_ADC_Read>:
DYNALIB_FN(8, hal_gpio, HAL_Interrupts_Enable_All, void(void))
DYNALIB_FN(9, hal_gpio, HAL_Interrupts_Disable_All, void(void))

DYNALIB_FN(10, hal_gpio, HAL_DAC_Write, void(pin_t, uint16_t))
DYNALIB_FN(11, hal_gpio, HAL_ADC_Set_Sample_Time, void(uint8_t))
DYNALIB_FN(12, hal_gpio, HAL_ADC_Read, int32_t(uint16_t))
   d44cc:	b508      	push	{r3, lr}
   d44ce:	4b02      	ldr	r3, [pc, #8]	; (d44d8 <HAL_ADC_Read+0xc>)
   d44d0:	681b      	ldr	r3, [r3, #0]
   d44d2:	6b1b      	ldr	r3, [r3, #48]	; 0x30
   d44d4:	9301      	str	r3, [sp, #4]
   d44d6:	bd08      	pop	{r3, pc}
   d44d8:	0003022c 	.word	0x0003022c

000d44dc <HAL_I2C_Write_Data>:
DYNALIB_FN(BASE_IDX + 3, hal_i2c, HAL_I2C_Begin, void(HAL_I2C_Interface, I2C_Mode, uint8_t, void*))
DYNALIB_FN(BASE_IDX + 4, hal_i2c, HAL_I2C_End, void(HAL_I2C_Interface, void*))
DYNALIB_FN(BASE_IDX + 5, hal_i2c, HAL_I2C_Request_Data, uint32_t(HAL_I2C_Interface, uint8_t, uint8_t, uint8_t, void*))
DYNALIB_FN(BASE_IDX + 6, hal_i2c, HAL_I2C_Begin_Transmission, void(HAL_I2C_Interface, uint8_t, const HAL_I2C_Transmission_Config*))
DYNALIB_FN(BASE_IDX + 7, hal_i2c, HAL_I2C_End_Transmission, uint8_t(HAL_I2C_Interface, uint8_t, void*))
DYNALIB_FN(BASE_IDX + 8, hal_i2c, HAL_I2C_Write_Data, uint32_t(HAL_I2C_Interface, uint8_t, void*))
   d44dc:	b508      	push	{r3, lr}
   d44de:	4b02      	ldr	r3, [pc, #8]	; (d44e8 <HAL_I2C_Write_Data+0xc>)
   d44e0:	681b      	ldr	r3, [r3, #0]
   d44e2:	6a1b      	ldr	r3, [r3, #32]
   d44e4:	9301      	str	r3, [sp, #4]
   d44e6:	bd08      	pop	{r3, pc}
   d44e8:	00030228 	.word	0x00030228

000d44ec <HAL_I2C_Available_Data>:
DYNALIB_FN(BASE_IDX + 9, hal_i2c, HAL_I2C_Available_Data, int32_t(HAL_I2C_Interface, void*))
   d44ec:	b508      	push	{r3, lr}
   d44ee:	4b02      	ldr	r3, [pc, #8]	; (d44f8 <HAL_I2C_Available_Data+0xc>)
   d44f0:	681b      	ldr	r3, [r3, #0]
   d44f2:	6a5b      	ldr	r3, [r3, #36]	; 0x24
   d44f4:	9301      	str	r3, [sp, #4]
   d44f6:	bd08      	pop	{r3, pc}
   d44f8:	00030228 	.word	0x00030228

000d44fc <HAL_I2C_Read_Data>:
DYNALIB_FN(BASE_IDX + 10, hal_i2c, HAL_I2C_Read_Data, int32_t(HAL_I2C_Interface, void*))
   d44fc:	b508      	push	{r3, lr}
   d44fe:	4b02      	ldr	r3, [pc, #8]	; (d4508 <HAL_I2C_Read_Data+0xc>)
   d4500:	681b      	ldr	r3, [r3, #0]
   d4502:	6a9b      	ldr	r3, [r3, #40]	; 0x28
   d4504:	9301      	str	r3, [sp, #4]
   d4506:	bd08      	pop	{r3, pc}
   d4508:	00030228 	.word	0x00030228

000d450c <HAL_I2C_Peek_Data>:
DYNALIB_FN(BASE_IDX + 11, hal_i2c, HAL_I2C_Peek_Data, int32_t(HAL_I2C_Interface, void*))
   d450c:	b508      	push	{r3, lr}
   d450e:	4b02      	ldr	r3, [pc, #8]	; (d4518 <HAL_I2C_Peek_Data+0xc>)
   d4510:	681b      	ldr	r3, [r3, #0]
   d4512:	6adb      	ldr	r3, [r3, #44]	; 0x2c
   d4514:	9301      	str	r3, [sp, #4]
   d4516:	bd08      	pop	{r3, pc}
   d4518:	00030228 	.word	0x00030228

000d451c <HAL_I2C_Flush_Data>:
DYNALIB_FN(BASE_IDX + 12, hal_i2c, HAL_I2C_Flush_Data, void(HAL_I2C_Interface, void*))
   d451c:	b508      	push	{r3, lr}
   d451e:	4b02      	ldr	r3, [pc, #8]	; (d4528 <HAL_I2C_Flush_Data+0xc>)
   d4520:	681b      	ldr	r3, [r3, #0]
   d4522:	6b1b      	ldr	r3, [r3, #48]	; 0x30
   d4524:	9301      	str	r3, [sp, #4]
   d4526:	bd08      	pop	{r3, pc}
   d4528:	00030228 	.word	0x00030228

000d452c <HAL_I2C_Is_Enabled>:
DYNALIB_FN(BASE_IDX + 13, hal_i2c, HAL_I2C_Is_Enabled, bool(HAL_I2C_Interface, void*))
   d452c:	b508      	push	{r3, lr}
   d452e:	4b02      	ldr	r3, [pc, #8]	; (d4538 <HAL_I2C_Is_Enabled+0xc>)
   d4530:	681b      	ldr	r3, [r3, #0]
   d4532:	6b5b      	ldr	r3, [r3, #52]	; 0x34
   d4534:	9301      	str	r3, [sp, #4]
   d4536:	bd08      	pop	{r3, pc}
   d4538:	00030228 	.word	0x00030228

000d453c <HAL_I2C_Init>:
DYNALIB_FN(BASE_IDX + 14, hal_i2c, HAL_I2C_Set_Callback_On_Receive, void(HAL_I2C_Interface, void(*)(int), void*))
DYNALIB_FN(BASE_IDX + 15, hal_i2c, HAL_I2C_Set_Callback_On_Request, void(HAL_I2C_Interface, void(*)(void), void*))
DYNALIB_FN(BASE_IDX + 16, hal_i2c, HAL_I2C_Init, int(HAL_I2C_Interface, const HAL_I2C_Config*))
   d453c:	b508      	push	{r3, lr}
   d453e:	4b02      	ldr	r3, [pc, #8]	; (d4548 <HAL_I2C_Init+0xc>)
   d4540:	681b      	ldr	r3, [r3, #0]
   d4542:	6c1b      	ldr	r3, [r3, #64]	; 0x40
   d4544:	9301      	str	r3, [sp, #4]
   d4546:	bd08      	pop	{r3, pc}
   d4548:	00030228 	.word	0x00030228

000d454c <inet_inet_ntop>:
DYNALIB_FN(0, hal_inet, inet_inet_addr, in_addr_t(const char*))
DYNALIB_FN(1, hal_inet, inet_inet_aton, int(const char*, struct in_addr*))
DYNALIB_FN(2, hal_inet, inet_inet_network, in_addr_t(const char*))
DYNALIB_FN(3, hal_inet, inet_inet_ntoa, char*(struct in_addr))
DYNALIB_FN(4, hal_inet, inet_inet_ntoa_r, char*(struct in_addr, char*, socklen_t))
DYNALIB_FN(5, hal_inet, inet_inet_ntop, const char*(int, const void*, char*, socklen_t))
   d454c:	b508      	push	{r3, lr}
   d454e:	4b02      	ldr	r3, [pc, #8]	; (d4558 <inet_inet_ntop+0xc>)
   d4550:	681b      	ldr	r3, [r3, #0]
   d4552:	695b      	ldr	r3, [r3, #20]
   d4554:	9301      	str	r3, [sp, #4]
   d4556:	bd08      	pop	{r3, pc}
   d4558:	00030264 	.word	0x00030264

000d455c <netdb_freeaddrinfo>:

DYNALIB_BEGIN(hal_netdb)

DYNALIB_FN(0, hal_netdb, netdb_gethostbyname, struct hostent*(const char*))
DYNALIB_FN(1, hal_netdb, netdb_gethostbyname_r, int(const char*, struct hostent*, char*, size_t, struct hostent**, int*))
DYNALIB_FN(2, hal_netdb, netdb_freeaddrinfo, void(struct addrinfo*))
   d455c:	b508      	push	{r3, lr}
   d455e:	4b02      	ldr	r3, [pc, #8]	; (d4568 <netdb_freeaddrinfo+0xc>)
   d4560:	681b      	ldr	r3, [r3, #0]
   d4562:	689b      	ldr	r3, [r3, #8]
   d4564:	9301      	str	r3, [sp, #4]
   d4566:	bd08      	pop	{r3, pc}
   d4568:	00030268 	.word	0x00030268

000d456c <netdb_getaddrinfo>:
DYNALIB_FN(3, hal_netdb, netdb_getaddrinfo, int(const char*, const char*, const struct addrinfo*, struct addrinfo**))
   d456c:	b508      	push	{r3, lr}
   d456e:	4b02      	ldr	r3, [pc, #8]	; (d4578 <netdb_getaddrinfo+0xc>)
   d4570:	681b      	ldr	r3, [r3, #0]
   d4572:	68db      	ldr	r3, [r3, #12]
   d4574:	9301      	str	r3, [sp, #4]
   d4576:	bd08      	pop	{r3, pc}
   d4578:	00030268 	.word	0x00030268

000d457c <HAL_SPI_Init>:
DYNALIB_FN(2, hal_spi, HAL_SPI_Set_Bit_Order, void(HAL_SPI_Interface, uint8_t))
DYNALIB_FN(3, hal_spi, HAL_SPI_Set_Data_Mode, void(HAL_SPI_Interface, uint8_t))
DYNALIB_FN(4, hal_spi, HAL_SPI_Set_Clock_Divider, void(HAL_SPI_Interface, uint8_t))
DYNALIB_FN(5, hal_spi, HAL_SPI_Send_Receive_Data, uint16_t(HAL_SPI_Interface, uint16_t))
DYNALIB_FN(6, hal_spi, HAL_SPI_Is_Enabled_Old, bool(void))
DYNALIB_FN(7, hal_spi, HAL_SPI_Init, void(HAL_SPI_Interface))
   d457c:	b508      	push	{r3, lr}
   d457e:	4b02      	ldr	r3, [pc, #8]	; (d4588 <HAL_SPI_Init+0xc>)
   d4580:	681b      	ldr	r3, [r3, #0]
   d4582:	69db      	ldr	r3, [r3, #28]
   d4584:	9301      	str	r3, [sp, #4]
   d4586:	bd08      	pop	{r3, pc}
   d4588:	00030230 	.word	0x00030230

000d458c <HAL_SPI_Is_Enabled>:
DYNALIB_FN(8, hal_spi, HAL_SPI_Is_Enabled, bool(HAL_SPI_Interface))
   d458c:	b508      	push	{r3, lr}
   d458e:	4b02      	ldr	r3, [pc, #8]	; (d4598 <HAL_SPI_Is_Enabled+0xc>)
   d4590:	681b      	ldr	r3, [r3, #0]
   d4592:	6a1b      	ldr	r3, [r3, #32]
   d4594:	9301      	str	r3, [sp, #4]
   d4596:	bd08      	pop	{r3, pc}
   d4598:	00030230 	.word	0x00030230

000d459c <HAL_USART_Init>:
#define BASE_IDX 6 // Base index for all subsequent functions
#else
#define BASE_IDX 0
#endif

DYNALIB_FN(BASE_IDX + 0, hal_usart, HAL_USART_Init, void(HAL_USART_Serial, Ring_Buffer*, Ring_Buffer*))
   d459c:	b508      	push	{r3, lr}
   d459e:	4b02      	ldr	r3, [pc, #8]	; (d45a8 <HAL_USART_Init+0xc>)
   d45a0:	681b      	ldr	r3, [r3, #0]
   d45a2:	681b      	ldr	r3, [r3, #0]
   d45a4:	9301      	str	r3, [sp, #4]
   d45a6:	bd08      	pop	{r3, pc}
   d45a8:	0003023c 	.word	0x0003023c

000d45ac <HAL_USART_End>:
DYNALIB_FN(BASE_IDX + 1, hal_usart, HAL_USART_Begin, void(HAL_USART_Serial, uint32_t))
DYNALIB_FN(BASE_IDX + 2, hal_usart, HAL_USART_End, void(HAL_USART_Serial))
   d45ac:	b508      	push	{r3, lr}
   d45ae:	4b02      	ldr	r3, [pc, #8]	; (d45b8 <HAL_USART_End+0xc>)
   d45b0:	681b      	ldr	r3, [r3, #0]
   d45b2:	689b      	ldr	r3, [r3, #8]
   d45b4:	9301      	str	r3, [sp, #4]
   d45b6:	bd08      	pop	{r3, pc}
   d45b8:	0003023c 	.word	0x0003023c

000d45bc <HAL_USART_Write_Data>:
DYNALIB_FN(BASE_IDX + 3, hal_usart, HAL_USART_Write_Data, uint32_t(HAL_USART_Serial, uint8_t))
   d45bc:	b508      	push	{r3, lr}
   d45be:	4b02      	ldr	r3, [pc, #8]	; (d45c8 <HAL_USART_Write_Data+0xc>)
   d45c0:	681b      	ldr	r3, [r3, #0]
   d45c2:	68db      	ldr	r3, [r3, #12]
   d45c4:	9301      	str	r3, [sp, #4]
   d45c6:	bd08      	pop	{r3, pc}
   d45c8:	0003023c 	.word	0x0003023c

000d45cc <HAL_USART_Available_Data>:
DYNALIB_FN(BASE_IDX + 4, hal_usart, HAL_USART_Available_Data, int32_t(HAL_USART_Serial))
   d45cc:	b508      	push	{r3, lr}
   d45ce:	4b02      	ldr	r3, [pc, #8]	; (d45d8 <HAL_USART_Available_Data+0xc>)
   d45d0:	681b      	ldr	r3, [r3, #0]
   d45d2:	691b      	ldr	r3, [r3, #16]
   d45d4:	9301      	str	r3, [sp, #4]
   d45d6:	bd08      	pop	{r3, pc}
   d45d8:	0003023c 	.word	0x0003023c

000d45dc <HAL_USART_Read_Data>:
DYNALIB_FN(BASE_IDX + 5, hal_usart, HAL_USART_Read_Data, int32_t(HAL_USART_Serial))
   d45dc:	b508      	push	{r3, lr}
   d45de:	4b02      	ldr	r3, [pc, #8]	; (d45e8 <HAL_USART_Read_Data+0xc>)
   d45e0:	681b      	ldr	r3, [r3, #0]
   d45e2:	695b      	ldr	r3, [r3, #20]
   d45e4:	9301      	str	r3, [sp, #4]
   d45e6:	bd08      	pop	{r3, pc}
   d45e8:	0003023c 	.word	0x0003023c

000d45ec <HAL_USART_Peek_Data>:
DYNALIB_FN(BASE_IDX + 6, hal_usart, HAL_USART_Peek_Data, int32_t(HAL_USART_Serial))
   d45ec:	b508      	push	{r3, lr}
   d45ee:	4b02      	ldr	r3, [pc, #8]	; (d45f8 <HAL_USART_Peek_Data+0xc>)
   d45f0:	681b      	ldr	r3, [r3, #0]
   d45f2:	699b      	ldr	r3, [r3, #24]
   d45f4:	9301      	str	r3, [sp, #4]
   d45f6:	bd08      	pop	{r3, pc}
   d45f8:	0003023c 	.word	0x0003023c

000d45fc <HAL_USART_Flush_Data>:
DYNALIB_FN(BASE_IDX + 7, hal_usart, HAL_USART_Flush_Data, void(HAL_USART_Serial))
   d45fc:	b508      	push	{r3, lr}
   d45fe:	4b02      	ldr	r3, [pc, #8]	; (d4608 <HAL_USART_Flush_Data+0xc>)
   d4600:	681b      	ldr	r3, [r3, #0]
   d4602:	69db      	ldr	r3, [r3, #28]
   d4604:	9301      	str	r3, [sp, #4]
   d4606:	bd08      	pop	{r3, pc}
   d4608:	0003023c 	.word	0x0003023c

000d460c <HAL_USART_Is_Enabled>:
DYNALIB_FN(BASE_IDX + 8, hal_usart, HAL_USART_Is_Enabled, bool(HAL_USART_Serial))
   d460c:	b508      	push	{r3, lr}
   d460e:	4b02      	ldr	r3, [pc, #8]	; (d4618 <HAL_USART_Is_Enabled+0xc>)
   d4610:	681b      	ldr	r3, [r3, #0]
   d4612:	6a1b      	ldr	r3, [r3, #32]
   d4614:	9301      	str	r3, [sp, #4]
   d4616:	bd08      	pop	{r3, pc}
   d4618:	0003023c 	.word	0x0003023c

000d461c <HAL_USART_Available_Data_For_Write>:
DYNALIB_FN(BASE_IDX + 9, hal_usart, HAL_USART_Half_Duplex, void(HAL_USART_Serial, bool))
DYNALIB_FN(BASE_IDX + 10, hal_usart, HAL_USART_Available_Data_For_Write, int32_t(HAL_USART_Serial))
   d461c:	b508      	push	{r3, lr}
   d461e:	4b02      	ldr	r3, [pc, #8]	; (d4628 <HAL_USART_Available_Data_For_Write+0xc>)
   d4620:	681b      	ldr	r3, [r3, #0]
   d4622:	6a9b      	ldr	r3, [r3, #40]	; 0x28
   d4624:	9301      	str	r3, [sp, #4]
   d4626:	bd08      	pop	{r3, pc}
   d4628:	0003023c 	.word	0x0003023c

000d462c <HAL_USART_BeginConfig>:
#define BASE_IDX2 (BASE_IDX+13)
#else
#define BASE_IDX2 (BASE_IDX+11)
#endif

DYNALIB_FN(BASE_IDX2 + 0, hal_usart, HAL_USART_BeginConfig, void(HAL_USART_Serial serial, uint32_t baud, uint32_t config, void *ptr))
   d462c:	b508      	push	{r3, lr}
   d462e:	4b02      	ldr	r3, [pc, #8]	; (d4638 <HAL_USART_BeginConfig+0xc>)
   d4630:	681b      	ldr	r3, [r3, #0]
   d4632:	6adb      	ldr	r3, [r3, #44]	; 0x2c
   d4634:	9301      	str	r3, [sp, #4]
   d4636:	bd08      	pop	{r3, pc}
   d4638:	0003023c 	.word	0x0003023c

000d463c <HAL_USB_USART_Init>:
#endif

DYNALIB_BEGIN(hal_usb)

#ifdef USB_CDC_ENABLE
DYNALIB_FN(0, hal_usb, HAL_USB_USART_Init, void(HAL_USB_USART_Serial, const HAL_USB_USART_Config*))
   d463c:	b508      	push	{r3, lr}
   d463e:	4b02      	ldr	r3, [pc, #8]	; (d4648 <HAL_USB_USART_Init+0xc>)
   d4640:	681b      	ldr	r3, [r3, #0]
   d4642:	681b      	ldr	r3, [r3, #0]
   d4644:	9301      	str	r3, [sp, #4]
   d4646:	bd08      	pop	{r3, pc}
   d4648:	0003024c 	.word	0x0003024c

000d464c <HAL_USB_USART_Begin>:
DYNALIB_FN(1, hal_usb, HAL_USB_USART_Begin, void(HAL_USB_USART_Serial, uint32_t, void *))
   d464c:	b508      	push	{r3, lr}
   d464e:	4b02      	ldr	r3, [pc, #8]	; (d4658 <HAL_USB_USART_Begin+0xc>)
   d4650:	681b      	ldr	r3, [r3, #0]
   d4652:	685b      	ldr	r3, [r3, #4]
   d4654:	9301      	str	r3, [sp, #4]
   d4656:	bd08      	pop	{r3, pc}
   d4658:	0003024c 	.word	0x0003024c

000d465c <HAL_USB_USART_End>:
DYNALIB_FN(2, hal_usb, HAL_USB_USART_End, void(HAL_USB_USART_Serial))
   d465c:	b508      	push	{r3, lr}
   d465e:	4b02      	ldr	r3, [pc, #8]	; (d4668 <HAL_USB_USART_End+0xc>)
   d4660:	681b      	ldr	r3, [r3, #0]
   d4662:	689b      	ldr	r3, [r3, #8]
   d4664:	9301      	str	r3, [sp, #4]
   d4666:	bd08      	pop	{r3, pc}
   d4668:	0003024c 	.word	0x0003024c

000d466c <HAL_USB_USART_Available_Data>:
DYNALIB_FN(3, hal_usb, HAL_USB_USART_Baud_Rate, unsigned int(HAL_USB_USART_Serial))
DYNALIB_FN(4, hal_usb, HAL_USB_USART_Available_Data, int32_t(HAL_USB_USART_Serial))
   d466c:	b508      	push	{r3, lr}
   d466e:	4b02      	ldr	r3, [pc, #8]	; (d4678 <HAL_USB_USART_Available_Data+0xc>)
   d4670:	681b      	ldr	r3, [r3, #0]
   d4672:	691b      	ldr	r3, [r3, #16]
   d4674:	9301      	str	r3, [sp, #4]
   d4676:	bd08      	pop	{r3, pc}
   d4678:	0003024c 	.word	0x0003024c

000d467c <HAL_USB_USART_Available_Data_For_Write>:
DYNALIB_FN(5, hal_usb, HAL_USB_USART_Available_Data_For_Write, int32_t(HAL_USB_USART_Serial))
   d467c:	b508      	push	{r3, lr}
   d467e:	4b02      	ldr	r3, [pc, #8]	; (d4688 <HAL_USB_USART_Available_Data_For_Write+0xc>)
   d4680:	681b      	ldr	r3, [r3, #0]
   d4682:	695b      	ldr	r3, [r3, #20]
   d4684:	9301      	str	r3, [sp, #4]
   d4686:	bd08      	pop	{r3, pc}
   d4688:	0003024c 	.word	0x0003024c

000d468c <HAL_USB_USART_Receive_Data>:
DYNALIB_FN(6, hal_usb, HAL_USB_USART_Receive_Data, int32_t(HAL_USB_USART_Serial, uint8_t))
   d468c:	b508      	push	{r3, lr}
   d468e:	4b02      	ldr	r3, [pc, #8]	; (d4698 <HAL_USB_USART_Receive_Data+0xc>)
   d4690:	681b      	ldr	r3, [r3, #0]
   d4692:	699b      	ldr	r3, [r3, #24]
   d4694:	9301      	str	r3, [sp, #4]
   d4696:	bd08      	pop	{r3, pc}
   d4698:	0003024c 	.word	0x0003024c

000d469c <HAL_USB_USART_Send_Data>:
DYNALIB_FN(7, hal_usb, HAL_USB_USART_Send_Data, int32_t(HAL_USB_USART_Serial, uint8_t))
   d469c:	b508      	push	{r3, lr}
   d469e:	4b02      	ldr	r3, [pc, #8]	; (d46a8 <HAL_USB_USART_Send_Data+0xc>)
   d46a0:	681b      	ldr	r3, [r3, #0]
   d46a2:	69db      	ldr	r3, [r3, #28]
   d46a4:	9301      	str	r3, [sp, #4]
   d46a6:	bd08      	pop	{r3, pc}
   d46a8:	0003024c 	.word	0x0003024c

000d46ac <HAL_USB_USART_Flush_Data>:
DYNALIB_FN(8, hal_usb, HAL_USB_USART_Flush_Data, void(HAL_USB_USART_Serial))
   d46ac:	b508      	push	{r3, lr}
   d46ae:	4b02      	ldr	r3, [pc, #8]	; (d46b8 <HAL_USB_USART_Flush_Data+0xc>)
   d46b0:	681b      	ldr	r3, [r3, #0]
   d46b2:	6a1b      	ldr	r3, [r3, #32]
   d46b4:	9301      	str	r3, [sp, #4]
   d46b6:	bd08      	pop	{r3, pc}
   d46b8:	0003024c 	.word	0x0003024c

000d46bc <panic_>:
DYNALIB_FN(9, services, LED_Toggle, void(Led_TypeDef))
DYNALIB_FN(10, services, LED_Fade, void(Led_TypeDef))
DYNALIB_FN(11, services, Get_LED_Brightness, uint8_t(void))

DYNALIB_FN(12, services, set_logger_output, void(debug_output_fn, LoggerOutputLevel)) // Deprecated
DYNALIB_FN(13, services, panic_, void(ePanicCode, void*, void(*)(uint32_t)))
   d46bc:	b508      	push	{r3, lr}
   d46be:	4b02      	ldr	r3, [pc, #8]	; (d46c8 <panic_+0xc>)
   d46c0:	681b      	ldr	r3, [r3, #0]
   d46c2:	6b5b      	ldr	r3, [r3, #52]	; 0x34
   d46c4:	9301      	str	r3, [sp, #4]
   d46c6:	bd08      	pop	{r3, pc}
   d46c8:	00030260 	.word	0x00030260

000d46cc <log_message_v>:
DYNALIB_FN(17, services, LED_RGB_SetChangeHandler, void(led_update_handler_fn, void*))
DYNALIB_FN(18, services, log_print_direct_, void(int, void*, const char*, ...)) // Deprecated
DYNALIB_FN(19, services, LED_GetColor, uint32_t(uint32_t, void*))

DYNALIB_FN(20, services, log_message, void(int, const char*, LogAttributes*, void*, const char*, ...))
DYNALIB_FN(21, services, log_message_v, void(int, const char*, LogAttributes*, void*, const char*, va_list))
   d46cc:	b508      	push	{r3, lr}
   d46ce:	4b02      	ldr	r3, [pc, #8]	; (d46d8 <log_message_v+0xc>)
   d46d0:	681b      	ldr	r3, [r3, #0]
   d46d2:	6d5b      	ldr	r3, [r3, #84]	; 0x54
   d46d4:	9301      	str	r3, [sp, #4]
   d46d6:	bd08      	pop	{r3, pc}
   d46d8:	00030260 	.word	0x00030260

000d46dc <log_level_name>:
DYNALIB_FN(22, services, log_write, void(int, const char*, const char*, size_t, void*))
DYNALIB_FN(23, services, log_printf, void(int, const char*, void*, const char*, ...))
DYNALIB_FN(24, services, log_printf_v, void(int, const char*, void*, const char*, va_list))
DYNALIB_FN(25, services, log_dump, void(int, const char*, const void*, size_t, int, void*))
DYNALIB_FN(26, services, log_enabled, int(int, const char*, void*))
DYNALIB_FN(27, services, log_level_name, const char*(int, void*))
   d46dc:	b508      	push	{r3, lr}
   d46de:	4b02      	ldr	r3, [pc, #8]	; (d46e8 <log_level_name+0xc>)
   d46e0:	681b      	ldr	r3, [r3, #0]
   d46e2:	6edb      	ldr	r3, [r3, #108]	; 0x6c
   d46e4:	9301      	str	r3, [sp, #4]
   d46e6:	bd08      	pop	{r3, pc}
   d46e8:	00030260 	.word	0x00030260

000d46ec <log_set_callbacks>:
DYNALIB_FN(28, services, log_set_callbacks, void(log_message_callback_type, log_write_callback_type, log_enabled_callback_type, void*))
   d46ec:	b508      	push	{r3, lr}
   d46ee:	4b02      	ldr	r3, [pc, #8]	; (d46f8 <log_set_callbacks+0xc>)
   d46f0:	681b      	ldr	r3, [r3, #0]
   d46f2:	6f1b      	ldr	r3, [r3, #112]	; 0x70
   d46f4:	9301      	str	r3, [sp, #4]
   d46f6:	bd08      	pop	{r3, pc}
   d46f8:	00030260 	.word	0x00030260

000d46fc <set_system_mode>:
#endif

DYNALIB_BEGIN(system)

DYNALIB_FN(0, system, system_mode, System_Mode_TypeDef(void))
DYNALIB_FN(1, system, set_system_mode, void(System_Mode_TypeDef))
   d46fc:	b508      	push	{r3, lr}
   d46fe:	4b02      	ldr	r3, [pc, #8]	; (d4708 <set_system_mode+0xc>)
   d4700:	681b      	ldr	r3, [r3, #0]
   d4702:	685b      	ldr	r3, [r3, #4]
   d4704:	9301      	str	r3, [sp, #4]
   d4706:	bd08      	pop	{r3, pc}
   d4708:	00030220 	.word	0x00030220

000d470c <application_thread_current>:
DYNALIB_FN(15, system, system_get_flag, int(system_flag_t, uint8_t*, void*))
DYNALIB_FN(16, system, Spark_Prepare_For_Firmware_Update, int(FileTransfer::Descriptor&, uint32_t, void*))
DYNALIB_FN(17, system, Spark_Save_Firmware_Chunk, int(FileTransfer::Descriptor&, const uint8_t*, void*))
DYNALIB_FN(18, system, Spark_Finish_Firmware_Update, int(FileTransfer::Descriptor&, uint32_t, void*))

DYNALIB_FN(19, system, application_thread_current, uint8_t(void*))
   d470c:	b508      	push	{r3, lr}
   d470e:	4b02      	ldr	r3, [pc, #8]	; (d4718 <application_thread_current+0xc>)
   d4710:	681b      	ldr	r3, [r3, #0]
   d4712:	6cdb      	ldr	r3, [r3, #76]	; 0x4c
   d4714:	9301      	str	r3, [sp, #4]
   d4716:	bd08      	pop	{r3, pc}
   d4718:	00030220 	.word	0x00030220

000d471c <application_thread_invoke>:
DYNALIB_FN(20, system, system_thread_current, uint8_t(void*))
DYNALIB_FN(21, system, application_thread_invoke, uint8_t(void(*)(void*), void*, void*))
   d471c:	b508      	push	{r3, lr}
   d471e:	4b02      	ldr	r3, [pc, #8]	; (d4728 <application_thread_invoke+0xc>)
   d4720:	681b      	ldr	r3, [r3, #0]
   d4722:	6d5b      	ldr	r3, [r3, #84]	; 0x54
   d4724:	9301      	str	r3, [sp, #4]
   d4726:	bd08      	pop	{r3, pc}
   d4728:	00030220 	.word	0x00030220

000d472c <system_ctrl_set_app_request_handler>:
DYNALIB_FN(BASE_IDX + 6, system, led_pattern_period, uint16_t(int, int, void*))
DYNALIB_FN(BASE_IDX + 7, system, system_set_tester_handlers, int(system_tester_handlers_t*, void*))
DYNALIB_FN(BASE_IDX + 8, system, system_format_diag_data, int(const uint16_t*, size_t, unsigned, appender_fn, void*, void*))

// Control requests
DYNALIB_FN(BASE_IDX + 9, system, system_ctrl_set_app_request_handler, int(ctrl_request_handler_fn, void*))
   d472c:	b508      	push	{r3, lr}
   d472e:	4b03      	ldr	r3, [pc, #12]	; (d473c <system_ctrl_set_app_request_handler+0x10>)
   d4730:	681b      	ldr	r3, [r3, #0]
   d4732:	f8d3 3088 	ldr.w	r3, [r3, #136]	; 0x88
   d4736:	9301      	str	r3, [sp, #4]
   d4738:	bd08      	pop	{r3, pc}
   d473a:	0000      	.short	0x0000
   d473c:	00030220 	.word	0x00030220

000d4740 <system_ctrl_set_result>:
DYNALIB_FN(BASE_IDX + 10, system, system_ctrl_alloc_reply_data, int(ctrl_request*, size_t, void*))
DYNALIB_FN(BASE_IDX + 11, system, system_ctrl_free_request_data, void(ctrl_request*, void*))
DYNALIB_FN(BASE_IDX + 12, system, system_ctrl_set_result, void(ctrl_request*, int, ctrl_completion_handler_fn, void*, void*))
   d4740:	b508      	push	{r3, lr}
   d4742:	4b03      	ldr	r3, [pc, #12]	; (d4750 <system_ctrl_set_result+0x10>)
   d4744:	681b      	ldr	r3, [r3, #0]
   d4746:	f8d3 3094 	ldr.w	r3, [r3, #148]	; 0x94
   d474a:	9301      	str	r3, [sp, #4]
   d474c:	bd08      	pop	{r3, pc}
   d474e:	0000      	.short	0x0000
   d4750:	00030220 	.word	0x00030220

000d4754 <spark_cloud_flag_connected>:
DYNALIB_FN(0, system_cloud, spark_variable, bool(const char*, const void*, Spark_Data_TypeDef, spark_variable_t*))
DYNALIB_FN(1, system_cloud, spark_function, bool(const char*, p_user_function_int_str_t, void*))
DYNALIB_FN(2, system_cloud, spark_process, void(void))
DYNALIB_FN(3, system_cloud, spark_cloud_flag_connect, void(void))
DYNALIB_FN(4, system_cloud, spark_cloud_flag_disconnect, void(void))
DYNALIB_FN(5, system_cloud, spark_cloud_flag_connected, bool(void))
   d4754:	b508      	push	{r3, lr}
   d4756:	4b02      	ldr	r3, [pc, #8]	; (d4760 <spark_cloud_flag_connected+0xc>)
   d4758:	681b      	ldr	r3, [r3, #0]
   d475a:	695b      	ldr	r3, [r3, #20]
   d475c:	9301      	str	r3, [sp, #4]
   d475e:	bd08      	pop	{r3, pc}
   d4760:	00030244 	.word	0x00030244

000d4764 <spark_send_event>:
DYNALIB_FN(6, system_cloud, system_cloud_protocol_instance, ProtocolFacade*(void))
DYNALIB_FN(7, system_cloud, spark_deviceID, String(void))
DYNALIB_FN(8, system_cloud, spark_send_event, bool(const char*, const char*, int, uint32_t, void*))
   d4764:	b508      	push	{r3, lr}
   d4766:	4b02      	ldr	r3, [pc, #8]	; (d4770 <spark_send_event+0xc>)
   d4768:	681b      	ldr	r3, [r3, #0]
   d476a:	6a1b      	ldr	r3, [r3, #32]
   d476c:	9301      	str	r3, [sp, #4]
   d476e:	bd08      	pop	{r3, pc}
   d4770:	00030244 	.word	0x00030244

000d4774 <spark_set_random_seed_from_cloud_handler>:
DYNALIB_FN(10, system_cloud, spark_unsubscribe, void(void*))
DYNALIB_FN(11, system_cloud, spark_sync_time, bool(void*))
DYNALIB_FN(12, system_cloud, spark_sync_time_pending, bool(void*))
DYNALIB_FN(13, system_cloud, spark_sync_time_last, system_tick_t(time_t*, void*))
DYNALIB_FN(14, system_cloud, spark_set_connection_property, int(unsigned, unsigned, particle::protocol::connection_properties_t*, void*))
DYNALIB_FN(15, system_cloud, spark_set_random_seed_from_cloud_handler, int(void (*handler)(unsigned int), void*))
   d4774:	b508      	push	{r3, lr}
   d4776:	4b02      	ldr	r3, [pc, #8]	; (d4780 <spark_set_random_seed_from_cloud_handler+0xc>)
   d4778:	681b      	ldr	r3, [r3, #0]
   d477a:	6bdb      	ldr	r3, [r3, #60]	; 0x3c
   d477c:	9301      	str	r3, [sp, #4]
   d477e:	bd08      	pop	{r3, pc}
   d4780:	00030244 	.word	0x00030244

000d4784 <network_connect>:
#endif

DYNALIB_BEGIN(system_net)

DYNALIB_FN(0, system_net, network_config, const void*(network_handle_t, uint32_t, void*))
DYNALIB_FN(1, system_net, network_connect, void(network_handle_t, uint32_t, uint32_t, void*))
   d4784:	b508      	push	{r3, lr}
   d4786:	4b02      	ldr	r3, [pc, #8]	; (d4790 <network_connect+0xc>)
   d4788:	681b      	ldr	r3, [r3, #0]
   d478a:	685b      	ldr	r3, [r3, #4]
   d478c:	9301      	str	r3, [sp, #4]
   d478e:	bd08      	pop	{r3, pc}
   d4790:	00030240 	.word	0x00030240

000d4794 <network_connecting>:
DYNALIB_FN(2, system_net, network_connecting, bool(network_handle_t, uint32_t, void*))
   d4794:	b508      	push	{r3, lr}
   d4796:	4b02      	ldr	r3, [pc, #8]	; (d47a0 <network_connecting+0xc>)
   d4798:	681b      	ldr	r3, [r3, #0]
   d479a:	689b      	ldr	r3, [r3, #8]
   d479c:	9301      	str	r3, [sp, #4]
   d479e:	bd08      	pop	{r3, pc}
   d47a0:	00030240 	.word	0x00030240

000d47a4 <network_disconnect>:
DYNALIB_FN(3, system_net, network_disconnect, void(network_handle_t, uint32_t, void*))
   d47a4:	b508      	push	{r3, lr}
   d47a6:	4b02      	ldr	r3, [pc, #8]	; (d47b0 <network_disconnect+0xc>)
   d47a8:	681b      	ldr	r3, [r3, #0]
   d47aa:	68db      	ldr	r3, [r3, #12]
   d47ac:	9301      	str	r3, [sp, #4]
   d47ae:	bd08      	pop	{r3, pc}
   d47b0:	00030240 	.word	0x00030240

000d47b4 <network_ready>:
DYNALIB_FN(4, system_net, network_ready, bool(network_handle_t, uint32_t, void*))
   d47b4:	b508      	push	{r3, lr}
   d47b6:	4b02      	ldr	r3, [pc, #8]	; (d47c0 <network_ready+0xc>)
   d47b8:	681b      	ldr	r3, [r3, #0]
   d47ba:	691b      	ldr	r3, [r3, #16]
   d47bc:	9301      	str	r3, [sp, #4]
   d47be:	bd08      	pop	{r3, pc}
   d47c0:	00030240 	.word	0x00030240

000d47c4 <network_on>:
DYNALIB_FN(5, system_net, network_on, void(network_handle_t, uint32_t, uint32_t, void*))
   d47c4:	b508      	push	{r3, lr}
   d47c6:	4b02      	ldr	r3, [pc, #8]	; (d47d0 <network_on+0xc>)
   d47c8:	681b      	ldr	r3, [r3, #0]
   d47ca:	695b      	ldr	r3, [r3, #20]
   d47cc:	9301      	str	r3, [sp, #4]
   d47ce:	bd08      	pop	{r3, pc}
   d47d0:	00030240 	.word	0x00030240

000d47d4 <network_off>:
DYNALIB_FN(6, system_net, network_off, void(network_handle_t, uint32_t, uint32_t, void*))
   d47d4:	b508      	push	{r3, lr}
   d47d6:	4b02      	ldr	r3, [pc, #8]	; (d47e0 <network_off+0xc>)
   d47d8:	681b      	ldr	r3, [r3, #0]
   d47da:	699b      	ldr	r3, [r3, #24]
   d47dc:	9301      	str	r3, [sp, #4]
   d47de:	bd08      	pop	{r3, pc}
   d47e0:	00030240 	.word	0x00030240

000d47e4 <network_listen>:
DYNALIB_FN(7, system_net, network_listen, void(network_handle_t, uint32_t, void*))
   d47e4:	b508      	push	{r3, lr}
   d47e6:	4b02      	ldr	r3, [pc, #8]	; (d47f0 <network_listen+0xc>)
   d47e8:	681b      	ldr	r3, [r3, #0]
   d47ea:	69db      	ldr	r3, [r3, #28]
   d47ec:	9301      	str	r3, [sp, #4]
   d47ee:	bd08      	pop	{r3, pc}
   d47f0:	00030240 	.word	0x00030240

000d47f4 <network_listening>:
DYNALIB_FN(8, system_net, network_listening, bool(network_handle_t, uint32_t, void*))
   d47f4:	b508      	push	{r3, lr}
   d47f6:	4b02      	ldr	r3, [pc, #8]	; (d4800 <network_listening+0xc>)
   d47f8:	681b      	ldr	r3, [r3, #0]
   d47fa:	6a1b      	ldr	r3, [r3, #32]
   d47fc:	9301      	str	r3, [sp, #4]
   d47fe:	bd08      	pop	{r3, pc}
   d4800:	00030240 	.word	0x00030240

000d4804 <network_set_listen_timeout>:
DYNALIB_FN(9, system_net, network_has_credentials, bool(network_handle_t, uint32_t, void*))
DYNALIB_FN(10, system_net, network_set_credentials, int(network_handle_t, uint32_t, NetworkCredentials*, void*))
DYNALIB_FN(11, system_net, network_clear_credentials, bool(network_handle_t, uint32_t, NetworkCredentials*, void*))
DYNALIB_FN(12, system_net, network_set_listen_timeout, void(network_handle_t, uint16_t, void*))
   d4804:	b508      	push	{r3, lr}
   d4806:	4b02      	ldr	r3, [pc, #8]	; (d4810 <network_set_listen_timeout+0xc>)
   d4808:	681b      	ldr	r3, [r3, #0]
   d480a:	6b1b      	ldr	r3, [r3, #48]	; 0x30
   d480c:	9301      	str	r3, [sp, #4]
   d480e:	bd08      	pop	{r3, pc}
   d4810:	00030240 	.word	0x00030240

000d4814 <network_get_listen_timeout>:
DYNALIB_FN(13, system_net, network_get_listen_timeout, uint16_t(network_handle_t, uint32_t, void*))
   d4814:	b508      	push	{r3, lr}
   d4816:	4b02      	ldr	r3, [pc, #8]	; (d4820 <network_get_listen_timeout+0xc>)
   d4818:	681b      	ldr	r3, [r3, #0]
   d481a:	6b5b      	ldr	r3, [r3, #52]	; 0x34
   d481c:	9301      	str	r3, [sp, #4]
   d481e:	bd08      	pop	{r3, pc}
   d4820:	00030240 	.word	0x00030240

000d4824 <malloc>:
#include <assert.h>
#endif

DYNALIB_BEGIN(rt)

DYNALIB_FN(0, rt, malloc, void*(size_t))
   d4824:	b508      	push	{r3, lr}
   d4826:	4b02      	ldr	r3, [pc, #8]	; (d4830 <malloc+0xc>)
   d4828:	681b      	ldr	r3, [r3, #0]
   d482a:	681b      	ldr	r3, [r3, #0]
   d482c:	9301      	str	r3, [sp, #4]
   d482e:	bd08      	pop	{r3, pc}
   d4830:	0003021c 	.word	0x0003021c

000d4834 <free>:
DYNALIB_FN(1, rt, free, void(void*))
   d4834:	b508      	push	{r3, lr}
   d4836:	4b02      	ldr	r3, [pc, #8]	; (d4840 <free+0xc>)
   d4838:	681b      	ldr	r3, [r3, #0]
   d483a:	685b      	ldr	r3, [r3, #4]
   d483c:	9301      	str	r3, [sp, #4]
   d483e:	bd08      	pop	{r3, pc}
   d4840:	0003021c 	.word	0x0003021c

000d4844 <realloc>:
DYNALIB_FN(2, rt, realloc, void*(void*, size_t))
   d4844:	b508      	push	{r3, lr}
   d4846:	4b02      	ldr	r3, [pc, #8]	; (d4850 <realloc+0xc>)
   d4848:	681b      	ldr	r3, [r3, #0]
   d484a:	689b      	ldr	r3, [r3, #8]
   d484c:	9301      	str	r3, [sp, #4]
   d484e:	bd08      	pop	{r3, pc}
   d4850:	0003021c 	.word	0x0003021c

000d4854 <snprintf>:
DYNALIB_FN(3, rt, sprintf, int(char*, const char*, ...))
DYNALIB_FN(4, rt, siprintf, int(char*, const char*, ...))
DYNALIB_FN(5, rt, sscanf, int(const char*, const char*, ...))
DYNALIB_FN(6, rt, siscanf, int(const char*, const char*, ...))
DYNALIB_FN(7, rt, snprintf, int(char*, size_t, const char*, ...))
   d4854:	b508      	push	{r3, lr}
   d4856:	4b02      	ldr	r3, [pc, #8]	; (d4860 <snprintf+0xc>)
   d4858:	681b      	ldr	r3, [r3, #0]
   d485a:	69db      	ldr	r3, [r3, #28]
   d485c:	9301      	str	r3, [sp, #4]
   d485e:	bd08      	pop	{r3, pc}
   d4860:	0003021c 	.word	0x0003021c

000d4864 <vsnprintf>:
DYNALIB_FN(8, rt, sniprintf, int(char*, size_t, const char*, ...))
DYNALIB_FN(9, rt, vsnprintf, int(char*, size_t, const char*, va_list))
   d4864:	b508      	push	{r3, lr}
   d4866:	4b02      	ldr	r3, [pc, #8]	; (d4870 <vsnprintf+0xc>)
   d4868:	681b      	ldr	r3, [r3, #0]
   d486a:	6a5b      	ldr	r3, [r3, #36]	; 0x24
   d486c:	9301      	str	r3, [sp, #4]
   d486e:	bd08      	pop	{r3, pc}
   d4870:	0003021c 	.word	0x0003021c

000d4874 <abort>:
DYNALIB_FN(10, rt, vsniprintf, int(char*, size_t, const char*, va_list))
DYNALIB_FN(11, rt, abort, void(void))
   d4874:	b508      	push	{r3, lr}
   d4876:	4b02      	ldr	r3, [pc, #8]	; (d4880 <abort+0xc>)
   d4878:	681b      	ldr	r3, [r3, #0]
   d487a:	6adb      	ldr	r3, [r3, #44]	; 0x2c
   d487c:	9301      	str	r3, [sp, #4]
   d487e:	bd08      	pop	{r3, pc}
   d4880:	0003021c 	.word	0x0003021c

000d4884 <_malloc_r>:
DYNALIB_FN(12, rt, _malloc_r, void*(struct _reent*, size_t))
   d4884:	b508      	push	{r3, lr}
   d4886:	4b02      	ldr	r3, [pc, #8]	; (d4890 <_malloc_r+0xc>)
   d4888:	681b      	ldr	r3, [r3, #0]
   d488a:	6b1b      	ldr	r3, [r3, #48]	; 0x30
   d488c:	9301      	str	r3, [sp, #4]
   d488e:	bd08      	pop	{r3, pc}
   d4890:	0003021c 	.word	0x0003021c

000d4894 <_ZN8particle6detail21futureCallbackWrapperEPv>:
 * License along with this library; if not, see <http://www.gnu.org/licenses/>.
 */

#include "spark_wiring_async.h"

void particle::detail::futureCallbackWrapper(void* data) {
   d4894:	b510      	push	{r4, lr}
  template<typename _Res, typename... _ArgTypes>
    _Res
    function<_Res(_ArgTypes...)>::
    operator()(_ArgTypes... __args) const
    {
      if (_M_empty())
   d4896:	6883      	ldr	r3, [r0, #8]
   d4898:	4604      	mov	r4, r0
   d489a:	b90b      	cbnz	r3, d48a0 <_ZN8particle6detail21futureCallbackWrapperEPv+0xc>
	__throw_bad_function_call();
   d489c:	f002 fb31 	bl	d6f02 <_ZSt25__throw_bad_function_callv>
      return _M_invoker(_M_functor, std::forward<_ArgTypes>(__args)...);
   d48a0:	68c3      	ldr	r3, [r0, #12]
   d48a2:	4798      	blx	r3

    _Function_base() : _M_manager(nullptr) { }

    ~_Function_base()
    {
      if (_M_manager)
   d48a4:	68a3      	ldr	r3, [r4, #8]
   d48a6:	b11b      	cbz	r3, d48b0 <_ZN8particle6detail21futureCallbackWrapperEPv+0x1c>
	_M_manager(_M_functor, _M_functor, __destroy_functor);
   d48a8:	2203      	movs	r2, #3
   d48aa:	4621      	mov	r1, r4
   d48ac:	4620      	mov	r0, r4
   d48ae:	4798      	blx	r3
    auto callbackPtr = static_cast<const std::function<void()>*>(data);
    (*callbackPtr)();
    delete callbackPtr;
   d48b0:	4620      	mov	r0, r4
   d48b2:	2110      	movs	r1, #16
}
   d48b4:	e8bd 4010 	ldmia.w	sp!, {r4, lr}
#include "spark_wiring_async.h"

void particle::detail::futureCallbackWrapper(void* data) {
    auto callbackPtr = static_cast<const std::function<void()>*>(data);
    (*callbackPtr)();
    delete callbackPtr;
   d48b8:	f002 bb07 	b.w	d6eca <_ZdlPvj>

000d48bc <_ZN14RecursiveMutexD1Ev>:
    RecursiveMutex() : handle_(nullptr)
    {
        os_mutex_recursive_create(&handle_);
    }

    ~RecursiveMutex() {
   d48bc:	b510      	push	{r4, lr}
   d48be:	4604      	mov	r4, r0
        dispose();
    }

    void dispose()
    {
        if (handle_) {
   d48c0:	6800      	ldr	r0, [r0, #0]
   d48c2:	b108      	cbz	r0, d48c8 <_ZN14RecursiveMutexD1Ev+0xc>
            os_mutex_recursive_destroy(handle_);
   d48c4:	f7ff fdaa 	bl	d441c <os_mutex_recursive_destroy>
        os_mutex_recursive_create(&handle_);
    }

    ~RecursiveMutex() {
        dispose();
    }
   d48c8:	4620      	mov	r0, r4
   d48ca:	bd10      	pop	{r4, pc}

000d48cc <_ZNSt16_Sp_counted_baseILN9__gnu_cxx12_Lock_policyE0EE10_M_releaseEv.part.4.constprop.112>:
    _Sp_counted_base<_S_single>::_M_add_ref_copy()
    { ++_M_use_count; }

  template<>
    inline void
    _Sp_counted_base<_S_single>::_M_release() noexcept
   d48cc:	b510      	push	{r4, lr}
    {
      if (--_M_use_count == 0)
        {
          _M_dispose();
   d48ce:	6803      	ldr	r3, [r0, #0]
    _Sp_counted_base<_S_single>::_M_add_ref_copy()
    { ++_M_use_count; }

  template<>
    inline void
    _Sp_counted_base<_S_single>::_M_release() noexcept
   d48d0:	4604      	mov	r4, r0
    {
      if (--_M_use_count == 0)
        {
          _M_dispose();
   d48d2:	689b      	ldr	r3, [r3, #8]
   d48d4:	4798      	blx	r3
          if (--_M_weak_count == 0)
   d48d6:	68a3      	ldr	r3, [r4, #8]
   d48d8:	3b01      	subs	r3, #1
   d48da:	60a3      	str	r3, [r4, #8]
   d48dc:	b92b      	cbnz	r3, d48ea <_ZNSt16_Sp_counted_baseILN9__gnu_cxx12_Lock_policyE0EE10_M_releaseEv.part.4.constprop.112+0x1e>
            _M_destroy();
   d48de:	6823      	ldr	r3, [r4, #0]
   d48e0:	4620      	mov	r0, r4
   d48e2:	68db      	ldr	r3, [r3, #12]
        }
    }
   d48e4:	e8bd 4010 	ldmia.w	sp!, {r4, lr}
    {
      if (--_M_use_count == 0)
        {
          _M_dispose();
          if (--_M_weak_count == 0)
            _M_destroy();
   d48e8:	4718      	bx	r3
   d48ea:	bd10      	pop	{r4, pc}

000d48ec <_ZNSt14__shared_countILN9__gnu_cxx12_Lock_policyE0EEC1ERKS2_>:
	if (_M_pi != nullptr)
	  _M_pi->_M_release();
      }

      __shared_count(const __shared_count& __r) noexcept
      : _M_pi(__r._M_pi)
   d48ec:	680b      	ldr	r3, [r1, #0]
   d48ee:	6003      	str	r3, [r0, #0]
      {
	if (_M_pi != 0)
   d48f0:	b113      	cbz	r3, d48f8 <_ZNSt14__shared_countILN9__gnu_cxx12_Lock_policyE0EEC1ERKS2_+0xc>
    }

  template<>
    inline void
    _Sp_counted_base<_S_single>::_M_add_ref_copy()
    { ++_M_use_count; }
   d48f2:	685a      	ldr	r2, [r3, #4]
   d48f4:	3201      	adds	r2, #1
   d48f6:	605a      	str	r2, [r3, #4]
      __shared_count(const __shared_count& __r) noexcept
      : _M_pi(__r._M_pi)
      {
	if (_M_pi != 0)
	  _M_pi->_M_add_ref_copy();
      }
   d48f8:	4770      	bx	lr

000d48fa <_ZNSt14__shared_countILN9__gnu_cxx12_Lock_policyE0EED1Ev>:
      explicit __shared_count(const __weak_count<_Lp>& __r);

      // Does not throw if __r._M_get_use_count() == 0, caller must check.
      explicit __shared_count(const __weak_count<_Lp>& __r, std::nothrow_t);

      ~__shared_count() noexcept
   d48fa:	b510      	push	{r4, lr}
   d48fc:	4604      	mov	r4, r0
      {
	if (_M_pi != nullptr)
   d48fe:	6800      	ldr	r0, [r0, #0]
   d4900:	b128      	cbz	r0, d490e <_ZNSt14__shared_countILN9__gnu_cxx12_Lock_policyE0EED1Ev+0x14>

  template<>
    inline void
    _Sp_counted_base<_S_single>::_M_release() noexcept
    {
      if (--_M_use_count == 0)
   d4902:	6843      	ldr	r3, [r0, #4]
   d4904:	3b01      	subs	r3, #1
   d4906:	6043      	str	r3, [r0, #4]
   d4908:	b90b      	cbnz	r3, d490e <_ZNSt14__shared_countILN9__gnu_cxx12_Lock_policyE0EED1Ev+0x14>
   d490a:	f7ff ffdf 	bl	d48cc <_ZNSt16_Sp_counted_baseILN9__gnu_cxx12_Lock_policyE0EE10_M_releaseEv.part.4.constprop.112>

      ~__shared_count() noexcept
      {
	if (_M_pi != nullptr)
	  _M_pi->_M_release();
      }
   d490e:	4620      	mov	r0, r4
   d4910:	bd10      	pop	{r4, pc}

000d4912 <_ZNSt14__shared_countILN9__gnu_cxx12_Lock_policyE0EEaSERKS2_>:
	if (_M_pi != 0)
	  _M_pi->_M_add_ref_copy();
      }

      __shared_count&
      operator=(const __shared_count& __r) noexcept
   d4912:	b538      	push	{r3, r4, r5, lr}
      {
	_Sp_counted_base<_Lp>* __tmp = __r._M_pi;
   d4914:	680c      	ldr	r4, [r1, #0]
	if (__tmp != _M_pi)
   d4916:	6803      	ldr	r3, [r0, #0]
   d4918:	429c      	cmp	r4, r3
	if (_M_pi != 0)
	  _M_pi->_M_add_ref_copy();
      }

      __shared_count&
      operator=(const __shared_count& __r) noexcept
   d491a:	4605      	mov	r5, r0
      {
	_Sp_counted_base<_Lp>* __tmp = __r._M_pi;
	if (__tmp != _M_pi)
   d491c:	d00c      	beq.n	d4938 <_ZNSt14__shared_countILN9__gnu_cxx12_Lock_policyE0EEaSERKS2_+0x26>
	  {
	    if (__tmp != 0)
   d491e:	b114      	cbz	r4, d4926 <_ZNSt14__shared_countILN9__gnu_cxx12_Lock_policyE0EEaSERKS2_+0x14>
    }

  template<>
    inline void
    _Sp_counted_base<_S_single>::_M_add_ref_copy()
    { ++_M_use_count; }
   d4920:	6863      	ldr	r3, [r4, #4]
   d4922:	3301      	adds	r3, #1
   d4924:	6063      	str	r3, [r4, #4]
	_Sp_counted_base<_Lp>* __tmp = __r._M_pi;
	if (__tmp != _M_pi)
	  {
	    if (__tmp != 0)
	      __tmp->_M_add_ref_copy();
	    if (_M_pi != 0)
   d4926:	6828      	ldr	r0, [r5, #0]
   d4928:	b128      	cbz	r0, d4936 <_ZNSt14__shared_countILN9__gnu_cxx12_Lock_policyE0EEaSERKS2_+0x24>

  template<>
    inline void
    _Sp_counted_base<_S_single>::_M_release() noexcept
    {
      if (--_M_use_count == 0)
   d492a:	6843      	ldr	r3, [r0, #4]
   d492c:	3b01      	subs	r3, #1
   d492e:	6043      	str	r3, [r0, #4]
   d4930:	b90b      	cbnz	r3, d4936 <_ZNSt14__shared_countILN9__gnu_cxx12_Lock_policyE0EEaSERKS2_+0x24>
   d4932:	f7ff ffcb 	bl	d48cc <_ZNSt16_Sp_counted_baseILN9__gnu_cxx12_Lock_policyE0EE10_M_releaseEv.part.4.constprop.112>
	  {
	    if (__tmp != 0)
	      __tmp->_M_add_ref_copy();
	    if (_M_pi != 0)
	      _M_pi->_M_release();
	    _M_pi = __tmp;
   d4936:	602c      	str	r4, [r5, #0]
	  }
	return *this;
      }
   d4938:	4628      	mov	r0, r5
   d493a:	bd38      	pop	{r3, r4, r5, pc}

000d493c <_GLOBAL__sub_I__ZN8particle3ble13WiringBleLock6mutex_E>:
BleCharacteristic BleLocalDevice::addCharacteristic(const String& desc, EnumFlags<BleCharacteristicProperty> properties, BleOnDataReceivedCallback callback, void* context) {
    WiringBleLock lk;
    return addCharacteristic(desc.c_str(), properties, callback, context);
}

} /* namespace particle */
   d493c:	b510      	push	{r4, lr}
    /**
     * Creates a shared mutex.
     */
    RecursiveMutex(os_mutex_recursive_t handle) : handle_(handle) {}

    RecursiveMutex() : handle_(nullptr)
   d493e:	4c06      	ldr	r4, [pc, #24]	; (d4958 <_GLOBAL__sub_I__ZN8particle3ble13WiringBleLock6mutex_E+0x1c>)
   d4940:	2300      	movs	r3, #0
    {
        os_mutex_recursive_create(&handle_);
   d4942:	4620      	mov	r0, r4
    /**
     * Creates a shared mutex.
     */
    RecursiveMutex(os_mutex_recursive_t handle) : handle_(handle) {}

    RecursiveMutex() : handle_(nullptr)
   d4944:	6023      	str	r3, [r4, #0]
    {
        os_mutex_recursive_create(&handle_);
   d4946:	f7ff fd61 	bl	d440c <os_mutex_recursive_create>
private:
    bool locked_;
    static RecursiveMutex mutex_;
};

RecursiveMutex WiringBleLock::mutex_;
   d494a:	4620      	mov	r0, r4
   d494c:	4a03      	ldr	r2, [pc, #12]	; (d495c <_GLOBAL__sub_I__ZN8particle3ble13WiringBleLock6mutex_E+0x20>)
   d494e:	4904      	ldr	r1, [pc, #16]	; (d4960 <_GLOBAL__sub_I__ZN8particle3ble13WiringBleLock6mutex_E+0x24>)
BleCharacteristic BleLocalDevice::addCharacteristic(const String& desc, EnumFlags<BleCharacteristicProperty> properties, BleOnDataReceivedCallback callback, void* context) {
    WiringBleLock lk;
    return addCharacteristic(desc.c_str(), properties, callback, context);
}

} /* namespace particle */
   d4950:	e8bd 4010 	ldmia.w	sp!, {r4, lr}
private:
    bool locked_;
    static RecursiveMutex mutex_;
};

RecursiveMutex WiringBleLock::mutex_;
   d4954:	f002 bab4 	b.w	d6ec0 <__aeabi_atexit>
   d4958:	2003e398 	.word	0x2003e398
   d495c:	2003e2e8 	.word	0x2003e2e8
   d4960:	000d48bd 	.word	0x000d48bd

000d4964 <_ZNSt15_Sp_counted_ptrIPN8particle6detail10FutureImplIbNS1_13FutureContextEEELN9__gnu_cxx12_Lock_policyE0EED1Ev>:
    class __shared_count;


  // Counted ptr with no deleter or allocator support
  template<typename _Ptr, _Lock_policy _Lp>
    class _Sp_counted_ptr final : public _Sp_counted_base<_Lp>
   d4964:	4770      	bx	lr

000d4966 <_ZNSt15_Sp_counted_ptrIPN8particle6detail10FutureImplIbNS1_13FutureContextEEELN9__gnu_cxx12_Lock_policyE0EE14_M_get_deleterERKSt9type_info>:
      _M_destroy() noexcept
      { delete this; }

      virtual void*
      _M_get_deleter(const std::type_info&) noexcept
      { return nullptr; }
   d4966:	2000      	movs	r0, #0
   d4968:	4770      	bx	lr

000d496a <_ZNSt15_Sp_counted_ptrIPN8particle6detail10FutureImplIbNS1_13FutureContextEEELN9__gnu_cxx12_Lock_policyE0EED0Ev>:
    class __shared_count;


  // Counted ptr with no deleter or allocator support
  template<typename _Ptr, _Lock_policy _Lp>
    class _Sp_counted_ptr final : public _Sp_counted_base<_Lp>
   d496a:	b510      	push	{r4, lr}
   d496c:	2110      	movs	r1, #16
   d496e:	4604      	mov	r4, r0
   d4970:	f002 faab 	bl	d6eca <_ZdlPvj>
   d4974:	4620      	mov	r0, r4
   d4976:	bd10      	pop	{r4, pc}

000d4978 <_ZNSt15_Sp_counted_ptrIPN8particle6detail10FutureImplIbNS1_13FutureContextEEELN9__gnu_cxx12_Lock_policyE0EE10_M_destroyEv>:
      virtual void
      _M_dispose() noexcept
      { delete _M_ptr; }

      virtual void
      _M_destroy() noexcept
   d4978:	b508      	push	{r3, lr}
      { delete this; }
   d497a:	b108      	cbz	r0, d4980 <_ZNSt15_Sp_counted_ptrIPN8particle6detail10FutureImplIbNS1_13FutureContextEEELN9__gnu_cxx12_Lock_policyE0EE10_M_destroyEv+0x8>
   d497c:	f7ff fff5 	bl	d496a <_ZNSt15_Sp_counted_ptrIPN8particle6detail10FutureImplIbNS1_13FutureContextEEELN9__gnu_cxx12_Lock_policyE0EED0Ev>
   d4980:	bd08      	pop	{r3, pc}

000d4982 <_ZNSt14_Function_baseD1Ev>:
	}
      };

    _Function_base() : _M_manager(nullptr) { }

    ~_Function_base()
   d4982:	b510      	push	{r4, lr}
    {
      if (_M_manager)
   d4984:	6883      	ldr	r3, [r0, #8]
	}
      };

    _Function_base() : _M_manager(nullptr) { }

    ~_Function_base()
   d4986:	4604      	mov	r4, r0
    {
      if (_M_manager)
   d4988:	b113      	cbz	r3, d4990 <_ZNSt14_Function_baseD1Ev+0xe>
	_M_manager(_M_functor, _M_functor, __destroy_functor);
   d498a:	2203      	movs	r2, #3
   d498c:	4601      	mov	r1, r0
   d498e:	4798      	blx	r3
    }
   d4990:	4620      	mov	r0, r4
   d4992:	bd10      	pop	{r4, pc}

000d4994 <_ZN8particle5ErrorC1EOS0_>:

} // namespace particle

inline particle::Error::Error(Type type) :
        msg_(nullptr),
        type_(type) {
   d4994:	2200      	movs	r2, #0
   d4996:	6002      	str	r2, [r0, #0]

inline particle::Error::Error(const Error& error) :
        Error(error.type_, error.msg_) {
}

inline particle::Error::Error(Error&& error) :
   d4998:	b510      	push	{r4, lr}

} // namespace particle

inline particle::Error::Error(Type type) :
        msg_(nullptr),
        type_(type) {
   d499a:	f64f 729c 	movw	r2, #65436	; 0xff9c
   d499e:	8082      	strh	r2, [r0, #4]
    {
      // concept requirements
      __glibcxx_function_requires(_SGIAssignableConcept<_Tp>)

      _Tp __tmp = _GLIBCXX_MOVE(__a);
      __a = _GLIBCXX_MOVE(__b);
   d49a0:	f9b1 4004 	ldrsh.w	r4, [r1, #4]
   d49a4:	8084      	strh	r4, [r0, #4]
      __b = _GLIBCXX_MOVE(__tmp);
   d49a6:	808a      	strh	r2, [r1, #4]
#endif
    {
      // concept requirements
      __glibcxx_function_requires(_SGIAssignableConcept<_Tp>)

      _Tp __tmp = _GLIBCXX_MOVE(__a);
   d49a8:	6802      	ldr	r2, [r0, #0]
      __a = _GLIBCXX_MOVE(__b);
   d49aa:	680c      	ldr	r4, [r1, #0]
   d49ac:	6004      	str	r4, [r0, #0]
      __b = _GLIBCXX_MOVE(__tmp);
   d49ae:	600a      	str	r2, [r1, #0]
}

inline particle::Error::Error(Error&& error) :
        Error() {
    swap(*this, error);
}
   d49b0:	bd10      	pop	{r4, pc}

000d49b2 <_ZN8particle5ErrorD1Ev>:

inline particle::Error::~Error() {
   d49b2:	b510      	push	{r4, lr}
   d49b4:	4604      	mov	r4, r0
    free((void*)msg_);
   d49b6:	6800      	ldr	r0, [r0, #0]
   d49b8:	f7ff ff3c 	bl	d4834 <free>
}
   d49bc:	4620      	mov	r0, r4
   d49be:	bd10      	pop	{r4, pc}

000d49c0 <_ZNSt15_Sp_counted_ptrIPN8particle6detail10FutureImplIbNS1_13FutureContextEEELN9__gnu_cxx12_Lock_policyE0EE10_M_disposeEv>:
      explicit
      _Sp_counted_ptr(_Ptr __p) noexcept
      : _M_ptr(__p) { }

      virtual void
      _M_dispose() noexcept
   d49c0:	b538      	push	{r3, r4, r5, lr}
      { delete _M_ptr; }
   d49c2:	68c4      	ldr	r4, [r0, #12]
   d49c4:	b1f4      	cbz	r4, d4a04 <_ZNSt15_Sp_counted_ptrIPN8particle6detail10FutureImplIbNS1_13FutureContextEEELN9__gnu_cxx12_Lock_policyE0EE10_M_disposeEv+0x44>

      _Tp
      load(memory_order __m = memory_order_seq_cst) const noexcept
      { 
        _Tp tmp;
	__atomic_load(&_M_i, &tmp, __m);
   d49c6:	7823      	ldrb	r3, [r4, #0]
    ~FutureImpl() {
        // Call destructor of the appropriate unnamed enum's field
        const State s = this->state();
        if (s == State::SUCCEEDED) {
            result_.~ResultT();
        } else if (s == State::FAILED) {
   d49c8:	2b02      	cmp	r3, #2
   d49ca:	d103      	bne.n	d49d4 <_ZNSt15_Sp_counted_ptrIPN8particle6detail10FutureImplIbNS1_13FutureContextEEELN9__gnu_cxx12_Lock_policyE0EE10_M_disposeEv+0x14>
            error_.~Error();
   d49cc:	f104 000c 	add.w	r0, r4, #12
   d49d0:	f7ff ffef 	bl	d49b2 <_ZN8particle5ErrorD1Ev>
      {
        memory_order __b = __m & __memory_order_mask;
	__glibcxx_assert(__b != memory_order_release);
	__glibcxx_assert(__b != memory_order_acq_rel);

	return __atomic_load_n(&_M_p, __m);
   d49d4:	6865      	ldr	r5, [r4, #4]
    // Completion callback types
    typedef typename detail::FutureCallbackTypes<ResultT>::OnSuccess OnSuccessCallback;
    typedef typename detail::FutureCallbackTypes<ResultT>::OnError OnErrorCallback;

    ~FutureImplBase() {
        delete onSuccess_.load(std::memory_order_relaxed);
   d49d6:	b135      	cbz	r5, d49e6 <_ZNSt15_Sp_counted_ptrIPN8particle6detail10FutureImplIbNS1_13FutureContextEEELN9__gnu_cxx12_Lock_policyE0EE10_M_disposeEv+0x26>
   *  @ingroup functors
   *
   *  Polymorphic function wrapper.
   */
  template<typename _Res, typename... _ArgTypes>
    class function<_Res(_ArgTypes...)>
   d49d8:	4628      	mov	r0, r5
   d49da:	f7ff ffd2 	bl	d4982 <_ZNSt14_Function_baseD1Ev>
   d49de:	2110      	movs	r1, #16
   d49e0:	4628      	mov	r0, r5
   d49e2:	f002 fa72 	bl	d6eca <_ZdlPvj>
   d49e6:	68a5      	ldr	r5, [r4, #8]
        delete onError_.load(std::memory_order_relaxed);
   d49e8:	b135      	cbz	r5, d49f8 <_ZNSt15_Sp_counted_ptrIPN8particle6detail10FutureImplIbNS1_13FutureContextEEELN9__gnu_cxx12_Lock_policyE0EE10_M_disposeEv+0x38>
   d49ea:	4628      	mov	r0, r5
   d49ec:	f7ff ffc9 	bl	d4982 <_ZNSt14_Function_baseD1Ev>
   d49f0:	2110      	movs	r1, #16
   d49f2:	4628      	mov	r0, r5
   d49f4:	f002 fa69 	bl	d6eca <_ZdlPvj>
   d49f8:	4620      	mov	r0, r4
   d49fa:	2114      	movs	r1, #20
   d49fc:	e8bd 4038 	ldmia.w	sp!, {r3, r4, r5, lr}
   d4a00:	f002 ba63 	b.w	d6eca <_ZdlPvj>
   d4a04:	bd38      	pop	{r3, r4, r5, pc}

000d4a06 <_ZN8particle6FutureIbNS_6detail13FutureContextEEC1ESt10shared_ptrINS1_10FutureImplIbS2_EEE>:
};

template<typename ResultT, typename ContextT = detail::FutureContext>
class Future: public FutureBase<ResultT, ContextT> {
public:
    using FutureBase<ResultT, ContextT>::FutureBase;
   d4a06:	b513      	push	{r0, r1, r4, lr}
   d4a08:	4604      	mov	r4, r0
      }

      void
      _M_swap(__shared_count& __r) noexcept
      {
	_Sp_counted_base<_Lp>* __tmp = __r._M_pi;
   d4a0a:	e891 0005 	ldmia.w	r1, {r0, r2}
	__r._M_pi = _M_pi;
   d4a0e:	2300      	movs	r3, #0
   d4a10:	604b      	str	r3, [r1, #4]

      __shared_ptr(__shared_ptr&& __r) noexcept
      : _M_ptr(__r._M_ptr), _M_refcount()
      {
	_M_refcount._M_swap(__r._M_refcount);
	__r._M_ptr = 0;
   d4a12:	600b      	str	r3, [r1, #0]
	__shared_ptr(const __shared_ptr<_Tp1, _Lp>& __r) noexcept
	: _M_ptr(__r._M_ptr), _M_refcount(__r._M_refcount)
	{ }

      __shared_ptr(__shared_ptr&& __r) noexcept
      : _M_ptr(__r._M_ptr), _M_refcount()
   d4a14:	6020      	str	r0, [r4, #0]
      void
      _M_swap(__shared_count& __r) noexcept
      {
	_Sp_counted_base<_Lp>* __tmp = __r._M_pi;
	__r._M_pi = _M_pi;
	_M_pi = __tmp;
   d4a16:	6062      	str	r2, [r4, #4]
	: _M_ptr(__p), _M_refcount(__r._M_refcount) // never throws
	{ }

      __shared_ptr(const __shared_ptr&) noexcept = default;
      __shared_ptr& operator=(const __shared_ptr&) noexcept = default;
      ~__shared_ptr() = default;
   d4a18:	a801      	add	r0, sp, #4

      void
      _M_swap(__shared_count& __r) noexcept
      {
	_Sp_counted_base<_Lp>* __tmp = __r._M_pi;
	__r._M_pi = _M_pi;
   d4a1a:	9301      	str	r3, [sp, #4]

      __shared_ptr(__shared_ptr&& __r) noexcept
      : _M_ptr(__r._M_ptr), _M_refcount()
      {
	_M_refcount._M_swap(__r._M_refcount);
	__r._M_ptr = 0;
   d4a1c:	9300      	str	r3, [sp, #0]
	: _M_ptr(__p), _M_refcount(__r._M_refcount) // never throws
	{ }

      __shared_ptr(const __shared_ptr&) noexcept = default;
      __shared_ptr& operator=(const __shared_ptr&) noexcept = default;
      ~__shared_ptr() = default;
   d4a1e:	f7ff ff6c 	bl	d48fa <_ZNSt14__shared_countILN9__gnu_cxx12_Lock_policyE0EED1Ev>
   d4a22:	4620      	mov	r0, r4
   d4a24:	b002      	add	sp, #8
   d4a26:	bd10      	pop	{r4, pc}

000d4a28 <_ZN8particle11PromiseBaseIbNS_6detail13FutureContextEE11fromDataPtrEPv>:
        // TODO: Use custom reference counting object to avoid unnecessary memory allocation
        return new detail::FutureImplPtr<ResultT, ContextT>(p_);
    }

    // Unwraps promise from an object pointer created via dataPtr() method
    static Promise<ResultT, ContextT> fromDataPtr(void* data) {
   d4a28:	b5f7      	push	{r0, r1, r2, r4, r5, r6, r7, lr}
      template<typename _Tp1>
	__shared_ptr(const __shared_ptr<_Tp1, _Lp>& __r, _Tp* __p) noexcept
	: _M_ptr(__p), _M_refcount(__r._M_refcount) // never throws
	{ }

      __shared_ptr(const __shared_ptr&) noexcept = default;
   d4a2a:	460c      	mov	r4, r1
   d4a2c:	ad02      	add	r5, sp, #8
   d4a2e:	f854 3b04 	ldr.w	r3, [r4], #4
   d4a32:	f845 3d08 	str.w	r3, [r5, #-8]!
   d4a36:	4606      	mov	r6, r0
   d4a38:	460f      	mov	r7, r1
   d4a3a:	a801      	add	r0, sp, #4
   d4a3c:	4621      	mov	r1, r4
   d4a3e:	f7ff ff55 	bl	d48ec <_ZNSt14__shared_countILN9__gnu_cxx12_Lock_policyE0EEC1ERKS2_>
        auto d = static_cast<detail::FutureImplPtr<ResultT, ContextT>*>(data);
        const Promise<ResultT, ContextT> p(*d);
   d4a42:	4629      	mov	r1, r5
   d4a44:	4630      	mov	r0, r6
   d4a46:	f7ff ffde 	bl	d4a06 <_ZN8particle6FutureIbNS_6detail13FutureContextEEC1ESt10shared_ptrINS1_10FutureImplIbS2_EEE>
      __shared_ptr& operator=(const __shared_ptr&) noexcept = default;
      ~__shared_ptr() = default;
   d4a4a:	a801      	add	r0, sp, #4
   d4a4c:	f7ff ff55 	bl	d48fa <_ZNSt14__shared_countILN9__gnu_cxx12_Lock_policyE0EED1Ev>
   d4a50:	4620      	mov	r0, r4
   d4a52:	f7ff ff52 	bl	d48fa <_ZNSt14__shared_countILN9__gnu_cxx12_Lock_policyE0EED1Ev>
        delete d;
   d4a56:	4638      	mov	r0, r7
   d4a58:	2108      	movs	r1, #8
   d4a5a:	f002 fa36 	bl	d6eca <_ZdlPvj>
        return p;
    }
   d4a5e:	4630      	mov	r0, r6
   d4a60:	b003      	add	sp, #12
   d4a62:	bdf0      	pop	{r4, r5, r6, r7, pc}

000d4a64 <_ZSt4swapISt9_Any_dataEvRT_S2_>:
   *  @param  __b  Another thing of arbitrary type.
   *  @return   Nothing.
  */
  template<typename _Tp>
    inline void
    swap(_Tp& __a, _Tp& __b)
   d4a64:	b513      	push	{r0, r1, r4, lr}
   d4a66:	460b      	mov	r3, r1
   d4a68:	4604      	mov	r4, r0
#endif
    {
      // concept requirements
      __glibcxx_function_requires(_SGIAssignableConcept<_Tp>)

      _Tp __tmp = _GLIBCXX_MOVE(__a);
   d4a6a:	c803      	ldmia	r0, {r0, r1}
   d4a6c:	e88d 0003 	stmia.w	sp, {r0, r1}
      __a = _GLIBCXX_MOVE(__b);
   d4a70:	e893 0003 	ldmia.w	r3, {r0, r1}
   d4a74:	e884 0003 	stmia.w	r4, {r0, r1}
      __b = _GLIBCXX_MOVE(__tmp);
   d4a78:	e89d 0003 	ldmia.w	sp, {r0, r1}
   d4a7c:	e883 0003 	stmia.w	r3, {r0, r1}
    }
   d4a80:	b002      	add	sp, #8
   d4a82:	bd10      	pop	{r4, pc}

000d4a84 <_ZNSt14__shared_countILN9__gnu_cxx12_Lock_policyE0EEC1IPN8particle6detail10FutureImplIbNS5_13FutureContextEEEEET_>:
      constexpr __shared_count() noexcept : _M_pi(0)
      { }

      template<typename _Ptr>
        explicit
	__shared_count(_Ptr __p) : _M_pi(0)
   d4a84:	b538      	push	{r3, r4, r5, lr}
   d4a86:	2300      	movs	r3, #0
   d4a88:	4604      	mov	r4, r0
   d4a8a:	6003      	str	r3, [r0, #0]
	{
	  __try
	    {
	      _M_pi = new _Sp_counted_ptr<_Ptr, _Lp>(__p);
   d4a8c:	2010      	movs	r0, #16
      constexpr __shared_count() noexcept : _M_pi(0)
      { }

      template<typename _Ptr>
        explicit
	__shared_count(_Ptr __p) : _M_pi(0)
   d4a8e:	460d      	mov	r5, r1
	{
	  __try
	    {
	      _M_pi = new _Sp_counted_ptr<_Ptr, _Lp>(__p);
   d4a90:	f7ff fb03 	bl	d409a <_Znwj>
   d4a94:	b128      	cbz	r0, d4aa2 <_ZNSt14__shared_countILN9__gnu_cxx12_Lock_policyE0EEC1IPN8particle6detail10FutureImplIbNS5_13FutureContextEEEEET_+0x1e>
    class _Sp_counted_base
    : public _Mutex_base<_Lp>
    {
    public:  
      _Sp_counted_base() noexcept
      : _M_use_count(1), _M_weak_count(1) { }
   d4a96:	2301      	movs	r3, #1
   d4a98:	6043      	str	r3, [r0, #4]
   d4a9a:	6083      	str	r3, [r0, #8]
    class _Sp_counted_ptr final : public _Sp_counted_base<_Lp>
    {
    public:
      explicit
      _Sp_counted_ptr(_Ptr __p) noexcept
      : _M_ptr(__p) { }
   d4a9c:	4b02      	ldr	r3, [pc, #8]	; (d4aa8 <_ZNSt14__shared_countILN9__gnu_cxx12_Lock_policyE0EEC1IPN8particle6detail10FutureImplIbNS5_13FutureContextEEEEET_+0x24>)
   d4a9e:	6003      	str	r3, [r0, #0]
   d4aa0:	60c5      	str	r5, [r0, #12]
        explicit
	__shared_count(_Ptr __p) : _M_pi(0)
	{
	  __try
	    {
	      _M_pi = new _Sp_counted_ptr<_Ptr, _Lp>(__p);
   d4aa2:	6020      	str	r0, [r4, #0]
	  __catch(...)
	    {
	      delete __p;
	      __throw_exception_again;
	    }
	}
   d4aa4:	4620      	mov	r0, r4
   d4aa6:	bd38      	pop	{r3, r4, r5, pc}
   d4aa8:	000d7d10 	.word	0x000d7d10

000d4aac <_ZNKSt8functionIFvRKN8particle5ErrorEEEclES3_>:
  template<typename _Res, typename... _ArgTypes>
    _Res
    function<_Res(_ArgTypes...)>::
    operator()(_ArgTypes... __args) const
    {
      if (_M_empty())
   d4aac:	6882      	ldr	r2, [r0, #8]
	  }
      }

  template<typename _Res, typename... _ArgTypes>
    _Res
    function<_Res(_ArgTypes...)>::
   d4aae:	b510      	push	{r4, lr}
    operator()(_ArgTypes... __args) const
    {
      if (_M_empty())
   d4ab0:	b90a      	cbnz	r2, d4ab6 <_ZNKSt8functionIFvRKN8particle5ErrorEEEclES3_+0xa>
	__throw_bad_function_call();
   d4ab2:	f002 fa26 	bl	d6f02 <_ZSt25__throw_bad_function_callv>
      return _M_invoker(_M_functor, std::forward<_ArgTypes>(__args)...);
   d4ab6:	68c3      	ldr	r3, [r0, #12]
    }
   d4ab8:	e8bd 4010 	ldmia.w	sp!, {r4, lr}
    function<_Res(_ArgTypes...)>::
    operator()(_ArgTypes... __args) const
    {
      if (_M_empty())
	__throw_bad_function_call();
      return _M_invoker(_M_functor, std::forward<_ArgTypes>(__args)...);
   d4abc:	4718      	bx	r3

000d4abe <_ZNSt17_Function_handlerIFvvESt5_BindIFSt8functionIFvRKN8particle5ErrorEEES4_EEE9_M_invokeERKSt9_Any_data>:
    {
      typedef _Function_base::_Base_manager<_Functor> _Base;

     public:
      static void
      _M_invoke(const _Any_data& __functor, _ArgTypes&&... __args)
   d4abe:	b508      	push	{r3, lr}
	static _Functor*
	_M_get_pointer(const _Any_data& __source)
	{
	  const _Functor* __ptr =
	    __stored_locally? std::__addressof(__source._M_access<_Functor>())
	    /* have stored a pointer */ : __source._M_access<_Functor*>();
   d4ac0:	6800      	ldr	r0, [r0, #0]
      template<typename _Result, typename... _Args, std::size_t... _Indexes>
	_Result
	__call(tuple<_Args...>&& __args, _Index_tuple<_Indexes...>)
	{
	  return _M_f(_Mu<_Bound_args>()
		      (std::get<_Indexes>(_M_bound_args), __args)...);
   d4ac2:	f100 0110 	add.w	r1, r0, #16
   d4ac6:	f7ff fff1 	bl	d4aac <_ZNKSt8functionIFvRKN8particle5ErrorEEEclES3_>
   d4aca:	bd08      	pop	{r3, pc}

000d4acc <_ZNKSt8functionIFvRKbEEclES1_>:
  template<typename _Res, typename... _ArgTypes>
    _Res
    function<_Res(_ArgTypes...)>::
    operator()(_ArgTypes... __args) const
    {
      if (_M_empty())
   d4acc:	6882      	ldr	r2, [r0, #8]
	  }
      }

  template<typename _Res, typename... _ArgTypes>
    _Res
    function<_Res(_ArgTypes...)>::
   d4ace:	b510      	push	{r4, lr}
    operator()(_ArgTypes... __args) const
    {
      if (_M_empty())
   d4ad0:	b90a      	cbnz	r2, d4ad6 <_ZNKSt8functionIFvRKbEEclES1_+0xa>
	__throw_bad_function_call();
   d4ad2:	f002 fa16 	bl	d6f02 <_ZSt25__throw_bad_function_callv>
      return _M_invoker(_M_functor, std::forward<_ArgTypes>(__args)...);
   d4ad6:	68c3      	ldr	r3, [r0, #12]
    }
   d4ad8:	e8bd 4010 	ldmia.w	sp!, {r4, lr}
    function<_Res(_ArgTypes...)>::
    operator()(_ArgTypes... __args) const
    {
      if (_M_empty())
	__throw_bad_function_call();
      return _M_invoker(_M_functor, std::forward<_ArgTypes>(__args)...);
   d4adc:	4718      	bx	r3

000d4ade <_ZNSt17_Function_handlerIFvvESt5_BindIFSt8functionIFvRKbEEbEEE9_M_invokeERKSt9_Any_data>:
    {
      typedef _Function_base::_Base_manager<_Functor> _Base;

     public:
      static void
      _M_invoke(const _Any_data& __functor, _ArgTypes&&... __args)
   d4ade:	b508      	push	{r3, lr}
	static _Functor*
	_M_get_pointer(const _Any_data& __source)
	{
	  const _Functor* __ptr =
	    __stored_locally? std::__addressof(__source._M_access<_Functor>())
	    /* have stored a pointer */ : __source._M_access<_Functor*>();
   d4ae0:	6800      	ldr	r0, [r0, #0]
      template<typename _Result, typename... _Args, std::size_t... _Indexes>
	_Result
	__call(tuple<_Args...>&& __args, _Index_tuple<_Indexes...>)
	{
	  return _M_f(_Mu<_Bound_args>()
		      (std::get<_Indexes>(_M_bound_args), __args)...);
   d4ae2:	f100 0110 	add.w	r1, r0, #16
   d4ae6:	f7ff fff1 	bl	d4acc <_ZNKSt8functionIFvRKbEEclES1_>
   d4aea:	bd08      	pop	{r3, pc}

000d4aec <_ZNSt8functionIFvRKN8particle5ErrorEEEC1ERKS5_>:
      _Invoker_type _M_invoker;
  };

  // Out-of-line member definitions.
  template<typename _Res, typename... _ArgTypes>
    function<_Res(_ArgTypes...)>::
   d4aec:	b538      	push	{r3, r4, r5, lr}
	{
	  _Base::_M_init_functor(__functor, std::__addressof(__f.get()));
	}
      };

    _Function_base() : _M_manager(nullptr) { }
   d4aee:	2300      	movs	r3, #0
   d4af0:	6083      	str	r3, [r0, #8]
   d4af2:	688b      	ldr	r3, [r1, #8]
      _Invoker_type _M_invoker;
  };

  // Out-of-line member definitions.
  template<typename _Res, typename... _ArgTypes>
    function<_Res(_ArgTypes...)>::
   d4af4:	4604      	mov	r4, r0
   d4af6:	460d      	mov	r5, r1
    function(const function& __x)
    : _Function_base()
    {
      if (static_cast<bool>(__x))
   d4af8:	b12b      	cbz	r3, d4b06 <_ZNSt8functionIFvRKN8particle5ErrorEEEC1ERKS5_+0x1a>
	{
	  __x._M_manager(_M_functor, __x._M_functor, __clone_functor);
   d4afa:	2202      	movs	r2, #2
   d4afc:	4798      	blx	r3
	  _M_invoker = __x._M_invoker;
   d4afe:	68eb      	ldr	r3, [r5, #12]
   d4b00:	60e3      	str	r3, [r4, #12]
	  _M_manager = __x._M_manager;
   d4b02:	68ab      	ldr	r3, [r5, #8]
   d4b04:	60a3      	str	r3, [r4, #8]
	}
    }
   d4b06:	4620      	mov	r0, r4
   d4b08:	bd38      	pop	{r3, r4, r5, pc}
	...

000d4b0c <_ZN8particle11PromiseBaseIbNS_6detail13FutureContextEE8setErrorENS_5ErrorE>:

    explicit PromiseBase(detail::FutureImplPtr<ResultT, ContextT> ptr) :
            p_(std::move(ptr)) {
    }

    void setError(Error error) {
   d4b0c:	b5f0      	push	{r4, r5, r6, r7, lr}
   d4b0e:	b089      	sub	sp, #36	; 0x24
   d4b10:	6804      	ldr	r4, [r0, #0]
        p_->setError(std::move(error));
   d4b12:	4668      	mov	r0, sp
   d4b14:	f7ff ff3e 	bl	d4994 <_ZN8particle5ErrorC1EOS0_>
            onSuccess_(nullptr),
            onError_(nullptr) {
    }

    bool changeState(State state) {
        State s = State::RUNNING; // Expected state
   d4b18:	2300      	movs	r3, #0
   d4b1a:	f88d 3008 	strb.w	r3, [sp, #8]

      bool
      compare_exchange_strong(_Tp& __e, _Tp __i, memory_order __s, 
			      memory_order __f) noexcept
      {
	return __atomic_compare_exchange(&_M_i, &__e, &__i, false, __s, __f);
   d4b1e:	f04f 0202 	mov.w	r2, #2
   d4b22:	e8d4 3f4f 	ldrexb	r3, [r4]
   d4b26:	2b00      	cmp	r3, #0
   d4b28:	d103      	bne.n	d4b32 <_ZN8particle11PromiseBaseIbNS_6detail13FutureContextEE8setErrorENS_5ErrorE+0x26>
   d4b2a:	e8c4 2f41 	strexb	r1, r2, [r4]
   d4b2e:	2900      	cmp	r1, #0
   d4b30:	d1f7      	bne.n	d4b22 <_ZN8particle11PromiseBaseIbNS_6detail13FutureContextEE8setErrorENS_5ErrorE+0x16>
   d4b32:	d002      	beq.n	d4b3a <_ZN8particle11PromiseBaseIbNS_6detail13FutureContextEE8setErrorENS_5ErrorE+0x2e>
   d4b34:	f88d 3008 	strb.w	r3, [sp, #8]
   d4b38:	e063      	b.n	d4c02 <_ZN8particle11PromiseBaseIbNS_6detail13FutureContextEE8setErrorENS_5ErrorE+0xf6>
        return std::move(defaultValue);
    }

    void setError(Error error) {
        if (this->changeState(State::FAILED)) {
            new(&error_) Error(std::move(error));
   d4b3a:	f114 050c 	adds.w	r5, r4, #12
   d4b3e:	d003      	beq.n	d4b48 <_ZN8particle11PromiseBaseIbNS_6detail13FutureContextEE8setErrorENS_5ErrorE+0x3c>
   d4b40:	4669      	mov	r1, sp
   d4b42:	4628      	mov	r0, r5
   d4b44:	f7ff ff26 	bl	d4994 <_ZN8particle5ErrorC1EOS0_>
        memory_order __b = __m & __memory_order_mask;
	__glibcxx_assert(__b != memory_order_acquire);
	__glibcxx_assert(__b != memory_order_acq_rel);
	__glibcxx_assert(__b != memory_order_consume);

	__atomic_store_n(&_M_i, __i, __m);
   d4b48:	f3bf 8f5f 	dmb	sy
   d4b4c:	2301      	movs	r3, #1
   d4b4e:	7063      	strb	r3, [r4, #1]

      _GLIBCXX_ALWAYS_INLINE __pointer_type
      exchange(__pointer_type __p,
	       memory_order __m = memory_order_seq_cst) noexcept
      {
	return __atomic_exchange_n(&_M_p, __p, __m);
   d4b50:	2000      	movs	r0, #0
   d4b52:	f104 0308 	add.w	r3, r4, #8
   d4b56:	f3bf 8f5f 	dmb	sy
   d4b5a:	e853 6f00 	ldrex	r6, [r3]
   d4b5e:	e843 0200 	strex	r2, r0, [r3]
   d4b62:	2a00      	cmp	r2, #0
   d4b64:	d1f9      	bne.n	d4b5a <_ZN8particle11PromiseBaseIbNS_6detail13FutureContextEE8setErrorENS_5ErrorE+0x4e>
   d4b66:	f3bf 8f5f 	dmb	sy

    // Takes a callback from its atomic wrapper and invokes it
    template<typename FunctionT, typename... ArgsT>
    static void invokeCallback(std::atomic<std::function<FunctionT>*>& wrapper, ArgsT&&... args) {
        std::function<FunctionT>* callbackPtr = wrapper.exchange(nullptr, std::memory_order_acq_rel);
        if (callbackPtr) {
   d4b6a:	2e00      	cmp	r6, #0
   d4b6c:	d049      	beq.n	d4c02 <_ZN8particle11PromiseBaseIbNS_6detail13FutureContextEE8setErrorENS_5ErrorE+0xf6>
        return (application_thread_invoke(callback, data, nullptr) == 0);
    }

    // Returns true if current thread is the application thread
    static bool isApplicationThreadCurrent() {
        return (application_thread_current(nullptr) != 0);
   d4b6e:	f7ff fdcd 	bl	d470c <application_thread_current>
    }

    // Invokes std::function in the application context
    template<typename FunctionT, typename... ArgsT>
    static void invokeCallback(const std::function<FunctionT>& callback, ArgsT&&... args) {
        if (ContextT::isApplicationThreadCurrent()) {
   d4b72:	b120      	cbz	r0, d4b7e <_ZN8particle11PromiseBaseIbNS_6detail13FutureContextEE8setErrorENS_5ErrorE+0x72>
            callback(std::forward<ArgsT>(args)...); // Synchronous call
   d4b74:	4629      	mov	r1, r5
   d4b76:	4630      	mov	r0, r6
   d4b78:	f7ff ff98 	bl	d4aac <_ZNKSt8functionIFvRKN8particle5ErrorEEEclES3_>
   d4b7c:	e03a      	b.n	d4bf4 <_ZN8particle11PromiseBaseIbNS_6detail13FutureContextEE8setErrorENS_5ErrorE+0xe8>
	}

     public:
      template<typename... _Args>
	explicit _Bind(const _Functor& __f, _Args&&... __args)
	: _M_f(__f), _M_bound_args(std::forward<_Args>(__args)...)
   d4b7e:	4631      	mov	r1, r6
   d4b80:	a802      	add	r0, sp, #8
   d4b82:	f7ff ffb3 	bl	d4aec <_ZNSt8functionIFvRKN8particle5ErrorEEEC1ERKS5_>
inline particle::Error::Error(const char* msg) :
        Error(UNKNOWN, msg) {
}

inline particle::Error::Error(const Error& error) :
        Error(error.type_, error.msg_) {
   d4b86:	68e0      	ldr	r0, [r4, #12]
   d4b88:	f9b4 5010 	ldrsh.w	r5, [r4, #16]
        type_(type) {
}

inline particle::Error::Error(Type type, const char* msg) :
        msg_(msg ? (const char*)strdup(msg) : nullptr),
        type_(type) {
   d4b8c:	b108      	cbz	r0, d4b92 <_ZN8particle11PromiseBaseIbNS_6detail13FutureContextEE8setErrorENS_5ErrorE+0x86>
   d4b8e:	f002 ffab 	bl	d7ae8 <strdup>
   d4b92:	9006      	str	r0, [sp, #24]
        } else {
            // Bind all arguments and wrap resulting function into a pointer
            auto callbackPtr = new std::function<void()>(std::bind(callback, std::forward<ArgsT>(args)...));
   d4b94:	2010      	movs	r0, #16
   d4b96:	f8ad 501c 	strh.w	r5, [sp, #28]
   d4b9a:	f7ff fa7e 	bl	d409a <_Znwj>
   d4b9e:	4605      	mov	r5, r0
   d4ba0:	b1e8      	cbz	r0, d4bde <_ZN8particle11PromiseBaseIbNS_6detail13FutureContextEE8setErrorENS_5ErrorE+0xd2>
	{
	  _Base::_M_init_functor(__functor, std::__addressof(__f.get()));
	}
      };

    _Function_base() : _M_manager(nullptr) { }
   d4ba2:	2700      	movs	r7, #0
   d4ba4:	6087      	str	r7, [r0, #8]
	_M_init_functor(_Any_data& __functor, _Functor&& __f, true_type)
	{ new (__functor._M_access()) _Functor(std::move(__f)); }

	static void
	_M_init_functor(_Any_data& __functor, _Functor&& __f, false_type)
	{ __functor._M_access<_Functor*>() = new _Functor(std::move(__f)); }
   d4ba6:	2018      	movs	r0, #24
   d4ba8:	f7ff fa77 	bl	d409a <_Znwj>
   d4bac:	4604      	mov	r4, r0
   d4bae:	b188      	cbz	r0, d4bd4 <_ZN8particle11PromiseBaseIbNS_6detail13FutureContextEE8setErrorENS_5ErrorE+0xc8>
       *  Swap the targets of @c this function object and @a __f. This
       *  function will not throw an %exception.
       */
      void swap(function& __x)
      {
	std::swap(_M_functor, __x._M_functor);
   d4bb0:	4601      	mov	r1, r0
	{
	  _Base::_M_init_functor(__functor, std::__addressof(__f.get()));
	}
      };

    _Function_base() : _M_manager(nullptr) { }
   d4bb2:	6087      	str	r7, [r0, #8]
       *  Swap the targets of @c this function object and @a __f. This
       *  function will not throw an %exception.
       */
      void swap(function& __x)
      {
	std::swap(_M_functor, __x._M_functor);
   d4bb4:	a802      	add	r0, sp, #8
   d4bb6:	f7ff ff55 	bl	d4a64 <_ZSt4swapISt9_Any_dataEvRT_S2_>
#endif
    {
      // concept requirements
      __glibcxx_function_requires(_SGIAssignableConcept<_Tp>)

      _Tp __tmp = _GLIBCXX_MOVE(__a);
   d4bba:	9b04      	ldr	r3, [sp, #16]
      __a = _GLIBCXX_MOVE(__b);
   d4bbc:	68a2      	ldr	r2, [r4, #8]
      __b = _GLIBCXX_MOVE(__tmp);
   d4bbe:	60a3      	str	r3, [r4, #8]
#endif
    {
      // concept requirements
      __glibcxx_function_requires(_SGIAssignableConcept<_Tp>)

      _Tp __tmp = _GLIBCXX_MOVE(__a);
   d4bc0:	9b05      	ldr	r3, [sp, #20]
      __a = _GLIBCXX_MOVE(__b);
   d4bc2:	9204      	str	r2, [sp, #16]
      constexpr _Head_base(const _Head_base&) = default;
      constexpr _Head_base(_Head_base&&) = default;

      template<typename _UHead>
        constexpr _Head_base(_UHead&& __h)
	: _M_head_impl(std::forward<_UHead>(__h)) { }
   d4bc4:	a906      	add	r1, sp, #24
   d4bc6:	68e2      	ldr	r2, [r4, #12]
      __b = _GLIBCXX_MOVE(__tmp);
   d4bc8:	60e3      	str	r3, [r4, #12]
   d4bca:	f104 0010 	add.w	r0, r4, #16
    {
      // concept requirements
      __glibcxx_function_requires(_SGIAssignableConcept<_Tp>)

      _Tp __tmp = _GLIBCXX_MOVE(__a);
      __a = _GLIBCXX_MOVE(__b);
   d4bce:	9205      	str	r2, [sp, #20]
   d4bd0:	f7ff fee0 	bl	d4994 <_ZN8particle5ErrorC1EOS0_>
	typedef _Function_handler<_Signature_type, _Functor> _My_handler;

	if (_My_handler::_M_not_empty_function(__f))
	  {
	    _My_handler::_M_init_functor(_M_functor, std::move(__f));
	    _M_invoker = &_My_handler::_M_invoke;
   d4bd4:	4b0d      	ldr	r3, [pc, #52]	; (d4c0c <_ZN8particle11PromiseBaseIbNS_6detail13FutureContextEE8setErrorENS_5ErrorE+0x100>)
   d4bd6:	60eb      	str	r3, [r5, #12]
	    _M_manager = &_My_handler::_M_manager;
   d4bd8:	4b0d      	ldr	r3, [pc, #52]	; (d4c10 <_ZN8particle11PromiseBaseIbNS_6detail13FutureContextEE8setErrorENS_5ErrorE+0x104>)
	_M_init_functor(_Any_data& __functor, _Functor&& __f, true_type)
	{ new (__functor._M_access()) _Functor(std::move(__f)); }

	static void
	_M_init_functor(_Any_data& __functor, _Functor&& __f, false_type)
	{ __functor._M_access<_Functor*>() = new _Functor(std::move(__f)); }
   d4bda:	602c      	str	r4, [r5, #0]

	if (_My_handler::_M_not_empty_function(__f))
	  {
	    _My_handler::_M_init_functor(_M_functor, std::move(__f));
	    _M_invoker = &_My_handler::_M_invoke;
	    _M_manager = &_My_handler::_M_manager;
   d4bdc:	60ab      	str	r3, [r5, #8]
      static constexpr const _Head&
      _M_head(const _Head_base& __b) noexcept { return __b; }
    };

  template<std::size_t _Idx, typename _Head>
    struct _Head_base<_Idx, _Head, false>
   d4bde:	a806      	add	r0, sp, #24
   d4be0:	f7ff fee7 	bl	d49b2 <_ZN8particle5ErrorD1Ev>
   *  @ingroup functors
   *
   *  Polymorphic function wrapper.
   */
  template<typename _Res, typename... _ArgTypes>
    class function<_Res(_ArgTypes...)>
   d4be4:	a802      	add	r0, sp, #8
   d4be6:	f7ff fecc 	bl	d4982 <_ZNSt14_Function_baseD1Ev>
        spark_process();
    }

    // Asynchronously invokes a callback in the application context
    static bool invokeApplicationCallback(void (*callback)(void* data), void* data) {
        return (application_thread_invoke(callback, data, nullptr) == 0);
   d4bea:	2200      	movs	r2, #0
   d4bec:	4629      	mov	r1, r5
   d4bee:	4809      	ldr	r0, [pc, #36]	; (d4c14 <_ZN8particle11PromiseBaseIbNS_6detail13FutureContextEE8setErrorENS_5ErrorE+0x108>)
   d4bf0:	f7ff fd94 	bl	d471c <application_thread_invoke>
   d4bf4:	4630      	mov	r0, r6
   d4bf6:	f7ff fec4 	bl	d4982 <_ZNSt14_Function_baseD1Ev>
    template<typename FunctionT, typename... ArgsT>
    static void invokeCallback(std::atomic<std::function<FunctionT>*>& wrapper, ArgsT&&... args) {
        std::function<FunctionT>* callbackPtr = wrapper.exchange(nullptr, std::memory_order_acq_rel);
        if (callbackPtr) {
            invokeCallback(*callbackPtr, std::forward<ArgsT>(args)...);
            delete callbackPtr;
   d4bfa:	2110      	movs	r1, #16
   d4bfc:	4630      	mov	r0, r6
   d4bfe:	f002 f964 	bl	d6eca <_ZdlPvj>
    explicit PromiseBase(detail::FutureImplPtr<ResultT, ContextT> ptr) :
            p_(std::move(ptr)) {
    }

    void setError(Error error) {
        p_->setError(std::move(error));
   d4c02:	4668      	mov	r0, sp
   d4c04:	f7ff fed5 	bl	d49b2 <_ZN8particle5ErrorD1Ev>
    }
   d4c08:	b009      	add	sp, #36	; 0x24
   d4c0a:	bdf0      	pop	{r4, r5, r6, r7, pc}
   d4c0c:	000d4abf 	.word	0x000d4abf
   d4c10:	000d4d35 	.word	0x000d4d35
   d4c14:	000d4895 	.word	0x000d4895

000d4c18 <_ZN10CloudClass13publish_eventEPKcS1_iN8particle5FlagsI15PublishFlagTypehEE>:
    desc.data = (void*)data;
    desc.funcKey = funcKey;
    return spark_function(NULL, (user_function_int_str_t*)&desc, NULL);
}

Future<bool> CloudClass::publish_event(const char *eventName, const char *eventData, int ttl, PublishFlags flags) {
   d4c18:	e92d 4ff0 	stmdb	sp!, {r4, r5, r6, r7, r8, r9, sl, fp, lr}
   d4c1c:	b08b      	sub	sp, #44	; 0x2c
   d4c1e:	4606      	mov	r6, r0
   d4c20:	460f      	mov	r7, r1
   d4c22:	4690      	mov	r8, r2
   d4c24:	4699      	mov	r9, r3
   d4c26:	f89d a050 	ldrb.w	sl, [sp, #80]	; 0x50
    static void sleep(Spark_Sleep_TypeDef sleepMode, long seconds=0) __attribute__ ((deprecated("Please use System.sleep() instead.")))
    { SystemClass::sleep(sleepMode, seconds); }
    static void sleep(uint16_t wakeUpPin, InterruptMode edgeTriggerMode, long seconds=0) __attribute__ ((deprecated("Please use System.sleep() instead.")))
    { SystemClass::sleep(wakeUpPin, edgeTriggerMode, seconds); }

    static bool connected(void) { return spark_cloud_flag_connected(); }
   d4c2a:	f7ff fd93 	bl	d4754 <spark_cloud_flag_connected>
   d4c2e:	ad07      	add	r5, sp, #28
    if (!connected()) {
   d4c30:	4683      	mov	fp, r0
   d4c32:	bb30      	cbnz	r0, d4c82 <_ZN10CloudClass13publish_eventEPKcS1_iN8particle5FlagsI15PublishFlagTypehEE+0x6a>

} // namespace particle

inline particle::Error::Error(Type type) :
        msg_(nullptr),
        type_(type) {
   d4c34:	f64f 732e 	movw	r3, #65326	; 0xff2e
   d4c38:	9005      	str	r0, [sp, #20]
    typedef typename detail::FutureImpl<ResultT, ContextT>::OnSuccessCallback OnSuccessCallback;
    typedef typename detail::FutureImpl<ResultT, ContextT>::OnErrorCallback OnErrorCallback;

    // Construct failed future
    explicit FutureBase(Error error) :
            p_(new detail::FutureImpl<ResultT, ContextT>(std::move(error))) {
   d4c3a:	a905      	add	r1, sp, #20
   d4c3c:	4628      	mov	r0, r5
   d4c3e:	f8ad 3018 	strh.w	r3, [sp, #24]
   d4c42:	f7ff fea7 	bl	d4994 <_ZN8particle5ErrorC1EOS0_>
   d4c46:	2014      	movs	r0, #20
   d4c48:	f7ff fa27 	bl	d409a <_Znwj>
   d4c4c:	4604      	mov	r4, r0
   d4c4e:	b158      	cbz	r0, d4c68 <_ZN10CloudClass13publish_eventEPKcS1_iN8particle5FlagsI15PublishFlagTypehEE+0x50>
      ~atomic() noexcept = default;
      atomic(const atomic&) = delete;
      atomic& operator=(const atomic&) = delete;
      atomic& operator=(const atomic&) volatile = delete;

      constexpr atomic(_Tp __i) noexcept : _M_i(__i) { }
   d4c50:	2302      	movs	r3, #2
   d4c52:	7003      	strb	r3, [r0, #0]
      __atomic_base(const __atomic_base&) = delete;
      __atomic_base& operator=(const __atomic_base&) = delete;
      __atomic_base& operator=(const __atomic_base&) volatile = delete;

      // Requires __int_type convertible to _M_i.
      constexpr __atomic_base(__int_type __i) noexcept : _M_i (__i) { }
   d4c54:	2301      	movs	r3, #1
   d4c56:	7043      	strb	r3, [r0, #1]
      __atomic_base(const __atomic_base&) = delete;
      __atomic_base& operator=(const __atomic_base&) = delete;
      __atomic_base& operator=(const __atomic_base&) volatile = delete;

      // Requires __pointer_type convertible to _M_p.
      constexpr __atomic_base(__pointer_type __p) noexcept : _M_p (__p) { }
   d4c58:	f8c0 b004 	str.w	fp, [r0, #4]
   d4c5c:	f8c0 b008 	str.w	fp, [r0, #8]
            result_(std::move(result)) {
    }

    explicit FutureImpl(Error error) :
            FutureImplBase<ResultT, ContextT>(State::FAILED),
            error_(std::move(error)) {
   d4c60:	4629      	mov	r1, r5
   d4c62:	300c      	adds	r0, #12
   d4c64:	f7ff fe96 	bl	d4994 <_ZN8particle5ErrorC1EOS0_>
      : _M_ptr(0), _M_refcount()
      { }

      template<typename _Tp1>
	explicit __shared_ptr(_Tp1* __p)
        : _M_ptr(__p), _M_refcount(__p)
   d4c68:	4630      	mov	r0, r6
   d4c6a:	4621      	mov	r1, r4
   d4c6c:	f840 4b04 	str.w	r4, [r0], #4
   d4c70:	f7ff ff08 	bl	d4a84 <_ZNSt14__shared_countILN9__gnu_cxx12_Lock_policyE0EEC1IPN8particle6detail10FutureImplIbNS5_13FutureContextEEEEET_>
    typedef typename detail::FutureImpl<ResultT, ContextT>::OnSuccessCallback OnSuccessCallback;
    typedef typename detail::FutureImpl<ResultT, ContextT>::OnErrorCallback OnErrorCallback;

    // Construct failed future
    explicit FutureBase(Error error) :
            p_(new detail::FutureImpl<ResultT, ContextT>(std::move(error))) {
   d4c74:	4628      	mov	r0, r5
   d4c76:	f7ff fe9c 	bl	d49b2 <_ZN8particle5ErrorD1Ev>
    }

    explicit FutureBase(Error::Type error) :
            FutureBase(Error(error)) {
   d4c7a:	a805      	add	r0, sp, #20
   d4c7c:	f7ff fe99 	bl	d49b2 <_ZN8particle5ErrorD1Ev>
   d4c80:	e052      	b.n	d4d28 <_ZN10CloudClass13publish_eventEPKcS1_iN8particle5FlagsI15PublishFlagTypehEE+0x110>
        return Future<bool>(Error::INVALID_STATE);
    }
    spark_send_event_data d = { sizeof(spark_send_event_data) };
   d4c82:	2400      	movs	r4, #0
   d4c84:	230c      	movs	r3, #12
// can be acquired via Future
template<typename ResultT, typename ContextT>
class PromiseBase {
public:
    PromiseBase() :
            p_(new detail::FutureImpl<ResultT, ContextT>(State::RUNNING)) {
   d4c86:	2014      	movs	r0, #20
   d4c88:	606c      	str	r4, [r5, #4]
   d4c8a:	60ac      	str	r4, [r5, #8]
   d4c8c:	9307      	str	r3, [sp, #28]
   d4c8e:	f7ff fa04 	bl	d409a <_Znwj>
   d4c92:	4601      	mov	r1, r0
   d4c94:	b118      	cbz	r0, d4c9e <_ZN10CloudClass13publish_eventEPKcS1_iN8particle5FlagsI15PublishFlagTypehEE+0x86>
   d4c96:	7004      	strb	r4, [r0, #0]
      __atomic_base(const __atomic_base&) = delete;
      __atomic_base& operator=(const __atomic_base&) = delete;
      __atomic_base& operator=(const __atomic_base&) volatile = delete;

      // Requires __int_type convertible to _M_i.
      constexpr __atomic_base(__int_type __i) noexcept : _M_i (__i) { }
   d4c98:	7044      	strb	r4, [r0, #1]
      __atomic_base(const __atomic_base&) = delete;
      __atomic_base& operator=(const __atomic_base&) = delete;
      __atomic_base& operator=(const __atomic_base&) volatile = delete;

      // Requires __pointer_type convertible to _M_p.
      constexpr __atomic_base(__pointer_type __p) noexcept : _M_p (__p) { }
   d4c9a:	6044      	str	r4, [r0, #4]
   d4c9c:	6084      	str	r4, [r0, #8]
   d4c9e:	a804      	add	r0, sp, #16
   d4ca0:	9103      	str	r1, [sp, #12]
   d4ca2:	f7ff feef 	bl	d4a84 <_ZNSt14__shared_countILN9__gnu_cxx12_Lock_policyE0EEC1IPN8particle6detail10FutureImplIbNS5_13FutureContextEEEEET_>

    // Completion handler
    Promise<bool> p;
    d.handler_callback = publishCompletionCallback;
   d4ca6:	4b22      	ldr	r3, [pc, #136]	; (d4d30 <_ZN10CloudClass13publish_eventEPKcS1_iN8particle5FlagsI15PublishFlagTypehEE+0x118>)
   d4ca8:	9308      	str	r3, [sp, #32]
    }

    // Wraps this promise into an object pointer that can be passed to a C function
    void* dataPtr() const {
        // TODO: Use custom reference counting object to avoid unnecessary memory allocation
        return new detail::FutureImplPtr<ResultT, ContextT>(p_);
   d4caa:	2008      	movs	r0, #8
   d4cac:	f7ff f9f5 	bl	d409a <_Znwj>
   d4cb0:	4604      	mov	r4, r0
   d4cb2:	b128      	cbz	r0, d4cc0 <_ZN10CloudClass13publish_eventEPKcS1_iN8particle5FlagsI15PublishFlagTypehEE+0xa8>
      template<typename _Tp1>
	__shared_ptr(const __shared_ptr<_Tp1, _Lp>& __r, _Tp* __p) noexcept
	: _M_ptr(__p), _M_refcount(__r._M_refcount) // never throws
	{ }

      __shared_ptr(const __shared_ptr&) noexcept = default;
   d4cb4:	9b03      	ldr	r3, [sp, #12]
   d4cb6:	f840 3b04 	str.w	r3, [r0], #4
   d4cba:	a904      	add	r1, sp, #16
   d4cbc:	f7ff fe16 	bl	d48ec <_ZNSt14__shared_countILN9__gnu_cxx12_Lock_policyE0EEC1ERKS2_>
    d.handler_data = p.dataPtr();

    if (!spark_send_event(eventName, eventData, ttl, flags.value(), &d) && !p.isDone()) {
   d4cc0:	9500      	str	r5, [sp, #0]
   d4cc2:	fa5f f38a 	uxtb.w	r3, sl
   d4cc6:	464a      	mov	r2, r9
   d4cc8:	4641      	mov	r1, r8
   d4cca:	4638      	mov	r0, r7
    spark_send_event_data d = { sizeof(spark_send_event_data) };

    // Completion handler
    Promise<bool> p;
    d.handler_callback = publishCompletionCallback;
    d.handler_data = p.dataPtr();
   d4ccc:	9409      	str	r4, [sp, #36]	; 0x24

    if (!spark_send_event(eventName, eventData, ttl, flags.value(), &d) && !p.isDone()) {
   d4cce:	f7ff fd49 	bl	d4764 <spark_send_event>
   d4cd2:	b920      	cbnz	r0, d4cde <_ZN10CloudClass13publish_eventEPKcS1_iN8particle5FlagsI15PublishFlagTypehEE+0xc6>
      {
       memory_order __b = __m & __memory_order_mask;
	__glibcxx_assert(__b != memory_order_release);
	__glibcxx_assert(__b != memory_order_acq_rel);

	return __atomic_load_n(&_M_i, __m);
   d4cd4:	9b03      	ldr	r3, [sp, #12]
   d4cd6:	785b      	ldrb	r3, [r3, #1]
   d4cd8:	f003 02ff 	and.w	r2, r3, #255	; 0xff
   d4cdc:	b183      	cbz	r3, d4d00 <_ZN10CloudClass13publish_eventEPKcS1_iN8particle5FlagsI15PublishFlagTypehEE+0xe8>
   d4cde:	9b03      	ldr	r3, [sp, #12]
   d4ce0:	9305      	str	r3, [sp, #20]
   d4ce2:	a904      	add	r1, sp, #16
   d4ce4:	a806      	add	r0, sp, #24
   d4ce6:	f7ff fe01 	bl	d48ec <_ZNSt14__shared_countILN9__gnu_cxx12_Lock_policyE0EEC1ERKS2_>
    bool isDone() const {
        return p_->isDone();
    }

    Future<ResultT, ContextT> future() const {
        return Future<ResultT, ContextT>(p_);
   d4cea:	a905      	add	r1, sp, #20
   d4cec:	4630      	mov	r0, r6
   d4cee:	f7ff fe8a 	bl	d4a06 <_ZN8particle6FutureIbNS_6detail13FutureContextEEC1ESt10shared_ptrINS1_10FutureImplIbS2_EEE>
      __shared_ptr& operator=(const __shared_ptr&) noexcept = default;
      ~__shared_ptr() = default;
   d4cf2:	a806      	add	r0, sp, #24
   d4cf4:	f7ff fe01 	bl	d48fa <_ZNSt14__shared_countILN9__gnu_cxx12_Lock_policyE0EED1Ev>
   d4cf8:	a804      	add	r0, sp, #16
   d4cfa:	f7ff fdfe 	bl	d48fa <_ZNSt14__shared_countILN9__gnu_cxx12_Lock_policyE0EED1Ev>
   d4cfe:	e013      	b.n	d4d28 <_ZN10CloudClass13publish_eventEPKcS1_iN8particle5FlagsI15PublishFlagTypehEE+0x110>
   d4d00:	f64f 739c 	movw	r3, #65436	; 0xff9c
        // Set generic error code in case completion callback wasn't invoked for some reason
        p.setError(Error::UNKNOWN);
   d4d04:	a905      	add	r1, sp, #20
   d4d06:	a803      	add	r0, sp, #12
   d4d08:	9205      	str	r2, [sp, #20]
   d4d0a:	f8ad 3018 	strh.w	r3, [sp, #24]
   d4d0e:	f7ff fefd 	bl	d4b0c <_ZN8particle11PromiseBaseIbNS_6detail13FutureContextEE8setErrorENS_5ErrorE>
   d4d12:	a805      	add	r0, sp, #20
   d4d14:	f7ff fe4d 	bl	d49b2 <_ZN8particle5ErrorD1Ev>
        p.fromDataPtr(d.handler_data); // Free wrapper object
   d4d18:	a805      	add	r0, sp, #20
   d4d1a:	9909      	ldr	r1, [sp, #36]	; 0x24
   d4d1c:	f7ff fe84 	bl	d4a28 <_ZN8particle11PromiseBaseIbNS_6detail13FutureContextEE11fromDataPtrEPv>
   d4d20:	a806      	add	r0, sp, #24
   d4d22:	f7ff fdea 	bl	d48fa <_ZNSt14__shared_countILN9__gnu_cxx12_Lock_policyE0EED1Ev>
   d4d26:	e7da      	b.n	d4cde <_ZN10CloudClass13publish_eventEPKcS1_iN8particle5FlagsI15PublishFlagTypehEE+0xc6>
    }

    return p.future();
}
   d4d28:	4630      	mov	r0, r6
   d4d2a:	b00b      	add	sp, #44	; 0x2c
   d4d2c:	e8bd 8ff0 	ldmia.w	sp!, {r4, r5, r6, r7, r8, r9, sl, fp, pc}
   d4d30:	000d4ea5 	.word	0x000d4ea5

000d4d34 <_ZNSt14_Function_base13_Base_managerISt5_BindIFSt8functionIFvRKN8particle5ErrorEEES4_EEE10_M_managerERSt9_Any_dataRKSC_St18_Manager_operation>:
      public:
	static bool
	_M_manager(_Any_data& __dest, const _Any_data& __source,
		   _Manager_operation __op)
	{
	  switch (__op)
   d4d34:	2a02      	cmp	r2, #2
	  delete __victim._M_access<_Functor*>();
	}

      public:
	static bool
	_M_manager(_Any_data& __dest, const _Any_data& __source,
   d4d36:	b5f8      	push	{r3, r4, r5, r6, r7, lr}
   d4d38:	4604      	mov	r4, r0
		   _Manager_operation __op)
	{
	  switch (__op)
   d4d3a:	d006      	beq.n	d4d4a <_ZNSt14_Function_base13_Base_managerISt5_BindIFSt8functionIFvRKN8particle5ErrorEEES4_EEE10_M_managerERSt9_Any_dataRKSC_St18_Manager_operation+0x16>
   d4d3c:	2a03      	cmp	r2, #3
   d4d3e:	d017      	beq.n	d4d70 <_ZNSt14_Function_base13_Base_managerISt5_BindIFSt8functionIFvRKN8particle5ErrorEEES4_EEE10_M_managerERSt9_Any_dataRKSC_St18_Manager_operation+0x3c>
   d4d40:	2a01      	cmp	r2, #1
   d4d42:	d122      	bne.n	d4d8a <_ZNSt14_Function_base13_Base_managerISt5_BindIFSt8functionIFvRKN8particle5ErrorEEES4_EEE10_M_managerERSt9_Any_dataRKSC_St18_Manager_operation+0x56>
	static _Functor*
	_M_get_pointer(const _Any_data& __source)
	{
	  const _Functor* __ptr =
	    __stored_locally? std::__addressof(__source._M_access<_Functor>())
	    /* have stored a pointer */ : __source._M_access<_Functor*>();
   d4d44:	680b      	ldr	r3, [r1, #0]
	    case __get_type_info:
	      __dest._M_access<const type_info*>() = &typeid(_Functor);
	      break;
#endif
	    case __get_functor_ptr:
	      __dest._M_access<_Functor*>() = _M_get_pointer(__source);
   d4d46:	6003      	str	r3, [r0, #0]
	      break;
   d4d48:	e01f      	b.n	d4d8a <_ZNSt14_Function_base13_Base_managerISt5_BindIFSt8functionIFvRKN8particle5ErrorEEES4_EEE10_M_managerERSt9_Any_dataRKSC_St18_Manager_operation+0x56>
	// Clone a function object that is not location-invariant or
	// that cannot fit into an _Any_data structure.
	static void
	_M_clone(_Any_data& __dest, const _Any_data& __source, false_type)
	{
	  __dest._M_access<_Functor*>() =
   d4d4a:	2018      	movs	r0, #24
   d4d4c:	680e      	ldr	r6, [r1, #0]
   d4d4e:	f7ff f9a4 	bl	d409a <_Znwj>
   d4d52:	4605      	mov	r5, r0
   d4d54:	b150      	cbz	r0, d4d6c <_ZNSt14_Function_base13_Base_managerISt5_BindIFSt8functionIFvRKN8particle5ErrorEEES4_EEE10_M_managerERSt9_Any_dataRKSC_St18_Manager_operation+0x38>
      template<typename... _Args>
	explicit _Bind(_Functor&& __f, _Args&&... __args)
	: _M_f(std::move(__f)), _M_bound_args(std::forward<_Args>(__args)...)
	{ }

      _Bind(const _Bind&) = default;
   d4d56:	4631      	mov	r1, r6
   d4d58:	f7ff fec8 	bl	d4aec <_ZNSt8functionIFvRKN8particle5ErrorEEEC1ERKS5_>
inline particle::Error::Error(const char* msg) :
        Error(UNKNOWN, msg) {
}

inline particle::Error::Error(const Error& error) :
        Error(error.type_, error.msg_) {
   d4d5c:	6930      	ldr	r0, [r6, #16]
   d4d5e:	f9b6 7014 	ldrsh.w	r7, [r6, #20]
        type_(type) {
}

inline particle::Error::Error(Type type, const char* msg) :
        msg_(msg ? (const char*)strdup(msg) : nullptr),
        type_(type) {
   d4d62:	b108      	cbz	r0, d4d68 <_ZNSt14_Function_base13_Base_managerISt5_BindIFSt8functionIFvRKN8particle5ErrorEEES4_EEE10_M_managerERSt9_Any_dataRKSC_St18_Manager_operation+0x34>
   d4d64:	f002 fec0 	bl	d7ae8 <strdup>
   d4d68:	6128      	str	r0, [r5, #16]
   d4d6a:	82af      	strh	r7, [r5, #20]
	// Clone a function object that is not location-invariant or
	// that cannot fit into an _Any_data structure.
	static void
	_M_clone(_Any_data& __dest, const _Any_data& __source, false_type)
	{
	  __dest._M_access<_Functor*>() =
   d4d6c:	6025      	str	r5, [r4, #0]
   d4d6e:	e00c      	b.n	d4d8a <_ZNSt14_Function_base13_Base_managerISt5_BindIFSt8functionIFvRKN8particle5ErrorEEES4_EEE10_M_managerERSt9_Any_dataRKSC_St18_Manager_operation+0x56>

	// Destroying an object located on the heap.
	static void
	_M_destroy(_Any_data& __victim, false_type)
	{
	  delete __victim._M_access<_Functor*>();
   d4d70:	6804      	ldr	r4, [r0, #0]
   d4d72:	b154      	cbz	r4, d4d8a <_ZNSt14_Function_base13_Base_managerISt5_BindIFSt8functionIFvRKN8particle5ErrorEEES4_EEE10_M_managerERSt9_Any_dataRKSC_St18_Manager_operation+0x56>
   d4d74:	f104 0010 	add.w	r0, r4, #16
   d4d78:	f7ff fe1b 	bl	d49b2 <_ZN8particle5ErrorD1Ev>
   *  @ingroup functors
   *
   *  Polymorphic function wrapper.
   */
  template<typename _Res, typename... _ArgTypes>
    class function<_Res(_ArgTypes...)>
   d4d7c:	4620      	mov	r0, r4
   d4d7e:	f7ff fe00 	bl	d4982 <_ZNSt14_Function_baseD1Ev>

	// Destroying an object located on the heap.
	static void
	_M_destroy(_Any_data& __victim, false_type)
	{
	  delete __victim._M_access<_Functor*>();
   d4d82:	2118      	movs	r1, #24
   d4d84:	4620      	mov	r0, r4
   d4d86:	f002 f8a0 	bl	d6eca <_ZdlPvj>
	    case __destroy_functor:
	      _M_destroy(__dest, _Local_storage());
	      break;
	    }
	  return false;
	}
   d4d8a:	2000      	movs	r0, #0
   d4d8c:	bdf8      	pop	{r3, r4, r5, r6, r7, pc}

000d4d8e <_ZNSt8functionIFvRKbEEC1ERKS3_>:
      _Invoker_type _M_invoker;
  };

  // Out-of-line member definitions.
  template<typename _Res, typename... _ArgTypes>
    function<_Res(_ArgTypes...)>::
   d4d8e:	b538      	push	{r3, r4, r5, lr}
	{
	  _Base::_M_init_functor(__functor, std::__addressof(__f.get()));
	}
      };

    _Function_base() : _M_manager(nullptr) { }
   d4d90:	2300      	movs	r3, #0
   d4d92:	6083      	str	r3, [r0, #8]
   d4d94:	688b      	ldr	r3, [r1, #8]
      _Invoker_type _M_invoker;
  };

  // Out-of-line member definitions.
  template<typename _Res, typename... _ArgTypes>
    function<_Res(_ArgTypes...)>::
   d4d96:	4604      	mov	r4, r0
   d4d98:	460d      	mov	r5, r1
    function(const function& __x)
    : _Function_base()
    {
      if (static_cast<bool>(__x))
   d4d9a:	b12b      	cbz	r3, d4da8 <_ZNSt8functionIFvRKbEEC1ERKS3_+0x1a>
	{
	  __x._M_manager(_M_functor, __x._M_functor, __clone_functor);
   d4d9c:	2202      	movs	r2, #2
   d4d9e:	4798      	blx	r3
	  _M_invoker = __x._M_invoker;
   d4da0:	68eb      	ldr	r3, [r5, #12]
   d4da2:	60e3      	str	r3, [r4, #12]
	  _M_manager = __x._M_manager;
   d4da4:	68ab      	ldr	r3, [r5, #8]
   d4da6:	60a3      	str	r3, [r4, #8]
	}
    }
   d4da8:	4620      	mov	r0, r4
   d4daa:	bd38      	pop	{r3, r4, r5, pc}

000d4dac <_ZNSt14_Function_base13_Base_managerISt5_BindIFSt8functionIFvRKbEEbEEE10_M_managerERSt9_Any_dataRKSA_St18_Manager_operation>:
      public:
	static bool
	_M_manager(_Any_data& __dest, const _Any_data& __source,
		   _Manager_operation __op)
	{
	  switch (__op)
   d4dac:	2a02      	cmp	r2, #2
	  delete __victim._M_access<_Functor*>();
	}

      public:
	static bool
	_M_manager(_Any_data& __dest, const _Any_data& __source,
   d4dae:	b570      	push	{r4, r5, r6, lr}
   d4db0:	4604      	mov	r4, r0
		   _Manager_operation __op)
	{
	  switch (__op)
   d4db2:	d006      	beq.n	d4dc2 <_ZNSt14_Function_base13_Base_managerISt5_BindIFSt8functionIFvRKbEEbEEE10_M_managerERSt9_Any_dataRKSA_St18_Manager_operation+0x16>
   d4db4:	2a03      	cmp	r2, #3
   d4db6:	d011      	beq.n	d4ddc <_ZNSt14_Function_base13_Base_managerISt5_BindIFSt8functionIFvRKbEEbEEE10_M_managerERSt9_Any_dataRKSA_St18_Manager_operation+0x30>
   d4db8:	2a01      	cmp	r2, #1
   d4dba:	d118      	bne.n	d4dee <_ZNSt14_Function_base13_Base_managerISt5_BindIFSt8functionIFvRKbEEbEEE10_M_managerERSt9_Any_dataRKSA_St18_Manager_operation+0x42>
	static _Functor*
	_M_get_pointer(const _Any_data& __source)
	{
	  const _Functor* __ptr =
	    __stored_locally? std::__addressof(__source._M_access<_Functor>())
	    /* have stored a pointer */ : __source._M_access<_Functor*>();
   d4dbc:	680b      	ldr	r3, [r1, #0]
	    case __get_type_info:
	      __dest._M_access<const type_info*>() = &typeid(_Functor);
	      break;
#endif
	    case __get_functor_ptr:
	      __dest._M_access<_Functor*>() = _M_get_pointer(__source);
   d4dbe:	6003      	str	r3, [r0, #0]
	      break;
   d4dc0:	e015      	b.n	d4dee <_ZNSt14_Function_base13_Base_managerISt5_BindIFSt8functionIFvRKbEEbEEE10_M_managerERSt9_Any_dataRKSA_St18_Manager_operation+0x42>
	// Clone a function object that is not location-invariant or
	// that cannot fit into an _Any_data structure.
	static void
	_M_clone(_Any_data& __dest, const _Any_data& __source, false_type)
	{
	  __dest._M_access<_Functor*>() =
   d4dc2:	2014      	movs	r0, #20
   d4dc4:	680e      	ldr	r6, [r1, #0]
   d4dc6:	f7ff f968 	bl	d409a <_Znwj>
   d4dca:	4605      	mov	r5, r0
   d4dcc:	b120      	cbz	r0, d4dd8 <_ZNSt14_Function_base13_Base_managerISt5_BindIFSt8functionIFvRKbEEbEEE10_M_managerERSt9_Any_dataRKSA_St18_Manager_operation+0x2c>
      template<typename... _Args>
	explicit _Bind(_Functor&& __f, _Args&&... __args)
	: _M_f(std::move(__f)), _M_bound_args(std::forward<_Args>(__args)...)
	{ }

      _Bind(const _Bind&) = default;
   d4dce:	4631      	mov	r1, r6
   d4dd0:	f7ff ffdd 	bl	d4d8e <_ZNSt8functionIFvRKbEEC1ERKS3_>
   d4dd4:	7c33      	ldrb	r3, [r6, #16]
   d4dd6:	742b      	strb	r3, [r5, #16]
	// Clone a function object that is not location-invariant or
	// that cannot fit into an _Any_data structure.
	static void
	_M_clone(_Any_data& __dest, const _Any_data& __source, false_type)
	{
	  __dest._M_access<_Functor*>() =
   d4dd8:	6025      	str	r5, [r4, #0]
   d4dda:	e008      	b.n	d4dee <_ZNSt14_Function_base13_Base_managerISt5_BindIFSt8functionIFvRKbEEbEEE10_M_managerERSt9_Any_dataRKSA_St18_Manager_operation+0x42>

	// Destroying an object located on the heap.
	static void
	_M_destroy(_Any_data& __victim, false_type)
	{
	  delete __victim._M_access<_Functor*>();
   d4ddc:	6804      	ldr	r4, [r0, #0]
   d4dde:	b134      	cbz	r4, d4dee <_ZNSt14_Function_base13_Base_managerISt5_BindIFSt8functionIFvRKbEEbEEE10_M_managerERSt9_Any_dataRKSA_St18_Manager_operation+0x42>
   *  @ingroup functors
   *
   *  Polymorphic function wrapper.
   */
  template<typename _Res, typename... _ArgTypes>
    class function<_Res(_ArgTypes...)>
   d4de0:	4620      	mov	r0, r4
   d4de2:	f7ff fdce 	bl	d4982 <_ZNSt14_Function_baseD1Ev>

	// Destroying an object located on the heap.
	static void
	_M_destroy(_Any_data& __victim, false_type)
	{
	  delete __victim._M_access<_Functor*>();
   d4de6:	2114      	movs	r1, #20
   d4de8:	4620      	mov	r0, r4
   d4dea:	f002 f86e 	bl	d6eca <_ZdlPvj>
	    case __destroy_functor:
	      _M_destroy(__dest, _Local_storage());
	      break;
	    }
	  return false;
	}
   d4dee:	2000      	movs	r0, #0
   d4df0:	bd70      	pop	{r4, r5, r6, pc}
	...

000d4df4 <_ZN8particle6detail14FutureImplBaseIbNS0_13FutureContextEE14invokeCallbackIFvRKbEIRbEEEvRSt6atomicIPSt8functionIT_EEDpOT0_>:
        delete callbackPtr; // Delete old callback
    }

    // Takes a callback from its atomic wrapper and invokes it
    template<typename FunctionT, typename... ArgsT>
    static void invokeCallback(std::atomic<std::function<FunctionT>*>& wrapper, ArgsT&&... args) {
   d4df4:	b5f0      	push	{r4, r5, r6, r7, lr}

      _GLIBCXX_ALWAYS_INLINE __pointer_type
      exchange(__pointer_type __p,
	       memory_order __m = memory_order_seq_cst) noexcept
      {
	return __atomic_exchange_n(&_M_p, __p, __m);
   d4df6:	2300      	movs	r3, #0
   d4df8:	b087      	sub	sp, #28
   d4dfa:	460c      	mov	r4, r1
   d4dfc:	f3bf 8f5f 	dmb	sy
   d4e00:	e850 6f00 	ldrex	r6, [r0]
   d4e04:	e840 3200 	strex	r2, r3, [r0]
   d4e08:	2a00      	cmp	r2, #0
   d4e0a:	d1f9      	bne.n	d4e00 <_ZN8particle6detail14FutureImplBaseIbNS0_13FutureContextEE14invokeCallbackIFvRKbEIRbEEEvRSt6atomicIPSt8functionIT_EEDpOT0_+0xc>
   d4e0c:	f3bf 8f5f 	dmb	sy
        std::function<FunctionT>* callbackPtr = wrapper.exchange(nullptr, std::memory_order_acq_rel);
        if (callbackPtr) {
   d4e10:	2e00      	cmp	r6, #0
   d4e12:	d03f      	beq.n	d4e94 <_ZN8particle6detail14FutureImplBaseIbNS0_13FutureContextEE14invokeCallbackIFvRKbEIRbEEEvRSt6atomicIPSt8functionIT_EEDpOT0_+0xa0>
        return (application_thread_invoke(callback, data, nullptr) == 0);
    }

    // Returns true if current thread is the application thread
    static bool isApplicationThreadCurrent() {
        return (application_thread_current(nullptr) != 0);
   d4e14:	4618      	mov	r0, r3
   d4e16:	f7ff fc79 	bl	d470c <application_thread_current>
    }

    // Invokes std::function in the application context
    template<typename FunctionT, typename... ArgsT>
    static void invokeCallback(const std::function<FunctionT>& callback, ArgsT&&... args) {
        if (ContextT::isApplicationThreadCurrent()) {
   d4e1a:	4607      	mov	r7, r0
   d4e1c:	b120      	cbz	r0, d4e28 <_ZN8particle6detail14FutureImplBaseIbNS0_13FutureContextEE14invokeCallbackIFvRKbEIRbEEEvRSt6atomicIPSt8functionIT_EEDpOT0_+0x34>
            callback(std::forward<ArgsT>(args)...); // Synchronous call
   d4e1e:	4621      	mov	r1, r4
   d4e20:	4630      	mov	r0, r6
   d4e22:	f7ff fe53 	bl	d4acc <_ZNKSt8functionIFvRKbEEclES1_>
   d4e26:	e02e      	b.n	d4e86 <_ZN8particle6detail14FutureImplBaseIbNS0_13FutureContextEE14invokeCallbackIFvRKbEIRbEEEvRSt6atomicIPSt8functionIT_EEDpOT0_+0x92>
	}

     public:
      template<typename... _Args>
	explicit _Bind(const _Functor& __f, _Args&&... __args)
	: _M_f(__f), _M_bound_args(std::forward<_Args>(__args)...)
   d4e28:	4631      	mov	r1, r6
   d4e2a:	a801      	add	r0, sp, #4
   d4e2c:	f7ff ffaf 	bl	d4d8e <_ZNSt8functionIFvRKbEEC1ERKS3_>
      constexpr _Head_base(const _Head_base&) = default;
      constexpr _Head_base(_Head_base&&) = default;

      template<typename _UHead>
        constexpr _Head_base(_UHead&& __h)
	: _M_head_impl(std::forward<_UHead>(__h)) { }
   d4e30:	7823      	ldrb	r3, [r4, #0]
   d4e32:	f88d 3014 	strb.w	r3, [sp, #20]
        } else {
            // Bind all arguments and wrap resulting function into a pointer
            auto callbackPtr = new std::function<void()>(std::bind(callback, std::forward<ArgsT>(args)...));
   d4e36:	2010      	movs	r0, #16
   d4e38:	f7ff f92f 	bl	d409a <_Znwj>
   d4e3c:	4605      	mov	r5, r0
   d4e3e:	b1d0      	cbz	r0, d4e76 <_ZN8particle6detail14FutureImplBaseIbNS0_13FutureContextEE14invokeCallbackIFvRKbEIRbEEEvRSt6atomicIPSt8functionIT_EEDpOT0_+0x82>
	{
	  _Base::_M_init_functor(__functor, std::__addressof(__f.get()));
	}
      };

    _Function_base() : _M_manager(nullptr) { }
   d4e40:	6087      	str	r7, [r0, #8]
	_M_init_functor(_Any_data& __functor, _Functor&& __f, true_type)
	{ new (__functor._M_access()) _Functor(std::move(__f)); }

	static void
	_M_init_functor(_Any_data& __functor, _Functor&& __f, false_type)
	{ __functor._M_access<_Functor*>() = new _Functor(std::move(__f)); }
   d4e42:	2014      	movs	r0, #20
   d4e44:	f7ff f929 	bl	d409a <_Znwj>
   d4e48:	4604      	mov	r4, r0
   d4e4a:	b178      	cbz	r0, d4e6c <_ZN8particle6detail14FutureImplBaseIbNS0_13FutureContextEE14invokeCallbackIFvRKbEIRbEEEvRSt6atomicIPSt8functionIT_EEDpOT0_+0x78>
	{
	  _Base::_M_init_functor(__functor, std::__addressof(__f.get()));
	}
      };

    _Function_base() : _M_manager(nullptr) { }
   d4e4c:	6087      	str	r7, [r0, #8]
       *  Swap the targets of @c this function object and @a __f. This
       *  function will not throw an %exception.
       */
      void swap(function& __x)
      {
	std::swap(_M_functor, __x._M_functor);
   d4e4e:	4601      	mov	r1, r0
   d4e50:	a801      	add	r0, sp, #4
   d4e52:	f7ff fe07 	bl	d4a64 <_ZSt4swapISt9_Any_dataEvRT_S2_>
#endif
    {
      // concept requirements
      __glibcxx_function_requires(_SGIAssignableConcept<_Tp>)

      _Tp __tmp = _GLIBCXX_MOVE(__a);
   d4e56:	9b03      	ldr	r3, [sp, #12]
      __a = _GLIBCXX_MOVE(__b);
   d4e58:	68a2      	ldr	r2, [r4, #8]
      __b = _GLIBCXX_MOVE(__tmp);
   d4e5a:	60a3      	str	r3, [r4, #8]
#endif
    {
      // concept requirements
      __glibcxx_function_requires(_SGIAssignableConcept<_Tp>)

      _Tp __tmp = _GLIBCXX_MOVE(__a);
   d4e5c:	9b04      	ldr	r3, [sp, #16]
      __a = _GLIBCXX_MOVE(__b);
   d4e5e:	9203      	str	r2, [sp, #12]
   d4e60:	68e2      	ldr	r2, [r4, #12]
      __b = _GLIBCXX_MOVE(__tmp);
   d4e62:	60e3      	str	r3, [r4, #12]
   d4e64:	f89d 3014 	ldrb.w	r3, [sp, #20]
    {
      // concept requirements
      __glibcxx_function_requires(_SGIAssignableConcept<_Tp>)

      _Tp __tmp = _GLIBCXX_MOVE(__a);
      __a = _GLIBCXX_MOVE(__b);
   d4e68:	9204      	str	r2, [sp, #16]
   d4e6a:	7423      	strb	r3, [r4, #16]
	typedef _Function_handler<_Signature_type, _Functor> _My_handler;

	if (_My_handler::_M_not_empty_function(__f))
	  {
	    _My_handler::_M_init_functor(_M_functor, std::move(__f));
	    _M_invoker = &_My_handler::_M_invoke;
   d4e6c:	4b0a      	ldr	r3, [pc, #40]	; (d4e98 <_ZN8particle6detail14FutureImplBaseIbNS0_13FutureContextEE14invokeCallbackIFvRKbEIRbEEEvRSt6atomicIPSt8functionIT_EEDpOT0_+0xa4>)
   d4e6e:	60eb      	str	r3, [r5, #12]
	    _M_manager = &_My_handler::_M_manager;
   d4e70:	4b0a      	ldr	r3, [pc, #40]	; (d4e9c <_ZN8particle6detail14FutureImplBaseIbNS0_13FutureContextEE14invokeCallbackIFvRKbEIRbEEEvRSt6atomicIPSt8functionIT_EEDpOT0_+0xa8>)
	_M_init_functor(_Any_data& __functor, _Functor&& __f, true_type)
	{ new (__functor._M_access()) _Functor(std::move(__f)); }

	static void
	_M_init_functor(_Any_data& __functor, _Functor&& __f, false_type)
	{ __functor._M_access<_Functor*>() = new _Functor(std::move(__f)); }
   d4e72:	602c      	str	r4, [r5, #0]

	if (_My_handler::_M_not_empty_function(__f))
	  {
	    _My_handler::_M_init_functor(_M_functor, std::move(__f));
	    _M_invoker = &_My_handler::_M_invoke;
	    _M_manager = &_My_handler::_M_manager;
   d4e74:	60ab      	str	r3, [r5, #8]
   *  @ingroup functors
   *
   *  Polymorphic function wrapper.
   */
  template<typename _Res, typename... _ArgTypes>
    class function<_Res(_ArgTypes...)>
   d4e76:	a801      	add	r0, sp, #4
   d4e78:	f7ff fd83 	bl	d4982 <_ZNSt14_Function_baseD1Ev>
        spark_process();
    }

    // Asynchronously invokes a callback in the application context
    static bool invokeApplicationCallback(void (*callback)(void* data), void* data) {
        return (application_thread_invoke(callback, data, nullptr) == 0);
   d4e7c:	2200      	movs	r2, #0
   d4e7e:	4629      	mov	r1, r5
   d4e80:	4807      	ldr	r0, [pc, #28]	; (d4ea0 <_ZN8particle6detail14FutureImplBaseIbNS0_13FutureContextEE14invokeCallbackIFvRKbEIRbEEEvRSt6atomicIPSt8functionIT_EEDpOT0_+0xac>)
   d4e82:	f7ff fc4b 	bl	d471c <application_thread_invoke>
   d4e86:	4630      	mov	r0, r6
   d4e88:	f7ff fd7b 	bl	d4982 <_ZNSt14_Function_baseD1Ev>
    template<typename FunctionT, typename... ArgsT>
    static void invokeCallback(std::atomic<std::function<FunctionT>*>& wrapper, ArgsT&&... args) {
        std::function<FunctionT>* callbackPtr = wrapper.exchange(nullptr, std::memory_order_acq_rel);
        if (callbackPtr) {
            invokeCallback(*callbackPtr, std::forward<ArgsT>(args)...);
            delete callbackPtr;
   d4e8c:	2110      	movs	r1, #16
   d4e8e:	4630      	mov	r0, r6
   d4e90:	f002 f81b 	bl	d6eca <_ZdlPvj>
        }
    }
   d4e94:	b007      	add	sp, #28
   d4e96:	bdf0      	pop	{r4, r5, r6, r7, pc}
   d4e98:	000d4adf 	.word	0x000d4adf
   d4e9c:	000d4dad 	.word	0x000d4dad
   d4ea0:	000d4895 	.word	0x000d4895

000d4ea4 <_ZN12_GLOBAL__N_125publishCompletionCallbackEiPKvPvS2_>:

namespace {

using namespace particle;

void publishCompletionCallback(int error, const void* data, void* callbackData, void* reserved) {
   d4ea4:	b530      	push	{r4, r5, lr}
   d4ea6:	b085      	sub	sp, #20
   d4ea8:	4604      	mov	r4, r0
   d4eaa:	460d      	mov	r5, r1
    auto p = Promise<bool>::fromDataPtr(callbackData);
   d4eac:	4668      	mov	r0, sp
   d4eae:	4611      	mov	r1, r2
   d4eb0:	f7ff fdba 	bl	d4a28 <_ZN8particle11PromiseBaseIbNS_6detail13FutureContextEE11fromDataPtrEPv>
    if (error != Error::NONE) {
   d4eb4:	b17c      	cbz	r4, d4ed6 <_ZN12_GLOBAL__N_125publishCompletionCallbackEiPKvPvS2_+0x32>
        p.setError(Error((Error::Type)error, (const char*)data));
   d4eb6:	b224      	sxth	r4, r4
   d4eb8:	4628      	mov	r0, r5
   d4eba:	b10d      	cbz	r5, d4ec0 <_ZN12_GLOBAL__N_125publishCompletionCallbackEiPKvPvS2_+0x1c>
   d4ebc:	f002 fe14 	bl	d7ae8 <strdup>
   d4ec0:	9002      	str	r0, [sp, #8]
   d4ec2:	a902      	add	r1, sp, #8
   d4ec4:	4668      	mov	r0, sp
   d4ec6:	f8ad 400c 	strh.w	r4, [sp, #12]
   d4eca:	f7ff fe1f 	bl	d4b0c <_ZN8particle11PromiseBaseIbNS_6detail13FutureContextEE8setErrorENS_5ErrorE>
   d4ece:	a802      	add	r0, sp, #8
   d4ed0:	f7ff fd6f 	bl	d49b2 <_ZN8particle5ErrorD1Ev>
   d4ed4:	e01d      	b.n	d4f12 <_ZN12_GLOBAL__N_125publishCompletionCallbackEiPKvPvS2_+0x6e>
   d4ed6:	9800      	ldr	r0, [sp, #0]
            onSuccess_(nullptr),
            onError_(nullptr) {
    }

    bool changeState(State state) {
        State s = State::RUNNING; // Expected state
   d4ed8:	f88d 4008 	strb.w	r4, [sp, #8]

      bool
      compare_exchange_strong(_Tp& __e, _Tp __i, memory_order __s, 
			      memory_order __f) noexcept
      {
	return __atomic_compare_exchange(&_M_i, &__e, &__i, false, __s, __f);
   d4edc:	f04f 0201 	mov.w	r2, #1
   d4ee0:	e8d0 3f4f 	ldrexb	r3, [r0]
   d4ee4:	42a3      	cmp	r3, r4
   d4ee6:	d103      	bne.n	d4ef0 <_ZN12_GLOBAL__N_125publishCompletionCallbackEiPKvPvS2_+0x4c>
   d4ee8:	e8c0 2f41 	strexb	r1, r2, [r0]
   d4eec:	2900      	cmp	r1, #0
   d4eee:	d1f7      	bne.n	d4ee0 <_ZN12_GLOBAL__N_125publishCompletionCallbackEiPKvPvS2_+0x3c>
   d4ef0:	d002      	beq.n	d4ef8 <_ZN12_GLOBAL__N_125publishCompletionCallbackEiPKvPvS2_+0x54>
   d4ef2:	f88d 3008 	strb.w	r3, [sp, #8]
   d4ef6:	e00c      	b.n	d4f12 <_ZN12_GLOBAL__N_125publishCompletionCallbackEiPKvPvS2_+0x6e>
        }
    }

    void setResult(ResultT result) {
        if (this->changeState(State::SUCCEEDED)) {
            new(&result_) ResultT(std::move(result));
   d4ef8:	f110 010c 	adds.w	r1, r0, #12
   d4efc:	f04f 0301 	mov.w	r3, #1
   d4f00:	bf18      	it	ne
   d4f02:	7303      	strbne	r3, [r0, #12]
        memory_order __b = __m & __memory_order_mask;
	__glibcxx_assert(__b != memory_order_acquire);
	__glibcxx_assert(__b != memory_order_acq_rel);
	__glibcxx_assert(__b != memory_order_consume);

	__atomic_store_n(&_M_i, __i, __m);
   d4f04:	f3bf 8f5f 	dmb	sy
            this->releaseDone();
            this->invokeCallback(this->onSuccess_, result_);
   d4f08:	3004      	adds	r0, #4
   d4f0a:	f800 3c03 	strb.w	r3, [r0, #-3]
   d4f0e:	f7ff ff71 	bl	d4df4 <_ZN8particle6detail14FutureImplBaseIbNS0_13FutureContextEE14invokeCallbackIFvRKbEIRbEEEvRSt6atomicIPSt8functionIT_EEDpOT0_>
   d4f12:	a801      	add	r0, sp, #4
   d4f14:	f7ff fcf1 	bl	d48fa <_ZNSt14__shared_countILN9__gnu_cxx12_Lock_policyE0EED1Ev>
    } else {
        p.setResult(true);
    }
}
   d4f18:	b005      	add	sp, #20
   d4f1a:	bd30      	pop	{r4, r5, pc}

000d4f1c <_ZN5spark13EthernetClass9listeningEv>:
    uint16_t getListenTimeout(void) {
        return network_get_listen_timeout(*this, 0, NULL);
    }

    bool listening(void) {
        return network_listening(*this, 0, NULL);
   d4f1c:	2200      	movs	r2, #0
   d4f1e:	4611      	mov	r1, r2
   d4f20:	6840      	ldr	r0, [r0, #4]
   d4f22:	f7ff bc67 	b.w	d47f4 <network_listening>

000d4f26 <_ZN5spark13EthernetClass16getListenTimeoutEv>:
    void setListenTimeout(uint16_t timeout) {
        network_set_listen_timeout(*this, timeout, NULL);
    }

    uint16_t getListenTimeout(void) {
        return network_get_listen_timeout(*this, 0, NULL);
   d4f26:	2200      	movs	r2, #0
   d4f28:	4611      	mov	r1, r2
   d4f2a:	6840      	ldr	r0, [r0, #4]
   d4f2c:	f7ff bc72 	b.w	d4814 <network_get_listen_timeout>

000d4f30 <_ZN5spark13EthernetClass16setListenTimeoutEt>:
    void listen(bool begin=true) {
        network_listen(*this, begin ? 0 : 1, NULL);
    }

    void setListenTimeout(uint16_t timeout) {
        network_set_listen_timeout(*this, timeout, NULL);
   d4f30:	2200      	movs	r2, #0
   d4f32:	6840      	ldr	r0, [r0, #4]
   d4f34:	f7ff bc66 	b.w	d4804 <network_set_listen_timeout>

000d4f38 <_ZN5spark13EthernetClass6listenEb>:
    void disconnect() {
        network_disconnect(*this, NETWORK_DISCONNECT_REASON_USER, NULL);
    }

    void listen(bool begin=true) {
        network_listen(*this, begin ? 0 : 1, NULL);
   d4f38:	2200      	movs	r2, #0
   d4f3a:	f081 0101 	eor.w	r1, r1, #1
   d4f3e:	6840      	ldr	r0, [r0, #4]
   d4f40:	f7ff bc50 	b.w	d47e4 <network_listen>

000d4f44 <_ZN5spark13EthernetClass3offEv>:
    void on() {
        network_on(*this, 0, 0, NULL);
    }

    void off() {
        network_off(*this, 0, 0, NULL);
   d4f44:	2300      	movs	r3, #0
   d4f46:	461a      	mov	r2, r3
   d4f48:	4619      	mov	r1, r3
   d4f4a:	6840      	ldr	r0, [r0, #4]
   d4f4c:	f7ff bc42 	b.w	d47d4 <network_off>

000d4f50 <_ZN5spark13EthernetClass2onEv>:
    EthernetClass() :
            NetworkClass(NETWORK_INTERFACE_ETHERNET) {
    }

    void on() {
        network_on(*this, 0, 0, NULL);
   d4f50:	2300      	movs	r3, #0
   d4f52:	461a      	mov	r2, r3
   d4f54:	4619      	mov	r1, r3
   d4f56:	6840      	ldr	r0, [r0, #4]
   d4f58:	f7ff bc34 	b.w	d47c4 <network_on>

000d4f5c <_ZN5spark13EthernetClass5readyEv>:
    bool listening(void) {
        return network_listening(*this, 0, NULL);
    }

    bool ready() {
        return network_ready(*this, 0,  NULL);
   d4f5c:	2200      	movs	r2, #0
   d4f5e:	4611      	mov	r1, r2
   d4f60:	6840      	ldr	r0, [r0, #4]
   d4f62:	f7ff bc27 	b.w	d47b4 <network_ready>

000d4f66 <_ZN5spark13EthernetClass10connectingEv>:
    void connect(unsigned flags=0) {
        network_connect(*this, flags, 0, NULL);
    }

    bool connecting(void) {
        return network_connecting(*this, 0, NULL);
   d4f66:	2200      	movs	r2, #0
   d4f68:	4611      	mov	r1, r2
   d4f6a:	6840      	ldr	r0, [r0, #4]
   d4f6c:	f7ff bc12 	b.w	d4794 <network_connecting>

000d4f70 <_ZN5spark13EthernetClass10disconnectEv>:
    }

    void disconnect() {
        network_disconnect(*this, NETWORK_DISCONNECT_REASON_USER, NULL);
   d4f70:	2200      	movs	r2, #0
   d4f72:	2102      	movs	r1, #2
   d4f74:	6840      	ldr	r0, [r0, #4]
   d4f76:	f7ff bc15 	b.w	d47a4 <network_disconnect>

000d4f7a <_ZN5spark13EthernetClass7connectEj>:
    void off() {
        network_off(*this, 0, 0, NULL);
    }

    void connect(unsigned flags=0) {
        network_connect(*this, flags, 0, NULL);
   d4f7a:	2300      	movs	r3, #0
   d4f7c:	461a      	mov	r2, r3
   d4f7e:	6840      	ldr	r0, [r0, #4]
   d4f80:	f7ff bc00 	b.w	d4784 <network_connect>

000d4f84 <_GLOBAL__sub_I__ZN5spark8EthernetE>:
    static NetworkClass& from(network_interface_t nif);

    virtual IPAddress resolve(const char* name);

    explicit NetworkClass(network_interface_t iface)
            : iface_(iface) {
   d4f84:	4b02      	ldr	r3, [pc, #8]	; (d4f90 <_GLOBAL__sub_I__ZN5spark8EthernetE+0xc>)
   d4f86:	2203      	movs	r2, #3
   d4f88:	605a      	str	r2, [r3, #4]
    }

class EthernetClass : public NetworkClass {
public:
    EthernetClass() :
            NetworkClass(NETWORK_INTERFACE_ETHERNET) {
   d4f8a:	4a02      	ldr	r2, [pc, #8]	; (d4f94 <_GLOBAL__sub_I__ZN5spark8EthernetE+0x10>)
   d4f8c:	601a      	str	r2, [r3, #0]
   d4f8e:	4770      	bx	lr
   d4f90:	2003e39c 	.word	0x2003e39c
   d4f94:	000d7d2c 	.word	0x000d7d2c

000d4f98 <_ZN7TwoWireD1Ev>:
private:
  HAL_I2C_Interface _i2c;

public:
  TwoWire(HAL_I2C_Interface i2c, const HAL_I2C_Config& config);
  virtual ~TwoWire() {};
   d4f98:	4770      	bx	lr

000d4f9a <_ZN7TwoWire5writeEPKhj>:

// must be called in:
// slave tx event callback
// or after beginTransmission(address)
size_t TwoWire::write(const uint8_t *data, size_t quantity)
{
   d4f9a:	b5f8      	push	{r3, r4, r5, r6, r7, lr}
   d4f9c:	4606      	mov	r6, r0
   d4f9e:	4615      	mov	r5, r2
   d4fa0:	460c      	mov	r4, r1
   d4fa2:	188f      	adds	r7, r1, r2
  // in master/slave transmitter mode
  for(size_t i = 0; i < quantity; ++i)
   d4fa4:	42bc      	cmp	r4, r7
   d4fa6:	d006      	beq.n	d4fb6 <_ZN7TwoWire5writeEPKhj+0x1c>
  {
    write(data[i]);
   d4fa8:	6833      	ldr	r3, [r6, #0]
   d4faa:	f814 1b01 	ldrb.w	r1, [r4], #1
   d4fae:	689b      	ldr	r3, [r3, #8]
   d4fb0:	4630      	mov	r0, r6
   d4fb2:	4798      	blx	r3
// slave tx event callback
// or after beginTransmission(address)
size_t TwoWire::write(const uint8_t *data, size_t quantity)
{
  // in master/slave transmitter mode
  for(size_t i = 0; i < quantity; ++i)
   d4fb4:	e7f6      	b.n	d4fa4 <_ZN7TwoWire5writeEPKhj+0xa>
  {
    write(data[i]);
  }

  return quantity;
}
   d4fb6:	4628      	mov	r0, r5
   d4fb8:	bdf8      	pop	{r3, r4, r5, r6, r7, pc}

000d4fba <_ZN7TwoWire5writeEh>:
// must be called in:
// slave tx event callback
// or after beginTransmission(address)
size_t TwoWire::write(uint8_t data)
{
  return HAL_I2C_Write_Data(_i2c, data, NULL);
   d4fba:	2200      	movs	r2, #0
   d4fbc:	7c00      	ldrb	r0, [r0, #16]
   d4fbe:	f7ff ba8d 	b.w	d44dc <HAL_I2C_Write_Data>

000d4fc2 <_ZN7TwoWire9availableEv>:
// must be called in:
// slave rx event callback
// or after requestFrom(address, numBytes)
int TwoWire::available(void)
{
  return HAL_I2C_Available_Data(_i2c, NULL);
   d4fc2:	2100      	movs	r1, #0
   d4fc4:	7c00      	ldrb	r0, [r0, #16]
   d4fc6:	f7ff ba91 	b.w	d44ec <HAL_I2C_Available_Data>

000d4fca <_ZN7TwoWire4readEv>:
// must be called in:
// slave rx event callback
// or after requestFrom(address, numBytes)
int TwoWire::read(void)
{
  return HAL_I2C_Read_Data(_i2c, NULL);
   d4fca:	2100      	movs	r1, #0
   d4fcc:	7c00      	ldrb	r0, [r0, #16]
   d4fce:	f7ff ba95 	b.w	d44fc <HAL_I2C_Read_Data>

000d4fd2 <_ZN7TwoWire4peekEv>:
// must be called in:
// slave rx event callback
// or after requestFrom(address, numBytes)
int TwoWire::peek(void)
{
  return HAL_I2C_Peek_Data(_i2c, NULL);
   d4fd2:	2100      	movs	r1, #0
   d4fd4:	7c00      	ldrb	r0, [r0, #16]
   d4fd6:	f7ff ba99 	b.w	d450c <HAL_I2C_Peek_Data>

000d4fda <_ZN7TwoWire5flushEv>:
}

void TwoWire::flush(void)
{
  HAL_I2C_Flush_Data(_i2c, NULL);
   d4fda:	2100      	movs	r1, #0
   d4fdc:	7c00      	ldrb	r0, [r0, #16]
   d4fde:	f7ff ba9d 	b.w	d451c <HAL_I2C_Flush_Data>

000d4fe2 <_ZN7TwoWireD0Ev>:
   d4fe2:	b510      	push	{r4, lr}
   d4fe4:	2114      	movs	r1, #20
   d4fe6:	4604      	mov	r4, r0
   d4fe8:	f001 ff6f 	bl	d6eca <_ZdlPvj>
   d4fec:	4620      	mov	r0, r4
   d4fee:	bd10      	pop	{r4, pc}

000d4ff0 <_ZN7TwoWireC1E17HAL_I2C_InterfaceRK14HAL_I2C_Config>:
#include "i2c_hal.h"
#include "spark_wiring_thread.h"

// Constructors ////////////////////////////////////////////////////////////////

TwoWire::TwoWire(HAL_I2C_Interface i2c, const HAL_I2C_Config& conf)
   d4ff0:	b510      	push	{r4, lr}
   d4ff2:	4604      	mov	r4, r0
  protected:
    void setWriteError(int err = 1) { write_error = err; }
    size_t printf_impl(bool newline, const char* format, ...);

  public:
    Print() : write_error(0) {}
   d4ff4:	2300      	movs	r3, #0
   d4ff6:	6063      	str	r3, [r4, #4]
    virtual int available() = 0;
    virtual int read() = 0;
    virtual int peek() = 0;
    virtual void flush() = 0;

    Stream() {_timeout=1000;}
   d4ff8:	f44f 737a 	mov.w	r3, #1000	; 0x3e8
   d4ffc:	60a3      	str	r3, [r4, #8]
   d4ffe:	4b04      	ldr	r3, [pc, #16]	; (d5010 <_ZN7TwoWireC1E17HAL_I2C_InterfaceRK14HAL_I2C_Config+0x20>)
{
  _i2c = i2c;
   d5000:	7421      	strb	r1, [r4, #16]
#include "i2c_hal.h"
#include "spark_wiring_thread.h"

// Constructors ////////////////////////////////////////////////////////////////

TwoWire::TwoWire(HAL_I2C_Interface i2c, const HAL_I2C_Config& conf)
   d5002:	4608      	mov	r0, r1
   d5004:	6023      	str	r3, [r4, #0]
{
  _i2c = i2c;
  HAL_I2C_Init(_i2c, &conf);
   d5006:	4611      	mov	r1, r2
   d5008:	f7ff fa98 	bl	d453c <HAL_I2C_Init>
}
   d500c:	4620      	mov	r0, r4
   d500e:	bd10      	pop	{r4, pc}
   d5010:	000d7d60 	.word	0x000d7d60

000d5014 <_ZN7TwoWire9isEnabledEv>:
  HAL_I2C_Set_Callback_On_Request(_i2c, function, NULL);
}

bool TwoWire::isEnabled()
{
  return HAL_I2C_Is_Enabled(_i2c, NULL);
   d5014:	2100      	movs	r1, #0
   d5016:	7c00      	ldrb	r0, [r0, #16]
   d5018:	f7ff ba88 	b.w	d452c <HAL_I2C_Is_Enabled>

000d501c <_ZN9IPAddressD1Ev>:
    IPAddress(uint8_t first_octet, uint8_t second_octet, uint8_t third_octet, uint8_t fourth_octet);
    IPAddress(uint32_t address);
    IPAddress(const uint8_t* address);
    IPAddress(const HAL_IPAddress& address);

    virtual ~IPAddress() {}
   d501c:	4770      	bx	lr

000d501e <_ZN9IPAddressD0Ev>:
   d501e:	b510      	push	{r4, lr}
   d5020:	2118      	movs	r1, #24
   d5022:	4604      	mov	r4, r0
   d5024:	f001 ff51 	bl	d6eca <_ZdlPvj>
   d5028:	4620      	mov	r0, r4
   d502a:	bd10      	pop	{r4, pc}

000d502c <_ZNK9IPAddress7printToER5Print>:
#endif // Wiring_IPv6
	return address.ipv4==that.address.ipv4;
}

size_t IPAddress::printTo(Print& p) const
{
   d502c:	b5f0      	push	{r4, r5, r6, r7, lr}
#if Wiring_IPv6
#if HAL_USE_INET_HAL_POSIX
	if (address.v==6) {
   d502e:	7d03      	ldrb	r3, [r0, #20]
   d5030:	2b06      	cmp	r3, #6
#endif // Wiring_IPv6
	return address.ipv4==that.address.ipv4;
}

size_t IPAddress::printTo(Print& p) const
{
   d5032:	b08d      	sub	sp, #52	; 0x34
   d5034:	460e      	mov	r6, r1
   d5036:	f100 0704 	add.w	r7, r0, #4
   d503a:	f04f 0400 	mov.w	r4, #0
#if Wiring_IPv6
#if HAL_USE_INET_HAL_POSIX
	if (address.v==6) {
   d503e:	d002      	beq.n	d5046 <_ZNK9IPAddress7printToER5Print+0x1a>
   d5040:	f100 0508 	add.w	r5, r0, #8
   d5044:	e018      	b.n	d5078 <_ZNK9IPAddress7printToER5Print+0x4c>
		char buf[INET6_ADDRSTRLEN+1];
		buf[0] = 0;
   d5046:	ad0c      	add	r5, sp, #48	; 0x30
		inet_inet_ntop(AF_INET6, address.ipv6, buf, sizeof(buf));
   d5048:	4639      	mov	r1, r7
{
#if Wiring_IPv6
#if HAL_USE_INET_HAL_POSIX
	if (address.v==6) {
		char buf[INET6_ADDRSTRLEN+1];
		buf[0] = 0;
   d504a:	f805 4d30 	strb.w	r4, [r5, #-48]!
		inet_inet_ntop(AF_INET6, address.ipv6, buf, sizeof(buf));
   d504e:	232f      	movs	r3, #47	; 0x2f
   d5050:	462a      	mov	r2, r5
   d5052:	200a      	movs	r0, #10
   d5054:	f7ff fa7a 	bl	d454c <inet_inet_ntop>
    void clearWriteError() { setWriteError(0); }

    virtual size_t write(uint8_t) = 0;
    size_t write(const char *str) {
      if (str == NULL) return 0;
      return write((const uint8_t *)str, strlen(str));
   d5058:	4628      	mov	r0, r5
   d505a:	f002 fd60 	bl	d7b1e <strlen>
   d505e:	6833      	ldr	r3, [r6, #0]
   d5060:	4602      	mov	r2, r0
   d5062:	68db      	ldr	r3, [r3, #12]
   d5064:	4629      	mov	r1, r5
   d5066:	4630      	mov	r0, r6
   d5068:	4798      	blx	r3
   d506a:	e00f      	b.n	d508c <_ZNK9IPAddress7printToER5Print+0x60>
#endif // HAL_USE_INET_HAL_POSIX
#endif // Wiring_IPv6
    size_t n = 0;
    for (int i = 0; i < 4; i++)
    {
        if (n)
   d506c:	b124      	cbz	r4, d5078 <_ZNK9IPAddress7printToER5Print+0x4c>
            n += p.print('.');
   d506e:	212e      	movs	r1, #46	; 0x2e
   d5070:	4630      	mov	r0, r6
   d5072:	f001 fb4d 	bl	d6710 <_ZN5Print5printEc>
   d5076:	4404      	add	r4, r0
            t = print('-');
            val = -n;
        } else {
            val = n;
        }
        return printNumber(val, base) + t;
   d5078:	f815 1d01 	ldrb.w	r1, [r5, #-1]!
   d507c:	220a      	movs	r2, #10
   d507e:	4630      	mov	r0, r6
   d5080:	f001 fb55 	bl	d672e <_ZN5Print11printNumberEmh>
#else
#pragma message "HAL_USE_INET_HAL_POSIX is required for IPv6 support in IPAddress::printTo()"
#endif // HAL_USE_INET_HAL_POSIX
#endif // Wiring_IPv6
    size_t n = 0;
    for (int i = 0; i < 4; i++)
   d5084:	42bd      	cmp	r5, r7
    {
        if (n)
            n += p.print('.');
        n += p.print((*this)[i], DEC);
   d5086:	4404      	add	r4, r0
#else
#pragma message "HAL_USE_INET_HAL_POSIX is required for IPv6 support in IPAddress::printTo()"
#endif // HAL_USE_INET_HAL_POSIX
#endif // Wiring_IPv6
    size_t n = 0;
    for (int i = 0; i < 4; i++)
   d5088:	d1f0      	bne.n	d506c <_ZNK9IPAddress7printToER5Print+0x40>
    {
        if (n)
            n += p.print('.');
        n += p.print((*this)[i], DEC);
   d508a:	4620      	mov	r0, r4
    }
    return n;
}
   d508c:	b00d      	add	sp, #52	; 0x34
   d508e:	bdf0      	pop	{r4, r5, r6, r7, pc}

000d5090 <_ZN9IPAddressC1Ev>:

#if HAL_USE_INET_HAL_POSIX
#include <arpa/inet.h>
#endif // HAL_USE_INET_HAL_POSIX

IPAddress::IPAddress()
   d5090:	b510      	push	{r4, lr}
   d5092:	4b05      	ldr	r3, [pc, #20]	; (d50a8 <_ZN9IPAddressC1Ev+0x18>)
   d5094:	4604      	mov	r4, r0
        return address;
    }

    virtual size_t printTo(Print& p) const;

    void clear() { memset(&address, 0, sizeof (address)); }
   d5096:	2211      	movs	r2, #17
   d5098:	f840 3b04 	str.w	r3, [r0], #4
   d509c:	2100      	movs	r1, #0
   d509e:	f002 fcc9 	bl	d7a34 <memset>
{
    clear();
}
   d50a2:	4620      	mov	r0, r4
   d50a4:	bd10      	pop	{r4, pc}
   d50a6:	bf00      	nop
   d50a8:	000d7d88 	.word	0x000d7d88

000d50ac <_ZN9IPAddressC1ERK16_HAL_IPAddress_t>:

IPAddress::IPAddress(const HAL_IPAddress& address)
   d50ac:	4603      	mov	r3, r0
   d50ae:	4a07      	ldr	r2, [pc, #28]	; (d50cc <_ZN9IPAddressC1ERK16_HAL_IPAddress_t+0x20>)
   d50b0:	b510      	push	{r4, lr}
   d50b2:	f843 2b04 	str.w	r2, [r3], #4
{
    memcpy(&this->address, &address, sizeof(address));
   d50b6:	f101 0210 	add.w	r2, r1, #16
   d50ba:	f851 4b04 	ldr.w	r4, [r1], #4
   d50be:	f843 4b04 	str.w	r4, [r3], #4
   d50c2:	4291      	cmp	r1, r2
   d50c4:	d1f9      	bne.n	d50ba <_ZN9IPAddressC1ERK16_HAL_IPAddress_t+0xe>
   d50c6:	780a      	ldrb	r2, [r1, #0]
   d50c8:	701a      	strb	r2, [r3, #0]
}
   d50ca:	bd10      	pop	{r4, pc}
   d50cc:	000d7d88 	.word	0x000d7d88

000d50d0 <_ZN9IPAddress8set_ipv4Ehhhh>:
    return address.ipv4!=0;
#endif
}

void IPAddress::set_ipv4(uint8_t b0, uint8_t b1, uint8_t b2, uint8_t b3)
{
   d50d0:	b510      	push	{r4, lr}
    address.ipv4 = b0<<24 | b1 << 16 | b2 << 8 | b3;
   d50d2:	f89d 4008 	ldrb.w	r4, [sp, #8]
   d50d6:	ea44 2303 	orr.w	r3, r4, r3, lsl #8
   d50da:	ea43 4202 	orr.w	r2, r3, r2, lsl #16
   d50de:	ea42 6101 	orr.w	r1, r2, r1, lsl #24
        return &address;
    }

    inline void setVersion(uint8_t version) {
#if HAL_IPv6
        address.v = version;
   d50e2:	2304      	movs	r3, #4
   d50e4:	6041      	str	r1, [r0, #4]
   d50e6:	7503      	strb	r3, [r0, #20]
   d50e8:	bd10      	pop	{r4, pc}

000d50ea <_ZN9IPAddressaSEPKh>:
    setVersion(4);
}

IPAddress& IPAddress::operator=(const uint8_t* address)
{
   d50ea:	b537      	push	{r0, r1, r2, r4, r5, lr}
    set_ipv4(address[0], address[1], address[2], address[3]);
   d50ec:	780d      	ldrb	r5, [r1, #0]
   d50ee:	788b      	ldrb	r3, [r1, #2]
   d50f0:	784a      	ldrb	r2, [r1, #1]
   d50f2:	78c9      	ldrb	r1, [r1, #3]
   d50f4:	9100      	str	r1, [sp, #0]
   d50f6:	4629      	mov	r1, r5
   d50f8:	f7ff ffea 	bl	d50d0 <_ZN9IPAddress8set_ipv4Ehhhh>
    return *this;
}
   d50fc:	b003      	add	sp, #12
   d50fe:	bd30      	pop	{r4, r5, pc}

000d5100 <_ZN12_GLOBAL__N_19skipTokenEPK9jsmntok_t>:
#include <cstdarg>

namespace {

// Skips token and all its children tokens if any
const jsmntok_t* skipToken(const jsmntok_t *t) {
   d5100:	f100 0210 	add.w	r2, r0, #16
    size_t n = 1;
   d5104:	2301      	movs	r3, #1
    do {
        if (t->type == JSMN_OBJECT) {
   d5106:	f812 1c10 	ldrb.w	r1, [r2, #-16]
   d510a:	2901      	cmp	r1, #1
   d510c:	4610      	mov	r0, r2
   d510e:	d104      	bne.n	d511a <_ZN12_GLOBAL__N_19skipTokenEPK9jsmntok_t+0x1a>
            n += t->size * 2; // Number of name and value tokens
   d5110:	f852 1c04 	ldr.w	r1, [r2, #-4]
   d5114:	eb03 0341 	add.w	r3, r3, r1, lsl #1
   d5118:	e004      	b.n	d5124 <_ZN12_GLOBAL__N_19skipTokenEPK9jsmntok_t+0x24>
        } else if (t->type == JSMN_ARRAY) {
   d511a:	2902      	cmp	r1, #2
            n += t->size; // Number of value tokens
   d511c:	bf04      	itt	eq
   d511e:	f852 1c04 	ldreq.w	r1, [r2, #-4]
   d5122:	185b      	addeq	r3, r3, r1
namespace {

// Skips token and all its children tokens if any
const jsmntok_t* skipToken(const jsmntok_t *t) {
    size_t n = 1;
    do {
   d5124:	3b01      	subs	r3, #1
   d5126:	f102 0210 	add.w	r2, r2, #16
   d512a:	d1ec      	bne.n	d5106 <_ZN12_GLOBAL__N_19skipTokenEPK9jsmntok_t+0x6>
        }
        ++t;
        --n;
    } while (n);
    return t;
}
   d512c:	4770      	bx	lr

000d512e <_ZN5spark10JSONWriter6printfEPKcz>:
    write("null", 4);
    state_ = NEXT;
    return *this;
}

void spark::JSONWriter::printf(const char *fmt, ...) {
   d512e:	b40e      	push	{r1, r2, r3}
   d5130:	e92d 41f0 	stmdb	sp!, {r4, r5, r6, r7, r8, lr}
   d5134:	b087      	sub	sp, #28
   d5136:	af00      	add	r7, sp, #0
   d5138:	f107 0434 	add.w	r4, r7, #52	; 0x34
   d513c:	4605      	mov	r5, r0
   d513e:	f854 6b04 	ldr.w	r6, [r4], #4
    char buf[16];
    va_list args;
    va_start(args, fmt);
   d5142:	607c      	str	r4, [r7, #4]
    int n = vsnprintf(buf, sizeof(buf), fmt, args);
   d5144:	4623      	mov	r3, r4
   d5146:	4632      	mov	r2, r6
   d5148:	2110      	movs	r1, #16
   d514a:	f107 0008 	add.w	r0, r7, #8
   d514e:	f7ff fb89 	bl	d4864 <vsnprintf>
    va_end(args);
    if ((size_t)n >= sizeof(buf)) {
   d5152:	280f      	cmp	r0, #15
   d5154:	d916      	bls.n	d5184 <_ZN5spark10JSONWriter6printfEPKcz+0x56>
        char buf[n + 1]; // Use larger buffer
   d5156:	f100 0308 	add.w	r3, r0, #8
   d515a:	f023 0307 	bic.w	r3, r3, #7
        va_start(args, fmt);
        n = vsnprintf(buf, sizeof(buf), fmt, args);
        va_end(args);
        if (n > 0) {
            write(buf, n);
        }
   d515e:	46e8      	mov	r8, sp
    va_list args;
    va_start(args, fmt);
    int n = vsnprintf(buf, sizeof(buf), fmt, args);
    va_end(args);
    if ((size_t)n >= sizeof(buf)) {
        char buf[n + 1]; // Use larger buffer
   d5160:	ebad 0d03 	sub.w	sp, sp, r3
        va_start(args, fmt);
        n = vsnprintf(buf, sizeof(buf), fmt, args);
   d5164:	4632      	mov	r2, r6
   d5166:	1c41      	adds	r1, r0, #1
   d5168:	4623      	mov	r3, r4
   d516a:	4668      	mov	r0, sp
    va_start(args, fmt);
    int n = vsnprintf(buf, sizeof(buf), fmt, args);
    va_end(args);
    if ((size_t)n >= sizeof(buf)) {
        char buf[n + 1]; // Use larger buffer
        va_start(args, fmt);
   d516c:	607c      	str	r4, [r7, #4]
        n = vsnprintf(buf, sizeof(buf), fmt, args);
   d516e:	f7ff fb79 	bl	d4864 <vsnprintf>
        va_end(args);
        if (n > 0) {
   d5172:	1e02      	subs	r2, r0, #0
   d5174:	dd04      	ble.n	d5180 <_ZN5spark10JSONWriter6printfEPKcz+0x52>
            write(buf, n);
   d5176:	682b      	ldr	r3, [r5, #0]
   d5178:	4669      	mov	r1, sp
   d517a:	689b      	ldr	r3, [r3, #8]
   d517c:	4628      	mov	r0, r5
   d517e:	4798      	blx	r3
   d5180:	46c5      	mov	sp, r8
   d5182:	e007      	b.n	d5194 <_ZN5spark10JSONWriter6printfEPKcz+0x66>
        }
    } else if (n > 0) {
   d5184:	b130      	cbz	r0, d5194 <_ZN5spark10JSONWriter6printfEPKcz+0x66>
        write(buf, n);
   d5186:	682b      	ldr	r3, [r5, #0]
   d5188:	4602      	mov	r2, r0
   d518a:	689b      	ldr	r3, [r3, #8]
   d518c:	f107 0108 	add.w	r1, r7, #8
   d5190:	4628      	mov	r0, r5
   d5192:	4798      	blx	r3
    }
}
   d5194:	371c      	adds	r7, #28
   d5196:	46bd      	mov	sp, r7
   d5198:	e8bd 41f0 	ldmia.w	sp!, {r4, r5, r6, r7, r8, lr}
   d519c:	b003      	add	sp, #12
   d519e:	4770      	bx	lr

000d51a0 <_ZN5spark10JSONWriter5writeEc>:

inline spark::JSONWriter& spark::JSONWriter::value(const String &val) {
    return value(val.c_str(), val.length());
}

inline void spark::JSONWriter::write(char c) {
   d51a0:	b513      	push	{r0, r1, r4, lr}
   d51a2:	ab02      	add	r3, sp, #8
    write(&c, 1);
   d51a4:	6802      	ldr	r2, [r0, #0]

inline spark::JSONWriter& spark::JSONWriter::value(const String &val) {
    return value(val.c_str(), val.length());
}

inline void spark::JSONWriter::write(char c) {
   d51a6:	f803 1d01 	strb.w	r1, [r3, #-1]!
    write(&c, 1);
   d51aa:	6894      	ldr	r4, [r2, #8]
   d51ac:	4619      	mov	r1, r3
   d51ae:	2201      	movs	r2, #1
   d51b0:	47a0      	blx	r4
}
   d51b2:	b002      	add	sp, #8
   d51b4:	bd10      	pop	{r4, pc}

000d51b6 <_ZNK5spark9JSONValue4typeEv>:
        return 0.0;
    }
}

spark::JSONType spark::JSONValue::type() const {
    if (!t_) {
   d51b6:	6883      	ldr	r3, [r0, #8]
   d51b8:	b1fb      	cbz	r3, d51fa <_ZNK5spark9JSONValue4typeEv+0x44>
        return JSON_TYPE_INVALID;
    }
    switch (t_->type) {
   d51ba:	781a      	ldrb	r2, [r3, #0]
   d51bc:	2a03      	cmp	r2, #3
   d51be:	d81a      	bhi.n	d51f6 <_ZNK5spark9JSONValue4typeEv+0x40>
   d51c0:	e8df f002 	tbb	[pc, r2]
   d51c4:	1d021704 	.word	0x1d021704
        return JSON_TYPE_INVALID;
    }
    case JSMN_STRING:
        return JSON_TYPE_STRING;
    case JSMN_ARRAY:
        return JSON_TYPE_ARRAY;
   d51c8:	2005      	movs	r0, #5
   d51ca:	4770      	bx	lr
    if (!t_) {
        return JSON_TYPE_INVALID;
    }
    switch (t_->type) {
    case JSMN_PRIMITIVE: {
        const char c = d_->json[t_->start];
   d51cc:	6802      	ldr	r2, [r0, #0]
   d51ce:	685b      	ldr	r3, [r3, #4]
   d51d0:	6852      	ldr	r2, [r2, #4]
   d51d2:	5cd0      	ldrb	r0, [r2, r3]
        if (c == '-' || (c >= '0' && c <= '9')) {
   d51d4:	282d      	cmp	r0, #45	; 0x2d
   d51d6:	d014      	beq.n	d5202 <_ZNK5spark9JSONValue4typeEv+0x4c>
   d51d8:	f1a0 0330 	sub.w	r3, r0, #48	; 0x30
   d51dc:	2b09      	cmp	r3, #9
   d51de:	d910      	bls.n	d5202 <_ZNK5spark9JSONValue4typeEv+0x4c>
            return JSON_TYPE_NUMBER;
        } else if (c == 't' || c == 'f') { // Literal names are always in lower case
   d51e0:	2874      	cmp	r0, #116	; 0x74
   d51e2:	d010      	beq.n	d5206 <_ZNK5spark9JSONValue4typeEv+0x50>
   d51e4:	2866      	cmp	r0, #102	; 0x66
   d51e6:	d00e      	beq.n	d5206 <_ZNK5spark9JSONValue4typeEv+0x50>
    }
}

spark::JSONType spark::JSONValue::type() const {
    if (!t_) {
        return JSON_TYPE_INVALID;
   d51e8:	f1a0 036e 	sub.w	r3, r0, #110	; 0x6e
   d51ec:	4258      	negs	r0, r3
   d51ee:	4158      	adcs	r0, r3
   d51f0:	4770      	bx	lr
    case JSMN_STRING:
        return JSON_TYPE_STRING;
    case JSMN_ARRAY:
        return JSON_TYPE_ARRAY;
    case JSMN_OBJECT:
        return JSON_TYPE_OBJECT;
   d51f2:	2006      	movs	r0, #6
   d51f4:	4770      	bx	lr
    default:
        return JSON_TYPE_INVALID;
   d51f6:	2000      	movs	r0, #0
   d51f8:	4770      	bx	lr
    }
}

spark::JSONType spark::JSONValue::type() const {
    if (!t_) {
        return JSON_TYPE_INVALID;
   d51fa:	4618      	mov	r0, r3
   d51fc:	4770      	bx	lr
            return JSON_TYPE_NULL;
        }
        return JSON_TYPE_INVALID;
    }
    case JSMN_STRING:
        return JSON_TYPE_STRING;
   d51fe:	2004      	movs	r0, #4
   d5200:	4770      	bx	lr
    }
    switch (t_->type) {
    case JSMN_PRIMITIVE: {
        const char c = d_->json[t_->start];
        if (c == '-' || (c >= '0' && c <= '9')) {
            return JSON_TYPE_NUMBER;
   d5202:	2003      	movs	r0, #3
   d5204:	4770      	bx	lr
        } else if (c == 't' || c == 'f') { // Literal names are always in lower case
            return JSON_TYPE_BOOL;
   d5206:	2002      	movs	r0, #2
    case JSMN_OBJECT:
        return JSON_TYPE_OBJECT;
    default:
        return JSON_TYPE_INVALID;
    }
}
   d5208:	4770      	bx	lr

000d520a <_ZNK5spark9JSONValue5toIntEv>:
    default:
        return false;
    }
}

int spark::JSONValue::toInt() const {
   d520a:	b510      	push	{r4, lr}
   d520c:	4604      	mov	r4, r0
    switch (type()) {
   d520e:	f7ff ffd2 	bl	d51b6 <_ZNK5spark9JSONValue4typeEv>
   d5212:	2802      	cmp	r0, #2
   d5214:	d00d      	beq.n	d5232 <_ZNK5spark9JSONValue5toIntEv+0x28>
   d5216:	d316      	bcc.n	d5246 <_ZNK5spark9JSONValue5toIntEv+0x3c>
   d5218:	2804      	cmp	r0, #4
   d521a:	d814      	bhi.n	d5246 <_ZNK5spark9JSONValue5toIntEv+0x3c>
    }
    case JSON_TYPE_NUMBER:
    case JSON_TYPE_STRING: {
        // toInt() may produce incorrect results for floating point numbers, since we want to keep
        // compile-time dependency on strtod() optional
        const char* const s = d_->json + t_->start;
   d521c:	6822      	ldr	r2, [r4, #0]
   d521e:	68a3      	ldr	r3, [r4, #8]
        return strtol(s, nullptr, 10);
   d5220:	6850      	ldr	r0, [r2, #4]
   d5222:	685b      	ldr	r3, [r3, #4]
   d5224:	220a      	movs	r2, #10
   d5226:	2100      	movs	r1, #0
   d5228:	4418      	add	r0, r3
    }
    default:
        return 0;
    }
}
   d522a:	e8bd 4010 	ldmia.w	sp!, {r4, lr}
    case JSON_TYPE_NUMBER:
    case JSON_TYPE_STRING: {
        // toInt() may produce incorrect results for floating point numbers, since we want to keep
        // compile-time dependency on strtod() optional
        const char* const s = d_->json + t_->start;
        return strtol(s, nullptr, 10);
   d522e:	f002 bd2d 	b.w	d7c8c <strtol>
}

int spark::JSONValue::toInt() const {
    switch (type()) {
    case JSON_TYPE_BOOL: {
        const char* const s = d_->json + t_->start;
   d5232:	6822      	ldr	r2, [r4, #0]
   d5234:	68a3      	ldr	r3, [r4, #8]
        return *s == 't';
   d5236:	6852      	ldr	r2, [r2, #4]
   d5238:	685b      	ldr	r3, [r3, #4]
   d523a:	5cd0      	ldrb	r0, [r2, r3]
   d523c:	f1a0 0374 	sub.w	r3, r0, #116	; 0x74
   d5240:	4258      	negs	r0, r3
   d5242:	4158      	adcs	r0, r3
   d5244:	bd10      	pop	{r4, pc}
        // compile-time dependency on strtod() optional
        const char* const s = d_->json + t_->start;
        return strtol(s, nullptr, 10);
    }
    default:
        return 0;
   d5246:	2000      	movs	r0, #0
    }
}
   d5248:	bd10      	pop	{r4, pc}

000d524a <_ZN5spark18JSONObjectIterator4nextEv>:
        n_ = t->size; // Number of properties
        d_ = d;
    }
}

bool spark::JSONObjectIterator::next() {
   d524a:	b510      	push	{r4, lr}
    if (!n_) {
   d524c:	6943      	ldr	r3, [r0, #20]
        n_ = t->size; // Number of properties
        d_ = d;
    }
}

bool spark::JSONObjectIterator::next() {
   d524e:	4604      	mov	r4, r0
    if (!n_) {
   d5250:	b15b      	cbz	r3, d526a <_ZN5spark18JSONObjectIterator4nextEv+0x20>
        return false;
    }
    k_ = t_; // Name
   d5252:	6880      	ldr	r0, [r0, #8]
   d5254:	60e0      	str	r0, [r4, #12]
    ++t_;
    v_ = t_; // Value
    --n_;
   d5256:	3b01      	subs	r3, #1
bool spark::JSONObjectIterator::next() {
    if (!n_) {
        return false;
    }
    k_ = t_; // Name
    ++t_;
   d5258:	3010      	adds	r0, #16
   d525a:	60a0      	str	r0, [r4, #8]
    v_ = t_; // Value
   d525c:	6120      	str	r0, [r4, #16]
    --n_;
   d525e:	6163      	str	r3, [r4, #20]
    if (n_) {
   d5260:	b12b      	cbz	r3, d526e <_ZN5spark18JSONObjectIterator4nextEv+0x24>
        t_ = skipToken(t_);
   d5262:	f7ff ff4d 	bl	d5100 <_ZN12_GLOBAL__N_19skipTokenEPK9jsmntok_t>
   d5266:	60a0      	str	r0, [r4, #8]
   d5268:	e001      	b.n	d526e <_ZN5spark18JSONObjectIterator4nextEv+0x24>
    }
}

bool spark::JSONObjectIterator::next() {
    if (!n_) {
        return false;
   d526a:	4618      	mov	r0, r3
   d526c:	bd10      	pop	{r4, pc}
    v_ = t_; // Value
    --n_;
    if (n_) {
        t_ = skipToken(t_);
    }
    return true;
   d526e:	2001      	movs	r0, #1
}
   d5270:	bd10      	pop	{r4, pc}

000d5272 <_ZN5spark10JSONWriter9endObjectEv>:
    write('{');
    state_ = BEGIN;
    return *this;
}

spark::JSONWriter& spark::JSONWriter::endObject() {
   d5272:	b510      	push	{r4, lr}
    write('}');
   d5274:	217d      	movs	r1, #125	; 0x7d
    write('{');
    state_ = BEGIN;
    return *this;
}

spark::JSONWriter& spark::JSONWriter::endObject() {
   d5276:	4604      	mov	r4, r0
    write('}');
   d5278:	f7ff ff92 	bl	d51a0 <_ZN5spark10JSONWriter5writeEc>
    state_ = NEXT;
   d527c:	2301      	movs	r3, #1
   d527e:	7123      	strb	r3, [r4, #4]
    return *this;
}
   d5280:	4620      	mov	r0, r4
   d5282:	bd10      	pop	{r4, pc}

000d5284 <_ZN5spark10JSONWriter14writeSeparatorEv>:
    } else if (n > 0) {
        write(buf, n);
    }
}

void spark::JSONWriter::writeSeparator() {
   d5284:	b508      	push	{r3, lr}
    switch (state_) {
   d5286:	7903      	ldrb	r3, [r0, #4]
   d5288:	2b01      	cmp	r3, #1
   d528a:	d002      	beq.n	d5292 <_ZN5spark10JSONWriter14writeSeparatorEv+0xe>
   d528c:	2b02      	cmp	r3, #2
   d528e:	d002      	beq.n	d5296 <_ZN5spark10JSONWriter14writeSeparatorEv+0x12>
   d5290:	bd08      	pop	{r3, pc}
    case NEXT:
        write(',');
   d5292:	212c      	movs	r1, #44	; 0x2c
   d5294:	e000      	b.n	d5298 <_ZN5spark10JSONWriter14writeSeparatorEv+0x14>
        break;
    case VALUE:
        write(':');
   d5296:	213a      	movs	r1, #58	; 0x3a
   d5298:	f7ff ff82 	bl	d51a0 <_ZN5spark10JSONWriter5writeEc>
   d529c:	bd08      	pop	{r3, pc}

000d529e <_ZN5spark10JSONWriter11beginObjectEv>:
    write(']');
    state_ = NEXT;
    return *this;
}

spark::JSONWriter& spark::JSONWriter::beginObject() {
   d529e:	b510      	push	{r4, lr}
   d52a0:	4604      	mov	r4, r0
    writeSeparator();
   d52a2:	f7ff ffef 	bl	d5284 <_ZN5spark10JSONWriter14writeSeparatorEv>
    write('{');
   d52a6:	4620      	mov	r0, r4
   d52a8:	217b      	movs	r1, #123	; 0x7b
   d52aa:	f7ff ff79 	bl	d51a0 <_ZN5spark10JSONWriter5writeEc>
    state_ = BEGIN;
   d52ae:	2300      	movs	r3, #0
   d52b0:	7123      	strb	r3, [r4, #4]
    return *this;
}
   d52b2:	4620      	mov	r0, r4
   d52b4:	bd10      	pop	{r4, pc}
	...

000d52b8 <_ZN5spark10JSONWriter5valueEi>:
    }
    state_ = NEXT;
    return *this;
}

spark::JSONWriter& spark::JSONWriter::value(int val) {
   d52b8:	b538      	push	{r3, r4, r5, lr}
   d52ba:	4604      	mov	r4, r0
   d52bc:	460d      	mov	r5, r1
    writeSeparator();
   d52be:	f7ff ffe1 	bl	d5284 <_ZN5spark10JSONWriter14writeSeparatorEv>
    printf("%d", val);
   d52c2:	6823      	ldr	r3, [r4, #0]
   d52c4:	4904      	ldr	r1, [pc, #16]	; (d52d8 <_ZN5spark10JSONWriter5valueEi+0x20>)
   d52c6:	68db      	ldr	r3, [r3, #12]
   d52c8:	4620      	mov	r0, r4
   d52ca:	462a      	mov	r2, r5
   d52cc:	4798      	blx	r3
    state_ = NEXT;
   d52ce:	2301      	movs	r3, #1
   d52d0:	7123      	strb	r3, [r4, #4]
    return *this;
}
   d52d2:	4620      	mov	r0, r4
   d52d4:	bd38      	pop	{r3, r4, r5, pc}
   d52d6:	bf00      	nop
   d52d8:	000d7cfc 	.word	0x000d7cfc

000d52dc <_ZN5spark10JSONWriter5valueEj>:

spark::JSONWriter& spark::JSONWriter::value(unsigned val) {
   d52dc:	b538      	push	{r3, r4, r5, lr}
   d52de:	4604      	mov	r4, r0
   d52e0:	460d      	mov	r5, r1
    writeSeparator();
   d52e2:	f7ff ffcf 	bl	d5284 <_ZN5spark10JSONWriter14writeSeparatorEv>
    printf("%u", val);
   d52e6:	6823      	ldr	r3, [r4, #0]
   d52e8:	4904      	ldr	r1, [pc, #16]	; (d52fc <_ZN5spark10JSONWriter5valueEj+0x20>)
   d52ea:	68db      	ldr	r3, [r3, #12]
   d52ec:	4620      	mov	r0, r4
   d52ee:	462a      	mov	r2, r5
   d52f0:	4798      	blx	r3
    state_ = NEXT;
   d52f2:	2301      	movs	r3, #1
   d52f4:	7123      	strb	r3, [r4, #4]
    return *this;
}
   d52f6:	4620      	mov	r0, r4
   d52f8:	bd38      	pop	{r3, r4, r5, pc}
   d52fa:	bf00      	nop
   d52fc:	000d7da3 	.word	0x000d7da3

000d5300 <_ZN5spark10JSONWriter12writeEscapedEPKcj>:
    default:
        break;
    }
}

void spark::JSONWriter::writeEscaped(const char *str, size_t size) {
   d5300:	b5f8      	push	{r3, r4, r5, r6, r7, lr}
   d5302:	460d      	mov	r5, r1
   d5304:	4617      	mov	r7, r2
    write('"');
   d5306:	2122      	movs	r1, #34	; 0x22
    default:
        break;
    }
}

void spark::JSONWriter::writeEscaped(const char *str, size_t size) {
   d5308:	4604      	mov	r4, r0
   d530a:	442f      	add	r7, r5
    write('"');
   d530c:	f7ff ff48 	bl	d51a0 <_ZN5spark10JSONWriter5writeEc>
   d5310:	462a      	mov	r2, r5
    const char* const end = str + size;
   d5312:	4629      	mov	r1, r5
    const char *s = str;
    while (s != end) {
   d5314:	42ba      	cmp	r2, r7
   d5316:	d038      	beq.n	d538a <_ZN5spark10JSONWriter12writeEscapedEPKcj+0x8a>
        const char c = *s;
   d5318:	4616      	mov	r6, r2
   d531a:	f816 5b01 	ldrb.w	r5, [r6], #1
        if (c == '"' || c == '\\' || (c >= 0 && c <= 0x1f)) {
   d531e:	2d22      	cmp	r5, #34	; 0x22
   d5320:	d003      	beq.n	d532a <_ZN5spark10JSONWriter12writeEscapedEPKcj+0x2a>
   d5322:	2d5c      	cmp	r5, #92	; 0x5c
   d5324:	d001      	beq.n	d532a <_ZN5spark10JSONWriter12writeEscapedEPKcj+0x2a>
   d5326:	2d1f      	cmp	r5, #31
   d5328:	d82d      	bhi.n	d5386 <_ZN5spark10JSONWriter12writeEscapedEPKcj+0x86>
            write(str, s - str); // Write preceeding characters
   d532a:	6823      	ldr	r3, [r4, #0]
   d532c:	1a52      	subs	r2, r2, r1
   d532e:	689b      	ldr	r3, [r3, #8]
   d5330:	4620      	mov	r0, r4
   d5332:	4798      	blx	r3
            write('\\');
   d5334:	215c      	movs	r1, #92	; 0x5c
   d5336:	4620      	mov	r0, r4
   d5338:	f7ff ff32 	bl	d51a0 <_ZN5spark10JSONWriter5writeEc>
            switch (c) {
   d533c:	2d0c      	cmp	r5, #12
   d533e:	d019      	beq.n	d5374 <_ZN5spark10JSONWriter12writeEscapedEPKcj+0x74>
   d5340:	d807      	bhi.n	d5352 <_ZN5spark10JSONWriter12writeEscapedEPKcj+0x52>
   d5342:	2d09      	cmp	r5, #9
   d5344:	d00f      	beq.n	d5366 <_ZN5spark10JSONWriter12writeEscapedEPKcj+0x66>
   d5346:	2d0a      	cmp	r5, #10
   d5348:	d012      	beq.n	d5370 <_ZN5spark10JSONWriter12writeEscapedEPKcj+0x70>
   d534a:	2d08      	cmp	r5, #8
   d534c:	d114      	bne.n	d5378 <_ZN5spark10JSONWriter12writeEscapedEPKcj+0x78>
            case '"':
            case '\\':
                write(c);
                break;
            case 0x08: // Backspace
                write('b');
   d534e:	2162      	movs	r1, #98	; 0x62
   d5350:	e00a      	b.n	d5368 <_ZN5spark10JSONWriter12writeEscapedEPKcj+0x68>
    while (s != end) {
        const char c = *s;
        if (c == '"' || c == '\\' || (c >= 0 && c <= 0x1f)) {
            write(str, s - str); // Write preceeding characters
            write('\\');
            switch (c) {
   d5352:	2d22      	cmp	r5, #34	; 0x22
   d5354:	d005      	beq.n	d5362 <_ZN5spark10JSONWriter12writeEscapedEPKcj+0x62>
   d5356:	2d5c      	cmp	r5, #92	; 0x5c
   d5358:	d003      	beq.n	d5362 <_ZN5spark10JSONWriter12writeEscapedEPKcj+0x62>
   d535a:	2d0d      	cmp	r5, #13
   d535c:	d10c      	bne.n	d5378 <_ZN5spark10JSONWriter12writeEscapedEPKcj+0x78>
                break;
            case 0x0c: // Form feed
                write('f');
                break;
            case 0x0d: // Carriage return
                write('r');
   d535e:	2172      	movs	r1, #114	; 0x72
   d5360:	e002      	b.n	d5368 <_ZN5spark10JSONWriter12writeEscapedEPKcj+0x68>
            write(str, s - str); // Write preceeding characters
            write('\\');
            switch (c) {
            case '"':
            case '\\':
                write(c);
   d5362:	4629      	mov	r1, r5
   d5364:	e000      	b.n	d5368 <_ZN5spark10JSONWriter12writeEscapedEPKcj+0x68>
                break;
            case 0x08: // Backspace
                write('b');
                break;
            case 0x09: // Tab
                write('t');
   d5366:	2174      	movs	r1, #116	; 0x74
            case '"':
            case '\\':
                write(c);
                break;
            case 0x08: // Backspace
                write('b');
   d5368:	4620      	mov	r0, r4
   d536a:	f7ff ff19 	bl	d51a0 <_ZN5spark10JSONWriter5writeEc>
                break;
   d536e:	e009      	b.n	d5384 <_ZN5spark10JSONWriter12writeEscapedEPKcj+0x84>
            case 0x09: // Tab
                write('t');
                break;
            case 0x0a: // Line feed
                write('n');
   d5370:	216e      	movs	r1, #110	; 0x6e
   d5372:	e7f9      	b.n	d5368 <_ZN5spark10JSONWriter12writeEscapedEPKcj+0x68>
                break;
            case 0x0c: // Form feed
                write('f');
   d5374:	2166      	movs	r1, #102	; 0x66
   d5376:	e7f7      	b.n	d5368 <_ZN5spark10JSONWriter12writeEscapedEPKcj+0x68>
            case 0x0d: // Carriage return
                write('r');
                break;
            default:
                // All other control characters are written in hex, e.g. "\u001f"
                printf("u%04x", (unsigned)c);
   d5378:	6823      	ldr	r3, [r4, #0]
   d537a:	490a      	ldr	r1, [pc, #40]	; (d53a4 <_ZN5spark10JSONWriter12writeEscapedEPKcj+0xa4>)
   d537c:	68db      	ldr	r3, [r3, #12]
   d537e:	462a      	mov	r2, r5
   d5380:	4620      	mov	r0, r4
   d5382:	4798      	blx	r3
                break;
            }
            str = s + 1;
   d5384:	4631      	mov	r1, r6

void spark::JSONWriter::writeEscaped(const char *str, size_t size) {
    write('"');
    const char* const end = str + size;
    const char *s = str;
    while (s != end) {
   d5386:	4632      	mov	r2, r6
   d5388:	e7c4      	b.n	d5314 <_ZN5spark10JSONWriter12writeEscapedEPKcj+0x14>
            }
            str = s + 1;
        }
        ++s;
    }
    if (s != str) {
   d538a:	4291      	cmp	r1, r2
   d538c:	d004      	beq.n	d5398 <_ZN5spark10JSONWriter12writeEscapedEPKcj+0x98>
        write(str, s - str); // Write remaining characters
   d538e:	6823      	ldr	r3, [r4, #0]
   d5390:	1a52      	subs	r2, r2, r1
   d5392:	689d      	ldr	r5, [r3, #8]
   d5394:	4620      	mov	r0, r4
   d5396:	47a8      	blx	r5
    }
    write('"');
   d5398:	2122      	movs	r1, #34	; 0x22
   d539a:	4620      	mov	r0, r4
   d539c:	f7ff ff00 	bl	d51a0 <_ZN5spark10JSONWriter5writeEc>
   d53a0:	bdf8      	pop	{r3, r4, r5, r6, r7, pc}
   d53a2:	bf00      	nop
   d53a4:	000d7db4 	.word	0x000d7db4

000d53a8 <_ZN5spark10JSONWriter4nameEPKcj>:
    write('}');
    state_ = NEXT;
    return *this;
}

spark::JSONWriter& spark::JSONWriter::name(const char *name, size_t size) {
   d53a8:	b570      	push	{r4, r5, r6, lr}
   d53aa:	4604      	mov	r4, r0
   d53ac:	460d      	mov	r5, r1
   d53ae:	4616      	mov	r6, r2
    writeSeparator();
   d53b0:	f7ff ff68 	bl	d5284 <_ZN5spark10JSONWriter14writeSeparatorEv>
    writeEscaped(name, size);
   d53b4:	4620      	mov	r0, r4
   d53b6:	4632      	mov	r2, r6
   d53b8:	4629      	mov	r1, r5
   d53ba:	f7ff ffa1 	bl	d5300 <_ZN5spark10JSONWriter12writeEscapedEPKcj>
    state_ = VALUE;
   d53be:	2302      	movs	r3, #2
   d53c0:	7123      	strb	r3, [r4, #4]
    return *this;
}
   d53c2:	4620      	mov	r0, r4
   d53c4:	bd70      	pop	{r4, r5, r6, pc}

000d53c6 <_ZN5spark10JSONWriter5valueEPKcj>:
    printf("%g", val);
    state_ = NEXT;
    return *this;
}

spark::JSONWriter& spark::JSONWriter::value(const char *val, size_t size) {
   d53c6:	b570      	push	{r4, r5, r6, lr}
   d53c8:	4604      	mov	r4, r0
   d53ca:	460d      	mov	r5, r1
   d53cc:	4616      	mov	r6, r2
    writeSeparator();
   d53ce:	f7ff ff59 	bl	d5284 <_ZN5spark10JSONWriter14writeSeparatorEv>
    writeEscaped(val, size);
   d53d2:	4620      	mov	r0, r4
   d53d4:	4632      	mov	r2, r6
   d53d6:	4629      	mov	r1, r5
   d53d8:	f7ff ff92 	bl	d5300 <_ZN5spark10JSONWriter12writeEscapedEPKcj>
    state_ = NEXT;
   d53dc:	2301      	movs	r3, #1
   d53de:	7123      	strb	r3, [r4, #4]
    return *this;
}
   d53e0:	4620      	mov	r0, r4
   d53e2:	bd70      	pop	{r4, r5, r6, pc}

000d53e4 <_ZN5spark10JSONStringC1EPK9jsmntok_tSt10shared_ptrINS_6detail8JSONDataEE>:
    t->end = str - json; // Update string length
    return true;
}

// spark::JSONString
spark::JSONString::JSONString(const jsmntok_t *t, detail::JSONDataPtr d) :
   d53e4:	b510      	push	{r4, lr}

    public:
      typedef _Tp   element_type;

      constexpr __shared_ptr() noexcept
      : _M_ptr(0), _M_refcount()
   d53e6:	2300      	movs	r3, #0
   d53e8:	4604      	mov	r4, r0
   d53ea:	6003      	str	r3, [r0, #0]

  template<_Lock_policy _Lp>
    class __shared_count
    {
    public:
      constexpr __shared_count() noexcept : _M_pi(0)
   d53ec:	6043      	str	r3, [r0, #4]
}

// spark::JSONString
inline spark::JSONString::JSONString() :
        s_(""),
        n_(0) {
   d53ee:	4810      	ldr	r0, [pc, #64]	; (d5430 <_ZN5spark10JSONStringC1EPK9jsmntok_tSt10shared_ptrINS_6detail8JSONDataEE+0x4c>)
   d53f0:	60a0      	str	r0, [r4, #8]
   d53f2:	60e3      	str	r3, [r4, #12]
        JSONString() {
    if (t && (t->type == JSMN_STRING || t->type == JSMN_PRIMITIVE)) {
   d53f4:	b1d1      	cbz	r1, d542c <_ZN5spark10JSONStringC1EPK9jsmntok_tSt10shared_ptrINS_6detail8JSONDataEE+0x48>
   d53f6:	780b      	ldrb	r3, [r1, #0]
   d53f8:	2b03      	cmp	r3, #3
   d53fa:	d006      	beq.n	d540a <_ZN5spark10JSONStringC1EPK9jsmntok_tSt10shared_ptrINS_6detail8JSONDataEE+0x26>
   d53fc:	b9b3      	cbnz	r3, d542c <_ZN5spark10JSONStringC1EPK9jsmntok_tSt10shared_ptrINS_6detail8JSONDataEE+0x48>
        if (t->type != JSMN_PRIMITIVE || d->json[t->start] != 'n') { // Nulls are treated as empty strings
   d53fe:	6813      	ldr	r3, [r2, #0]
   d5400:	6858      	ldr	r0, [r3, #4]
   d5402:	684b      	ldr	r3, [r1, #4]
   d5404:	5cc3      	ldrb	r3, [r0, r3]
   d5406:	2b6e      	cmp	r3, #110	; 0x6e
   d5408:	d008      	beq.n	d541c <_ZN5spark10JSONStringC1EPK9jsmntok_tSt10shared_ptrINS_6detail8JSONDataEE+0x38>
            s_ = d->json + t->start;
   d540a:	6813      	ldr	r3, [r2, #0]
   d540c:	6858      	ldr	r0, [r3, #4]
   d540e:	684b      	ldr	r3, [r1, #4]
   d5410:	4403      	add	r3, r0
   d5412:	60a3      	str	r3, [r4, #8]
            n_ = t->end - t->start;
   d5414:	688b      	ldr	r3, [r1, #8]
   d5416:	6849      	ldr	r1, [r1, #4]
   d5418:	1a5b      	subs	r3, r3, r1
   d541a:	60e3      	str	r3, [r4, #12]
    __enable_shared_from_this_helper(const __shared_count<_Lp>&, ...) noexcept
    { }


  template<typename _Tp, _Lock_policy _Lp>
    class __shared_ptr
   d541c:	4611      	mov	r1, r2
   d541e:	4620      	mov	r0, r4
   d5420:	f851 3b04 	ldr.w	r3, [r1], #4
   d5424:	f840 3b04 	str.w	r3, [r0], #4
   d5428:	f7ff fa73 	bl	d4912 <_ZNSt14__shared_countILN9__gnu_cxx12_Lock_policyE0EEaSERKS2_>
        }
        d_ = d;
    }
}
   d542c:	4620      	mov	r0, r4
   d542e:	bd10      	pop	{r4, pc}
   d5430:	000d7e90 	.word	0x000d7e90

000d5434 <_ZN5spark18JSONObjectIteratorC1EPK9jsmntok_tSt10shared_ptrINS_6detail8JSONDataEE>:

    public:
      typedef _Tp   element_type;

      constexpr __shared_ptr() noexcept
      : _M_ptr(0), _M_refcount()
   d5434:	2300      	movs	r3, #0
bool spark::JSONString::operator==(const JSONString &str) const {
    return n_ == str.n_ && strncmp(s_, str.s_, n_) == 0;
}

// spark::JSONObjectIterator
spark::JSONObjectIterator::JSONObjectIterator(const jsmntok_t *t, detail::JSONDataPtr d) :
   d5436:	b510      	push	{r4, lr}
   d5438:	4604      	mov	r4, r0
   d543a:	6003      	str	r3, [r0, #0]

  template<_Lock_policy _Lp>
    class __shared_count
    {
    public:
      constexpr __shared_count() noexcept : _M_pi(0)
   d543c:	6043      	str	r3, [r0, #4]
// spark::JSONObjectIterator
inline spark::JSONObjectIterator::JSONObjectIterator() :
        t_(nullptr),
        k_(nullptr),
        v_(nullptr),
        n_(0) {
   d543e:	6083      	str	r3, [r0, #8]
   d5440:	60c3      	str	r3, [r0, #12]
   d5442:	6103      	str	r3, [r0, #16]
   d5444:	6143      	str	r3, [r0, #20]
        JSONObjectIterator() {
    if (t && t->type == JSMN_OBJECT) {
   d5446:	b171      	cbz	r1, d5466 <_ZN5spark18JSONObjectIteratorC1EPK9jsmntok_tSt10shared_ptrINS_6detail8JSONDataEE+0x32>
   d5448:	780b      	ldrb	r3, [r1, #0]
   d544a:	2b01      	cmp	r3, #1
   d544c:	d10b      	bne.n	d5466 <_ZN5spark18JSONObjectIteratorC1EPK9jsmntok_tSt10shared_ptrINS_6detail8JSONDataEE+0x32>
        t_ = t + 1; // First property's name
   d544e:	f101 0310 	add.w	r3, r1, #16
   d5452:	6083      	str	r3, [r0, #8]
        n_ = t->size; // Number of properties
   d5454:	68cb      	ldr	r3, [r1, #12]
   d5456:	6143      	str	r3, [r0, #20]
    __enable_shared_from_this_helper(const __shared_count<_Lp>&, ...) noexcept
    { }


  template<typename _Tp, _Lock_policy _Lp>
    class __shared_ptr
   d5458:	4611      	mov	r1, r2
   d545a:	f851 3b04 	ldr.w	r3, [r1], #4
   d545e:	f840 3b04 	str.w	r3, [r0], #4
   d5462:	f7ff fa56 	bl	d4912 <_ZNSt14__shared_countILN9__gnu_cxx12_Lock_policyE0EEaSERKS2_>
        d_ = d;
    }
}
   d5466:	4620      	mov	r0, r4
   d5468:	bd10      	pop	{r4, pc}

000d546a <_ZN5spark9JSONValueC1EPK9jsmntok_tSt10shared_ptrINS_6detail8JSONDataEE>:

    public:
      typedef _Tp   element_type;

      constexpr __shared_ptr() noexcept
      : _M_ptr(0), _M_refcount()
   d546a:	2300      	movs	r3, #0
        }
    }
};

// spark::JSONValue
spark::JSONValue::JSONValue(const jsmntok_t *t, detail::JSONDataPtr d) :
   d546c:	b510      	push	{r4, lr}
   d546e:	4604      	mov	r4, r0
   d5470:	6003      	str	r3, [r0, #0]

  template<_Lock_policy _Lp>
    class __shared_count
    {
    public:
      constexpr __shared_count() noexcept : _M_pi(0)
   d5472:	6043      	str	r3, [r0, #4]
        JSONValue() {
    if (t) {
        t_ = t;
   d5474:	6081      	str	r1, [r0, #8]
};

// spark::JSONValue
spark::JSONValue::JSONValue(const jsmntok_t *t, detail::JSONDataPtr d) :
        JSONValue() {
    if (t) {
   d5476:	b131      	cbz	r1, d5486 <_ZN5spark9JSONValueC1EPK9jsmntok_tSt10shared_ptrINS_6detail8JSONDataEE+0x1c>
    __enable_shared_from_this_helper(const __shared_count<_Lp>&, ...) noexcept
    { }


  template<typename _Tp, _Lock_policy _Lp>
    class __shared_ptr
   d5478:	4611      	mov	r1, r2
   d547a:	f851 3b04 	ldr.w	r3, [r1], #4
   d547e:	f840 3b04 	str.w	r3, [r0], #4
   d5482:	f7ff fa46 	bl	d4912 <_ZNSt14__shared_countILN9__gnu_cxx12_Lock_policyE0EEaSERKS2_>
        t_ = t;
        d_ = d;
    }
}
   d5486:	4620      	mov	r0, r4
   d5488:	bd10      	pop	{r4, pc}

000d548a <_ZN5spark16JSONStreamWriter5writeEPKcj>:
inline Print* spark::JSONStreamWriter::stream() const {
    return &strm_;
}

inline void spark::JSONStreamWriter::write(const char *data, size_t size) {
    strm_.write((const uint8_t*)data, size);
   d548a:	6880      	ldr	r0, [r0, #8]
   d548c:	6803      	ldr	r3, [r0, #0]
   d548e:	68db      	ldr	r3, [r3, #12]
   d5490:	4718      	bx	r3

000d5492 <_ZN5spark20JSONStreamLogHandler5writeEPKcj>:
inline void spark::StreamLogHandler::printf(const char *fmt, ArgsT... args) {
    stream_->printf(fmt, args...);
}

// spark::JSONStreamLogHandler
inline void spark::JSONStreamLogHandler::write(const char *data, size_t size) {
   d5492:	4770      	bx	lr

000d5494 <_ZN5spark17LogHandlerFactory14destroyHandlerEPNS_10LogHandlerE>:

#if Wiring_LogConfig

// spark::LogHandlerFactory
inline void spark::LogHandlerFactory::destroyHandler(LogHandler *handler) {
    delete handler;
   d5494:	b119      	cbz	r1, d549e <_ZN5spark17LogHandlerFactory14destroyHandlerEPNS_10LogHandlerE+0xa>
   d5496:	680b      	ldr	r3, [r1, #0]
   d5498:	4608      	mov	r0, r1
   d549a:	685b      	ldr	r3, [r3, #4]
   d549c:	4718      	bx	r3
   d549e:	4770      	bx	lr

000d54a0 <_ZN5spark19OutputStreamFactory13destroyStreamEP5Print>:
}

// spark::OutputStreamFactory
inline void spark::OutputStreamFactory::destroyStream(Print *stream) {
    delete stream;
   d54a0:	b119      	cbz	r1, d54aa <_ZN5spark19OutputStreamFactory13destroyStreamEP5Print+0xa>
   d54a2:	680b      	ldr	r3, [r1, #0]
   d54a4:	4608      	mov	r0, r1
   d54a6:	685b      	ldr	r3, [r3, #4]
   d54a8:	4718      	bx	r3
   d54aa:	4770      	bx	lr

000d54ac <_ZN5spark26DefaultOutputStreamFactoryD1Ev>:

    virtual Print* createStream(const char *type, const JSONValue &params) = 0;
    virtual void destroyStream(Print *stream);
};

class DefaultOutputStreamFactory: public OutputStreamFactory {
   d54ac:	4770      	bx	lr

000d54ae <_ZN5spark24DefaultLogHandlerFactoryD1Ev>:
    virtual LogHandler* createHandler(const char *type, LogLevel level, LogCategoryFilters filters, Print *stream,
            const JSONValue &params) = 0; // TODO: Use some generic container or a buffer instead of JSONValue
    virtual void destroyHandler(LogHandler *handler);
};

class DefaultLogHandlerFactory: public LogHandlerFactory {
   d54ae:	4770      	bx	lr

000d54b0 <_ZN5spark16JSONStreamWriterD1Ev>:
    void writeSeparator();
    void writeEscaped(const char *data, size_t size);
    void write(char c);
};

class JSONStreamWriter: public JSONWriter {
   d54b0:	4770      	bx	lr

000d54b2 <_ZN12_GLOBAL__N_119nextSubcategoryNameERPKcRj>:
    return s;
}
#endif

// Iterates over subcategory names separated by '.' character
const char* nextSubcategoryName(const char* &category, size_t &size) {
   d54b2:	b538      	push	{r3, r4, r5, lr}
   d54b4:	4604      	mov	r4, r0
   d54b6:	460d      	mov	r5, r1
    const char *s = strchrnul(category, '.');
   d54b8:	6800      	ldr	r0, [r0, #0]
   d54ba:	212e      	movs	r1, #46	; 0x2e
   d54bc:	f002 faf8 	bl	d7ab0 <strchrnul>
    size = s - category;
   d54c0:	6823      	ldr	r3, [r4, #0]
   d54c2:	1ac3      	subs	r3, r0, r3
   d54c4:	602b      	str	r3, [r5, #0]
    if (size) {
   d54c6:	b123      	cbz	r3, d54d2 <_ZN12_GLOBAL__N_119nextSubcategoryNameERPKcRj+0x20>
        if (*s) {
   d54c8:	7803      	ldrb	r3, [r0, #0]
   d54ca:	b103      	cbz	r3, d54ce <_ZN12_GLOBAL__N_119nextSubcategoryNameERPKcRj+0x1c>
            ++s;
   d54cc:	3001      	adds	r0, #1
   d54ce:	6823      	ldr	r3, [r4, #0]
      __b = _GLIBCXX_MOVE(__tmp);
   d54d0:	6020      	str	r0, [r4, #0]
        }
        std::swap(s, category);
        return s;
    }
    return nullptr;
   d54d2:	4618      	mov	r0, r3
}
   d54d4:	bd38      	pop	{r3, r4, r5, pc}

000d54d6 <_ZN5spark16JSONStreamWriterD0Ev>:
   d54d6:	b510      	push	{r4, lr}
   d54d8:	210c      	movs	r1, #12
   d54da:	4604      	mov	r4, r0
   d54dc:	f001 fcf5 	bl	d6eca <_ZdlPvj>
   d54e0:	4620      	mov	r0, r4
   d54e2:	bd10      	pop	{r4, pc}

000d54e4 <_ZN5spark24DefaultLogHandlerFactoryD0Ev>:
   d54e4:	b510      	push	{r4, lr}
   d54e6:	2104      	movs	r1, #4
   d54e8:	4604      	mov	r4, r0
   d54ea:	f001 fcee 	bl	d6eca <_ZdlPvj>
   d54ee:	4620      	mov	r0, r4
   d54f0:	bd10      	pop	{r4, pc}

000d54f2 <_ZN5spark26DefaultOutputStreamFactoryD0Ev>:

    virtual Print* createStream(const char *type, const JSONValue &params) = 0;
    virtual void destroyStream(Print *stream);
};

class DefaultOutputStreamFactory: public OutputStreamFactory {
   d54f2:	b510      	push	{r4, lr}
   d54f4:	2104      	movs	r1, #4
   d54f6:	4604      	mov	r4, r0
   d54f8:	f001 fce7 	bl	d6eca <_ZdlPvj>
   d54fc:	4620      	mov	r0, r4
   d54fe:	bd10      	pop	{r4, pc}

000d5500 <_ZN5spark26DefaultOutputStreamFactory13destroyStreamEP5Print>:
    }
#endif // PLATFORM_ID != 3
    return nullptr;
}

void spark::DefaultOutputStreamFactory::destroyStream(Print *stream) {
   d5500:	b538      	push	{r3, r4, r5, lr}
   d5502:	460c      	mov	r4, r1
   d5504:	4605      	mov	r5, r0
#if PLATFORM_ID != 3
    if (stream == &Serial) {
   d5506:	f001 fb31 	bl	d6b6c <_Z16_fetch_usbserialv>
   d550a:	4284      	cmp	r4, r0
   d550c:	d00d      	beq.n	d552a <_ZN5spark26DefaultOutputStreamFactory13destroyStreamEP5Print+0x2a>
    if (stream == &USBSerial1) {
        USBSerial1.end();
        return;
    }
#endif
    if (stream == &Serial1) {
   d550e:	f001 faa1 	bl	d6a54 <_Z22__fetch_global_Serial1v>
   d5512:	4284      	cmp	r4, r0
   d5514:	d105      	bne.n	d5522 <_ZN5spark26DefaultOutputStreamFactory13destroyStreamEP5Print+0x22>
        Serial1.end();
   d5516:	f001 fa9d 	bl	d6a54 <_Z22__fetch_global_Serial1v>
        return;
    }
#endif // PLATFORM_ID != 3
    OutputStreamFactory::destroyStream(stream);
}
   d551a:	e8bd 4038 	ldmia.w	sp!, {r3, r4, r5, lr}
        USBSerial1.end();
        return;
    }
#endif
    if (stream == &Serial1) {
        Serial1.end();
   d551e:	f001 ba92 	b.w	d6a46 <_ZN11USARTSerial3endEv>
        return;
    }
#endif // PLATFORM_ID != 3
    OutputStreamFactory::destroyStream(stream);
   d5522:	4621      	mov	r1, r4
   d5524:	4628      	mov	r0, r5
   d5526:	f7ff ffbb 	bl	d54a0 <_ZN5spark19OutputStreamFactory13destroyStreamEP5Print>
   d552a:	bd38      	pop	{r3, r4, r5, pc}

000d552c <_ZNK5spark10JSONStringeqEPKc.isra.7>:

inline bool spark::JSONString::isEmpty() const {
    return !n_;
}

inline bool spark::JSONString::operator==(const char *str) const {
   d552c:	b508      	push	{r3, lr}
    return strcmp(s_, str) == 0;
   d552e:	f002 fac9 	bl	d7ac4 <strcmp>
}
   d5532:	fab0 f080 	clz	r0, r0
   d5536:	0940      	lsrs	r0, r0, #5
   d5538:	bd08      	pop	{r3, pc}

000d553a <_ZN5spark10JSONWriter5valueEPKc>:

inline spark::JSONWriter& spark::JSONWriter::name(const String &name) {
    return this->name(name.c_str(), name.length());
}

inline spark::JSONWriter& spark::JSONWriter::value(const char *val) {
   d553a:	b538      	push	{r3, r4, r5, lr}
   d553c:	4605      	mov	r5, r0
    return value(val, strlen(val));
   d553e:	4608      	mov	r0, r1

inline spark::JSONWriter& spark::JSONWriter::name(const String &name) {
    return this->name(name.c_str(), name.length());
}

inline spark::JSONWriter& spark::JSONWriter::value(const char *val) {
   d5540:	460c      	mov	r4, r1
    return value(val, strlen(val));
   d5542:	f002 faec 	bl	d7b1e <strlen>
   d5546:	4621      	mov	r1, r4
   d5548:	4602      	mov	r2, r0
   d554a:	4628      	mov	r0, r5
}
   d554c:	e8bd 4038 	ldmia.w	sp!, {r3, r4, r5, lr}
inline spark::JSONWriter& spark::JSONWriter::name(const String &name) {
    return this->name(name.c_str(), name.length());
}

inline spark::JSONWriter& spark::JSONWriter::value(const char *val) {
    return value(val, strlen(val));
   d5550:	f7ff bf39 	b.w	d53c6 <_ZN5spark10JSONWriter5valueEPKcj>

000d5554 <_ZN14RecursiveMutex4lockEv>:
            os_mutex_recursive_destroy(handle_);
            handle_ = nullptr;
        }
    }

    void lock() { os_mutex_recursive_lock(handle_); }
   d5554:	6800      	ldr	r0, [r0, #0]
   d5556:	f7fe bf69 	b.w	d442c <os_mutex_recursive_lock>

000d555a <_ZN5spark16StreamLogHandler5writeEPKc>:

inline void spark::StreamLogHandler::write(const char *data, size_t size) {
    stream_->write((const uint8_t*)data, size);
}

inline void spark::StreamLogHandler::write(const char *str) {
   d555a:	b570      	push	{r4, r5, r6, lr}
   d555c:	4604      	mov	r4, r0
    write(str, strlen(str));
   d555e:	4608      	mov	r0, r1

inline void spark::StreamLogHandler::write(const char *data, size_t size) {
    stream_->write((const uint8_t*)data, size);
}

inline void spark::StreamLogHandler::write(const char *str) {
   d5560:	460d      	mov	r5, r1
    write(str, strlen(str));
   d5562:	f002 fadc 	bl	d7b1e <strlen>
   d5566:	6823      	ldr	r3, [r4, #0]
   d5568:	4602      	mov	r2, r0
   d556a:	4629      	mov	r1, r5
   d556c:	4620      	mov	r0, r4
   d556e:	68db      	ldr	r3, [r3, #12]
}
   d5570:	e8bd 4070 	ldmia.w	sp!, {r4, r5, r6, lr}
inline void spark::StreamLogHandler::write(const char *data, size_t size) {
    stream_->write((const uint8_t*)data, size);
}

inline void spark::StreamLogHandler::write(const char *str) {
    write(str, strlen(str));
   d5574:	4718      	bx	r3

000d5576 <_ZN5spark16StreamLogHandler5writeEc>:
}

inline void spark::StreamLogHandler::write(char c) {
   d5576:	b513      	push	{r0, r1, r4, lr}
   d5578:	ab02      	add	r3, sp, #8
    write(&c, 1);
   d557a:	6802      	ldr	r2, [r0, #0]

inline void spark::StreamLogHandler::write(const char *str) {
    write(str, strlen(str));
}

inline void spark::StreamLogHandler::write(char c) {
   d557c:	f803 1d01 	strb.w	r1, [r3, #-1]!
    write(&c, 1);
   d5580:	68d4      	ldr	r4, [r2, #12]
   d5582:	4619      	mov	r1, r3
   d5584:	2201      	movs	r2, #1
   d5586:	47a0      	blx	r4
}
   d5588:	b002      	add	sp, #8
   d558a:	bd10      	pop	{r4, pc}

000d558c <_ZN5spark6detail9LogFilter9nodeIndexERKNS_6VectorINS1_4NodeENS_16DefaultAllocatorEEEPKcjRb>:
        }
    }
    return level;
}

int spark::detail::LogFilter::nodeIndex(const Vector<Node> &nodes, const char *name, size_t size, bool &found) {
   d558c:	e92d 4ff0 	stmdb	sp!, {r4, r5, r6, r7, r8, r9, sl, fp, lr}
               random_access_iterator_tag)
    {
      // concept requirements
      __glibcxx_function_requires(_RandomAccessIteratorConcept<
				  _RandomAccessIterator>)
      return __last - __first;
   d5590:	6845      	ldr	r5, [r0, #4]
   d5592:	6807      	ldr	r7, [r0, #0]
   d5594:	b085      	sub	sp, #20
   d5596:	4691      	mov	r9, r2
   d5598:	2214      	movs	r2, #20
   d559a:	4355      	muls	r5, r2
   d559c:	9301      	str	r3, [sp, #4]
   d559e:	10ab      	asrs	r3, r5, #2
   d55a0:	4d19      	ldr	r5, [pc, #100]	; (d5608 <_ZN5spark6detail9LogFilter9nodeIndexERKNS_6VectorINS1_4NodeENS_16DefaultAllocatorEEEPKcjRb+0x7c>)
              random_access_iterator_tag)
    {
      // concept requirements
      __glibcxx_function_requires(_RandomAccessIteratorConcept<
				  _RandomAccessIterator>)
      __i += __n;
   d55a2:	9202      	str	r2, [sp, #8]
               random_access_iterator_tag)
    {
      // concept requirements
      __glibcxx_function_requires(_RandomAccessIteratorConcept<
				  _RandomAccessIterator>)
      return __last - __first;
   d55a4:	435d      	muls	r5, r3
   d55a6:	468b      	mov	fp, r1
   d55a8:	463c      	mov	r4, r7
    return std::distance(nodes.begin(), std::lower_bound(nodes.begin(), nodes.end(), std::make_pair(name, size),
            [&found](const Node &node, const std::pair<const char*, size_t> &value) {
                const int cmp = strncmp(node.name, value.first, std::min<size_t>(node.size, value.second));
                if (cmp == 0) {
                    if (node.size == value.second) { // Lengths are equal
                        found = true; // Allows caller code to avoid extra call to strncmp()
   d55aa:	2301      	movs	r3, #1
      typedef typename iterator_traits<_ForwardIterator>::difference_type
	_DistanceType;

      _DistanceType __len = std::distance(__first, __last);

      while (__len > 0)
   d55ac:	2d00      	cmp	r5, #0
   d55ae:	9303      	str	r3, [sp, #12]
   d55b0:	dd23      	ble.n	d55fa <_ZN5spark6detail9LogFilter9nodeIndexERKNS_6VectorINS1_4NodeENS_16DefaultAllocatorEEEPKcjRb+0x6e>
              random_access_iterator_tag)
    {
      // concept requirements
      __glibcxx_function_requires(_RandomAccessIteratorConcept<
				  _RandomAccessIterator>)
      __i += __n;
   d55b2:	9b02      	ldr	r3, [sp, #8]
	{
	  _DistanceType __half = __len >> 1;
   d55b4:	106e      	asrs	r6, r5, #1
   d55b6:	fb03 f006 	mul.w	r0, r3, r6
   d55ba:	eb04 0800 	add.w	r8, r4, r0

int spark::detail::LogFilter::nodeIndex(const Vector<Node> &nodes, const char *name, size_t size, bool &found) {
    // Using binary search to find existent node or suitable position for new node
    return std::distance(nodes.begin(), std::lower_bound(nodes.begin(), nodes.end(), std::make_pair(name, size),
            [&found](const Node &node, const std::pair<const char*, size_t> &value) {
                const int cmp = strncmp(node.name, value.first, std::min<size_t>(node.size, value.second));
   d55be:	464a      	mov	r2, r9
   d55c0:	f8b8 a004 	ldrh.w	sl, [r8, #4]
   d55c4:	5820      	ldr	r0, [r4, r0]
   d55c6:	45d1      	cmp	r9, sl
   d55c8:	bf28      	it	cs
   d55ca:	4652      	movcs	r2, sl
   d55cc:	4659      	mov	r1, fp
   d55ce:	f002 faae 	bl	d7b2e <strncmp>
                if (cmp == 0) {
   d55d2:	9b03      	ldr	r3, [sp, #12]
   d55d4:	b948      	cbnz	r0, d55ea <_ZN5spark6detail9LogFilter9nodeIndexERKNS_6VectorINS1_4NodeENS_16DefaultAllocatorEEEPKcjRb+0x5e>
                    if (node.size == value.second) { // Lengths are equal
   d55d6:	45d1      	cmp	r9, sl
   d55d8:	d103      	bne.n	d55e2 <_ZN5spark6detail9LogFilter9nodeIndexERKNS_6VectorINS1_4NodeENS_16DefaultAllocatorEEEPKcjRb+0x56>
                        found = true; // Allows caller code to avoid extra call to strncmp()
   d55da:	9a01      	ldr	r2, [sp, #4]
   d55dc:	7013      	strb	r3, [r2, #0]
        }
    }
    return level;
}

int spark::detail::LogFilter::nodeIndex(const Vector<Node> &nodes, const char *name, size_t size, bool &found) {
   d55de:	4635      	mov	r5, r6
   d55e0:	e7e4      	b.n	d55ac <_ZN5spark6detail9LogFilter9nodeIndexERKNS_6VectorINS1_4NodeENS_16DefaultAllocatorEEEPKcjRb+0x20>
                if (cmp == 0) {
                    if (node.size == value.second) { // Lengths are equal
                        found = true; // Allows caller code to avoid extra call to strncmp()
                        return false;
                    }
                    return node.size < value.second;
   d55e2:	bf8c      	ite	hi
   d55e4:	2001      	movhi	r0, #1
   d55e6:	2000      	movls	r0, #0
   d55e8:	e000      	b.n	d55ec <_ZN5spark6detail9LogFilter9nodeIndexERKNS_6VectorINS1_4NodeENS_16DefaultAllocatorEEEPKcjRb+0x60>
                }
                return cmp < 0;
   d55ea:	0fc0      	lsrs	r0, r0, #31
	  _ForwardIterator __middle = __first;
	  std::advance(__middle, __half);
	  if (__comp(__middle, __val))
   d55ec:	2800      	cmp	r0, #0
   d55ee:	d0f6      	beq.n	d55de <_ZN5spark6detail9LogFilter9nodeIndexERKNS_6VectorINS1_4NodeENS_16DefaultAllocatorEEEPKcjRb+0x52>
	    {
	      __first = __middle;
	      ++__first;
	      __len = __len - __half - 1;
   d55f0:	1bae      	subs	r6, r5, r6
	  _ForwardIterator __middle = __first;
	  std::advance(__middle, __half);
	  if (__comp(__middle, __val))
	    {
	      __first = __middle;
	      ++__first;
   d55f2:	f108 0414 	add.w	r4, r8, #20
	      __len = __len - __half - 1;
   d55f6:	3e01      	subs	r6, #1
   d55f8:	e7f1      	b.n	d55de <_ZN5spark6detail9LogFilter9nodeIndexERKNS_6VectorINS1_4NodeENS_16DefaultAllocatorEEEPKcjRb+0x52>
            }));
   d55fa:	1be4      	subs	r4, r4, r7
}
   d55fc:	4802      	ldr	r0, [pc, #8]	; (d5608 <_ZN5spark6detail9LogFilter9nodeIndexERKNS_6VectorINS1_4NodeENS_16DefaultAllocatorEEEPKcjRb+0x7c>)
                        return false;
                    }
                    return node.size < value.second;
                }
                return cmp < 0;
            }));
   d55fe:	10a4      	asrs	r4, r4, #2
}
   d5600:	4360      	muls	r0, r4
   d5602:	b005      	add	sp, #20
   d5604:	e8bd 8ff0 	ldmia.w	sp!, {r4, r5, r6, r7, r8, r9, sl, fp, pc}
   d5608:	cccccccd 	.word	0xcccccccd

000d560c <_ZNK5spark6detail9LogFilter5levelEPKc>:
}

spark::detail::LogFilter::~LogFilter() {
}

LogLevel spark::detail::LogFilter::level(const char *category) const {
   d560c:	b5f0      	push	{r4, r5, r6, r7, lr}
   d560e:	b085      	sub	sp, #20
    LogLevel level = level_; // Default level
    if (!nodes_.isEmpty() && category) {
   d5610:	6903      	ldr	r3, [r0, #16]
}

spark::detail::LogFilter::~LogFilter() {
}

LogLevel spark::detail::LogFilter::level(const char *category) const {
   d5612:	9101      	str	r1, [sp, #4]
    LogLevel level = level_; // Default level
   d5614:	7e06      	ldrb	r6, [r0, #24]
    if (!nodes_.isEmpty() && category) {
   d5616:	b313      	cbz	r3, d565e <_ZNK5spark6detail9LogFilter5levelEPKc+0x52>
   d5618:	b309      	cbz	r1, d565e <_ZNK5spark6detail9LogFilter5levelEPKc+0x52>
        const Vector<Node> *pNodes = &nodes_; // Root nodes
        const char *name = nullptr; // Subcategory name
        size_t size = 0; // Name length
   d561a:	af04      	add	r7, sp, #16
   d561c:	2300      	movs	r3, #0
   d561e:	f847 3d04 	str.w	r3, [r7, #-4]!
}

LogLevel spark::detail::LogFilter::level(const char *category) const {
    LogLevel level = level_; // Default level
    if (!nodes_.isEmpty() && category) {
        const Vector<Node> *pNodes = &nodes_; // Root nodes
   d5622:	f100 040c 	add.w	r4, r0, #12
        const char *name = nullptr; // Subcategory name
        size_t size = 0; // Name length
        while ((name = nextSubcategoryName(category, size))) {
            bool found = false;
   d5626:	461d      	mov	r5, r3
    LogLevel level = level_; // Default level
    if (!nodes_.isEmpty() && category) {
        const Vector<Node> *pNodes = &nodes_; // Root nodes
        const char *name = nullptr; // Subcategory name
        size_t size = 0; // Name length
        while ((name = nextSubcategoryName(category, size))) {
   d5628:	4639      	mov	r1, r7
   d562a:	a801      	add	r0, sp, #4
   d562c:	f7ff ff41 	bl	d54b2 <_ZN12_GLOBAL__N_119nextSubcategoryNameERPKcRj>
   d5630:	4601      	mov	r1, r0
   d5632:	b1a0      	cbz	r0, d565e <_ZNK5spark6detail9LogFilter5levelEPKc+0x52>
            bool found = false;
   d5634:	ab04      	add	r3, sp, #16
            const int index = nodeIndex(*pNodes, name, size, found);
   d5636:	9a03      	ldr	r2, [sp, #12]
    if (!nodes_.isEmpty() && category) {
        const Vector<Node> *pNodes = &nodes_; // Root nodes
        const char *name = nullptr; // Subcategory name
        size_t size = 0; // Name length
        while ((name = nextSubcategoryName(category, size))) {
            bool found = false;
   d5638:	f803 5d05 	strb.w	r5, [r3, #-5]!
            const int index = nodeIndex(*pNodes, name, size, found);
   d563c:	4620      	mov	r0, r4
   d563e:	f7ff ffa5 	bl	d558c <_ZN5spark6detail9LogFilter9nodeIndexERKNS_6VectorINS1_4NodeENS_16DefaultAllocatorEEEPKcjRb>
            if (!found) {
   d5642:	f89d 300b 	ldrb.w	r3, [sp, #11]
   d5646:	b153      	cbz	r3, d565e <_ZNK5spark6detail9LogFilter5levelEPKc+0x52>
    return data_[i];
}

template<typename T, typename AllocatorT>
inline const T& spark::Vector<T, AllocatorT>::at(int i) const {
    return data_[i];
   d5648:	6823      	ldr	r3, [r4, #0]
   d564a:	2414      	movs	r4, #20
   d564c:	fb04 3400 	mla	r4, r4, r0, r3
            }
            const Node &node = pNodes->at(index);
            if (node.level >= 0) {
                level = (LogLevel)node.level;
            }
            pNodes = &node.nodes;
   d5650:	3408      	adds	r4, #8
            const int index = nodeIndex(*pNodes, name, size, found);
            if (!found) {
                break;
            }
            const Node &node = pNodes->at(index);
            if (node.level >= 0) {
   d5652:	f934 3c02 	ldrsh.w	r3, [r4, #-2]
   d5656:	2b00      	cmp	r3, #0
                level = (LogLevel)node.level;
   d5658:	bfa8      	it	ge
   d565a:	b2de      	uxtbge	r6, r3
    LogLevel level = level_; // Default level
    if (!nodes_.isEmpty() && category) {
        const Vector<Node> *pNodes = &nodes_; // Root nodes
        const char *name = nullptr; // Subcategory name
        size_t size = 0; // Name length
        while ((name = nextSubcategoryName(category, size))) {
   d565c:	e7e4      	b.n	d5628 <_ZNK5spark6detail9LogFilter5levelEPKc+0x1c>
            }
            pNodes = &node.nodes;
        }
    }
    return level;
}
   d565e:	4630      	mov	r0, r6
   d5660:	b005      	add	sp, #20
   d5662:	bdf0      	pop	{r4, r5, r6, r7, pc}

000d5664 <_ZN5spark24DefaultLogHandlerFactory8instanceEv>:
        return new(std::nothrow) StreamLogHandler(*stream, level, std::move(filters));
    }
    return nullptr; // Unknown handler type
}

spark::DefaultLogHandlerFactory* spark::DefaultLogHandlerFactory::instance() {
   d5664:	b510      	push	{r4, lr}
    static DefaultLogHandlerFactory factory;
   d5666:	4c09      	ldr	r4, [pc, #36]	; (d568c <_ZN5spark24DefaultLogHandlerFactory8instanceEv+0x28>)
   d5668:	6823      	ldr	r3, [r4, #0]
   d566a:	07db      	lsls	r3, r3, #31
   d566c:	d40b      	bmi.n	d5686 <_ZN5spark24DefaultLogHandlerFactory8instanceEv+0x22>
   d566e:	4620      	mov	r0, r4
   d5670:	f7fe fd24 	bl	d40bc <__cxa_guard_acquire>
   d5674:	b138      	cbz	r0, d5686 <_ZN5spark24DefaultLogHandlerFactory8instanceEv+0x22>
   d5676:	4620      	mov	r0, r4
   d5678:	f7fe fd25 	bl	d40c6 <__cxa_guard_release>
   d567c:	4a04      	ldr	r2, [pc, #16]	; (d5690 <_ZN5spark24DefaultLogHandlerFactory8instanceEv+0x2c>)
   d567e:	4905      	ldr	r1, [pc, #20]	; (d5694 <_ZN5spark24DefaultLogHandlerFactory8instanceEv+0x30>)
   d5680:	4805      	ldr	r0, [pc, #20]	; (d5698 <_ZN5spark24DefaultLogHandlerFactory8instanceEv+0x34>)
   d5682:	f001 fc1d 	bl	d6ec0 <__aeabi_atexit>
    return &factory;
}
   d5686:	4804      	ldr	r0, [pc, #16]	; (d5698 <_ZN5spark24DefaultLogHandlerFactory8instanceEv+0x34>)
   d5688:	bd10      	pop	{r4, pc}
   d568a:	bf00      	nop
   d568c:	2003e3a4 	.word	0x2003e3a4
   d5690:	2003e2e8 	.word	0x2003e2e8
   d5694:	000d54af 	.word	0x000d54af
   d5698:	2003e278 	.word	0x2003e278

000d569c <_ZN5spark26DefaultOutputStreamFactory8instanceEv>:
    }
#endif // PLATFORM_ID != 3
    OutputStreamFactory::destroyStream(stream);
}

spark::DefaultOutputStreamFactory* spark::DefaultOutputStreamFactory::instance() {
   d569c:	b510      	push	{r4, lr}
    static DefaultOutputStreamFactory factory;
   d569e:	4c09      	ldr	r4, [pc, #36]	; (d56c4 <_ZN5spark26DefaultOutputStreamFactory8instanceEv+0x28>)
   d56a0:	6823      	ldr	r3, [r4, #0]
   d56a2:	07db      	lsls	r3, r3, #31
   d56a4:	d40b      	bmi.n	d56be <_ZN5spark26DefaultOutputStreamFactory8instanceEv+0x22>
   d56a6:	4620      	mov	r0, r4
   d56a8:	f7fe fd08 	bl	d40bc <__cxa_guard_acquire>
   d56ac:	b138      	cbz	r0, d56be <_ZN5spark26DefaultOutputStreamFactory8instanceEv+0x22>
   d56ae:	4620      	mov	r0, r4
   d56b0:	f7fe fd09 	bl	d40c6 <__cxa_guard_release>
   d56b4:	4a04      	ldr	r2, [pc, #16]	; (d56c8 <_ZN5spark26DefaultOutputStreamFactory8instanceEv+0x2c>)
   d56b6:	4905      	ldr	r1, [pc, #20]	; (d56cc <_ZN5spark26DefaultOutputStreamFactory8instanceEv+0x30>)
   d56b8:	4805      	ldr	r0, [pc, #20]	; (d56d0 <_ZN5spark26DefaultOutputStreamFactory8instanceEv+0x34>)
   d56ba:	f001 fc01 	bl	d6ec0 <__aeabi_atexit>
    return &factory;
}
   d56be:	4804      	ldr	r0, [pc, #16]	; (d56d0 <_ZN5spark26DefaultOutputStreamFactory8instanceEv+0x34>)
   d56c0:	bd10      	pop	{r4, pc}
   d56c2:	bf00      	nop
   d56c4:	2003e3d4 	.word	0x2003e3d4
   d56c8:	2003e2e8 	.word	0x2003e2e8
   d56cc:	000d54ad 	.word	0x000d54ad
   d56d0:	2003e274 	.word	0x2003e274

000d56d4 <_ZN5spark10LogManagerC1Ev>:
    Print *stream;
};

#endif // Wiring_LogConfig

spark::LogManager::LogManager() {
   d56d4:	b538      	push	{r3, r4, r5, lr}
// spark::Vector
template<typename T, typename AllocatorT>
inline spark::Vector<T, AllocatorT>::Vector() :
        data_(nullptr),
        size_(0),
        capacity_(0) {
   d56d6:	2500      	movs	r5, #0
   d56d8:	4604      	mov	r4, r0
   d56da:	6005      	str	r5, [r0, #0]
   d56dc:	6045      	str	r5, [r0, #4]
   d56de:	6085      	str	r5, [r0, #8]
   d56e0:	6105      	str	r5, [r0, #16]
   d56e2:	6145      	str	r5, [r0, #20]
   d56e4:	6185      	str	r5, [r0, #24]
    /**
     * Creates a shared mutex.
     */
    RecursiveMutex(os_mutex_recursive_t handle) : handle_(handle) {}

    RecursiveMutex() : handle_(nullptr)
   d56e6:	f840 5f24 	str.w	r5, [r0, #36]!
    {
        os_mutex_recursive_create(&handle_);
   d56ea:	f7fe fe8f 	bl	d440c <os_mutex_recursive_create>
#if Wiring_LogConfig
    handlerFactory_ = DefaultLogHandlerFactory::instance();
   d56ee:	f7ff ffb9 	bl	d5664 <_ZN5spark24DefaultLogHandlerFactory8instanceEv>
   d56f2:	61e0      	str	r0, [r4, #28]
    streamFactory_ = DefaultOutputStreamFactory::instance();
   d56f4:	f7ff ffd2 	bl	d569c <_ZN5spark26DefaultOutputStreamFactory8instanceEv>
#endif
    outputActive_ = false;
   d56f8:	7325      	strb	r5, [r4, #12]
#endif // Wiring_LogConfig

spark::LogManager::LogManager() {
#if Wiring_LogConfig
    handlerFactory_ = DefaultLogHandlerFactory::instance();
    streamFactory_ = DefaultOutputStreamFactory::instance();
   d56fa:	6220      	str	r0, [r4, #32]
#endif
    outputActive_ = false;
}
   d56fc:	4620      	mov	r0, r4
   d56fe:	bd38      	pop	{r3, r4, r5, pc}

000d5700 <_ZN5spark10LogManager8instanceEv>:
            resetSystemCallbacks();
        }
    }
}

spark::LogManager* spark::LogManager::instance() {
   d5700:	b510      	push	{r4, lr}
    static LogManager mgr;
   d5702:	4c0a      	ldr	r4, [pc, #40]	; (d572c <_ZN5spark10LogManager8instanceEv+0x2c>)
   d5704:	6823      	ldr	r3, [r4, #0]
   d5706:	07db      	lsls	r3, r3, #31
   d5708:	d40e      	bmi.n	d5728 <_ZN5spark10LogManager8instanceEv+0x28>
   d570a:	4620      	mov	r0, r4
   d570c:	f7fe fcd6 	bl	d40bc <__cxa_guard_acquire>
   d5710:	b150      	cbz	r0, d5728 <_ZN5spark10LogManager8instanceEv+0x28>
   d5712:	4807      	ldr	r0, [pc, #28]	; (d5730 <_ZN5spark10LogManager8instanceEv+0x30>)
   d5714:	f7ff ffde 	bl	d56d4 <_ZN5spark10LogManagerC1Ev>
   d5718:	4620      	mov	r0, r4
   d571a:	f7fe fcd4 	bl	d40c6 <__cxa_guard_release>
   d571e:	4a05      	ldr	r2, [pc, #20]	; (d5734 <_ZN5spark10LogManager8instanceEv+0x34>)
   d5720:	4905      	ldr	r1, [pc, #20]	; (d5738 <_ZN5spark10LogManager8instanceEv+0x38>)
   d5722:	4803      	ldr	r0, [pc, #12]	; (d5730 <_ZN5spark10LogManager8instanceEv+0x30>)
   d5724:	f001 fbcc 	bl	d6ec0 <__aeabi_atexit>
    return &mgr;
}
   d5728:	4801      	ldr	r0, [pc, #4]	; (d5730 <_ZN5spark10LogManager8instanceEv+0x30>)
   d572a:	bd10      	pop	{r4, pc}
   d572c:	2003e3a8 	.word	0x2003e3a8
   d5730:	2003e3ac 	.word	0x2003e3ac
   d5734:	2003e2e8 	.word	0x2003e2e8
   d5738:	000d5b6b 	.word	0x000d5b6b

000d573c <_ZN5spark10LogManager18setSystemCallbacksEv>:
}

#endif // Wiring_LogConfig

void spark::LogManager::setSystemCallbacks() {
    log_set_callbacks(logMessage, logWrite, logEnabled, nullptr);
   d573c:	2300      	movs	r3, #0
   d573e:	4a02      	ldr	r2, [pc, #8]	; (d5748 <_ZN5spark10LogManager18setSystemCallbacksEv+0xc>)
   d5740:	4902      	ldr	r1, [pc, #8]	; (d574c <_ZN5spark10LogManager18setSystemCallbacksEv+0x10>)
   d5742:	4803      	ldr	r0, [pc, #12]	; (d5750 <_ZN5spark10LogManager18setSystemCallbacksEv+0x14>)
   d5744:	f7fe bfd2 	b.w	d46ec <log_set_callbacks>
   d5748:	000d5a4d 	.word	0x000d5a4d
   d574c:	000d59dd 	.word	0x000d59dd
   d5750:	000d5965 	.word	0x000d5965

000d5754 <_ZN5spark10LogManager20resetSystemCallbacksEv>:
}

void spark::LogManager::resetSystemCallbacks() {
    log_set_callbacks(nullptr, nullptr, nullptr, nullptr);
   d5754:	2300      	movs	r3, #0
   d5756:	461a      	mov	r2, r3
   d5758:	4619      	mov	r1, r3
   d575a:	4618      	mov	r0, r3
   d575c:	f7fe bfc6 	b.w	d46ec <log_set_callbacks>

000d5760 <_ZN5spark18JSONObjectIteratorC1ERKNS_9JSONValueE>:
        k_(nullptr),
        v_(nullptr),
        n_(0) {
}

inline spark::JSONObjectIterator::JSONObjectIterator(const JSONValue &value) :
   d5760:	b573      	push	{r0, r1, r4, r5, r6, lr}
      template<typename _Tp1>
	__shared_ptr(const __shared_ptr<_Tp1, _Lp>& __r, _Tp* __p) noexcept
	: _M_ptr(__p), _M_refcount(__r._M_refcount) // never throws
	{ }

      __shared_ptr(const __shared_ptr&) noexcept = default;
   d5762:	ac02      	add	r4, sp, #8
        JSONObjectIterator(value.t_, value.d_) {
   d5764:	688e      	ldr	r6, [r1, #8]
   d5766:	f851 3b04 	ldr.w	r3, [r1], #4
   d576a:	f844 3d08 	str.w	r3, [r4, #-8]!
        k_(nullptr),
        v_(nullptr),
        n_(0) {
}

inline spark::JSONObjectIterator::JSONObjectIterator(const JSONValue &value) :
   d576e:	4605      	mov	r5, r0
   d5770:	a801      	add	r0, sp, #4
   d5772:	f7ff f8bb 	bl	d48ec <_ZNSt14__shared_countILN9__gnu_cxx12_Lock_policyE0EEC1ERKS2_>
        JSONObjectIterator(value.t_, value.d_) {
   d5776:	4622      	mov	r2, r4
   d5778:	4631      	mov	r1, r6
   d577a:	4628      	mov	r0, r5
   d577c:	f7ff fe5a 	bl	d5434 <_ZN5spark18JSONObjectIteratorC1EPK9jsmntok_tSt10shared_ptrINS_6detail8JSONDataEE>
      __shared_ptr& operator=(const __shared_ptr&) noexcept = default;
      ~__shared_ptr() = default;
   d5780:	a801      	add	r0, sp, #4
   d5782:	f7ff f8ba 	bl	d48fa <_ZNSt14__shared_countILN9__gnu_cxx12_Lock_policyE0EED1Ev>
}
   d5786:	4628      	mov	r0, r5
   d5788:	b002      	add	sp, #8
   d578a:	bd70      	pop	{r4, r5, r6, pc}

000d578c <_ZNK5spark18JSONObjectIterator5valueEv>:

inline spark::JSONString spark::JSONObjectIterator::name() const {
    return JSONString(k_, d_);
}

inline spark::JSONValue spark::JSONObjectIterator::value() const {
   d578c:	b573      	push	{r0, r1, r4, r5, r6, lr}
      template<typename _Tp1>
	__shared_ptr(const __shared_ptr<_Tp1, _Lp>& __r, _Tp* __p) noexcept
	: _M_ptr(__p), _M_refcount(__r._M_refcount) // never throws
	{ }

      __shared_ptr(const __shared_ptr&) noexcept = default;
   d578e:	ac02      	add	r4, sp, #8
    return JSONValue(v_, d_);
   d5790:	690e      	ldr	r6, [r1, #16]
   d5792:	f851 3b04 	ldr.w	r3, [r1], #4
   d5796:	f844 3d08 	str.w	r3, [r4, #-8]!

inline spark::JSONString spark::JSONObjectIterator::name() const {
    return JSONString(k_, d_);
}

inline spark::JSONValue spark::JSONObjectIterator::value() const {
   d579a:	4605      	mov	r5, r0
   d579c:	a801      	add	r0, sp, #4
   d579e:	f7ff f8a5 	bl	d48ec <_ZNSt14__shared_countILN9__gnu_cxx12_Lock_policyE0EEC1ERKS2_>
    return JSONValue(v_, d_);
   d57a2:	4622      	mov	r2, r4
   d57a4:	4631      	mov	r1, r6
   d57a6:	4628      	mov	r0, r5
   d57a8:	f7ff fe5f 	bl	d546a <_ZN5spark9JSONValueC1EPK9jsmntok_tSt10shared_ptrINS_6detail8JSONDataEE>
      __shared_ptr& operator=(const __shared_ptr&) noexcept = default;
      ~__shared_ptr() = default;
   d57ac:	a801      	add	r0, sp, #4
   d57ae:	f7ff f8a4 	bl	d48fa <_ZNSt14__shared_countILN9__gnu_cxx12_Lock_policyE0EED1Ev>
}
   d57b2:	4628      	mov	r0, r5
   d57b4:	b002      	add	sp, #8
   d57b6:	bd70      	pop	{r4, r5, r6, pc}

000d57b8 <_ZNK5spark18JSONObjectIterator4nameEv>:

inline spark::JSONObjectIterator::JSONObjectIterator(const JSONValue &value) :
        JSONObjectIterator(value.t_, value.d_) {
}

inline spark::JSONString spark::JSONObjectIterator::name() const {
   d57b8:	b573      	push	{r0, r1, r4, r5, r6, lr}
      template<typename _Tp1>
	__shared_ptr(const __shared_ptr<_Tp1, _Lp>& __r, _Tp* __p) noexcept
	: _M_ptr(__p), _M_refcount(__r._M_refcount) // never throws
	{ }

      __shared_ptr(const __shared_ptr&) noexcept = default;
   d57ba:	ac02      	add	r4, sp, #8
    return JSONString(k_, d_);
   d57bc:	68ce      	ldr	r6, [r1, #12]
   d57be:	f851 3b04 	ldr.w	r3, [r1], #4
   d57c2:	f844 3d08 	str.w	r3, [r4, #-8]!

inline spark::JSONObjectIterator::JSONObjectIterator(const JSONValue &value) :
        JSONObjectIterator(value.t_, value.d_) {
}

inline spark::JSONString spark::JSONObjectIterator::name() const {
   d57c6:	4605      	mov	r5, r0
   d57c8:	a801      	add	r0, sp, #4
   d57ca:	f7ff f88f 	bl	d48ec <_ZNSt14__shared_countILN9__gnu_cxx12_Lock_policyE0EEC1ERKS2_>
    return JSONString(k_, d_);
   d57ce:	4622      	mov	r2, r4
   d57d0:	4631      	mov	r1, r6
   d57d2:	4628      	mov	r0, r5
   d57d4:	f7ff fe06 	bl	d53e4 <_ZN5spark10JSONStringC1EPK9jsmntok_tSt10shared_ptrINS_6detail8JSONDataEE>
      __shared_ptr& operator=(const __shared_ptr&) noexcept = default;
      ~__shared_ptr() = default;
   d57d8:	a801      	add	r0, sp, #4
   d57da:	f7ff f88e 	bl	d48fa <_ZNSt14__shared_countILN9__gnu_cxx12_Lock_policyE0EED1Ev>
}
   d57de:	4628      	mov	r0, r5
   d57e0:	b002      	add	sp, #8
   d57e2:	bd70      	pop	{r4, r5, r6, pc}

000d57e4 <_ZN5spark26DefaultOutputStreamFactory9getParamsERKNS_9JSONValueEPi>:
spark::DefaultOutputStreamFactory* spark::DefaultOutputStreamFactory::instance() {
    static DefaultOutputStreamFactory factory;
    return &factory;
}

void spark::DefaultOutputStreamFactory::getParams(const JSONValue &params, int *baudRate) {
   d57e4:	b530      	push	{r4, r5, lr}
   d57e6:	b08b      	sub	sp, #44	; 0x2c
   d57e8:	460d      	mov	r5, r1
    JSONObjectIterator it(params);
   d57ea:	4601      	mov	r1, r0
   d57ec:	a804      	add	r0, sp, #16
   d57ee:	f7ff ffb7 	bl	d5760 <_ZN5spark18JSONObjectIteratorC1ERKNS_9JSONValueE>
    while (it.next()) {
   d57f2:	a804      	add	r0, sp, #16
   d57f4:	f7ff fd29 	bl	d524a <_ZN5spark18JSONObjectIterator4nextEv>
   d57f8:	b1e8      	cbz	r0, d5836 <_ZN5spark26DefaultOutputStreamFactory9getParamsERKNS_9JSONValueEPi+0x52>
        if (it.name() == "baud" && baudRate) {
   d57fa:	a904      	add	r1, sp, #16
   d57fc:	4668      	mov	r0, sp
   d57fe:	f7ff ffdb 	bl	d57b8 <_ZNK5spark18JSONObjectIterator4nameEv>
   d5802:	490f      	ldr	r1, [pc, #60]	; (d5840 <_ZN5spark26DefaultOutputStreamFactory9getParamsERKNS_9JSONValueEPi+0x5c>)
   d5804:	9802      	ldr	r0, [sp, #8]
   d5806:	f7ff fe91 	bl	d552c <_ZNK5spark10JSONStringeqEPKc.isra.7>
   d580a:	4604      	mov	r4, r0
   d580c:	b110      	cbz	r0, d5814 <_ZN5spark26DefaultOutputStreamFactory9getParamsERKNS_9JSONValueEPi+0x30>
   d580e:	1c2c      	adds	r4, r5, #0
   d5810:	bf18      	it	ne
   d5812:	2401      	movne	r4, #1
   d5814:	a801      	add	r0, sp, #4
   d5816:	f7ff f870 	bl	d48fa <_ZNSt14__shared_countILN9__gnu_cxx12_Lock_policyE0EED1Ev>
   d581a:	2c00      	cmp	r4, #0
   d581c:	d0e9      	beq.n	d57f2 <_ZN5spark26DefaultOutputStreamFactory9getParamsERKNS_9JSONValueEPi+0xe>
            *baudRate = it.value().toInt();
   d581e:	a904      	add	r1, sp, #16
   d5820:	4668      	mov	r0, sp
   d5822:	f7ff ffb3 	bl	d578c <_ZNK5spark18JSONObjectIterator5valueEv>
   d5826:	4668      	mov	r0, sp
   d5828:	f7ff fcef 	bl	d520a <_ZNK5spark9JSONValue5toIntEv>
   d582c:	6028      	str	r0, [r5, #0]
   d582e:	a801      	add	r0, sp, #4
   d5830:	f7ff f863 	bl	d48fa <_ZNSt14__shared_countILN9__gnu_cxx12_Lock_policyE0EED1Ev>
   d5834:	e7dd      	b.n	d57f2 <_ZN5spark26DefaultOutputStreamFactory9getParamsERKNS_9JSONValueEPi+0xe>
   d5836:	a805      	add	r0, sp, #20
   d5838:	f7ff f85f 	bl	d48fa <_ZNSt14__shared_countILN9__gnu_cxx12_Lock_policyE0EED1Ev>
        }
    }
}
   d583c:	b00b      	add	sp, #44	; 0x2c
   d583e:	bd30      	pop	{r4, r5, pc}
   d5840:	000d7dec 	.word	0x000d7dec

000d5844 <_ZN5spark26DefaultOutputStreamFactory12createStreamEPKcRKNS_9JSONValueE>:
    static DefaultLogHandlerFactory factory;
    return &factory;
}

// spark::DefaultOutputStreamFactory
Print* spark::DefaultOutputStreamFactory::createStream(const char *type, const JSONValue &params) {
   d5844:	b537      	push	{r0, r1, r2, r4, r5, lr}
   d5846:	460c      	mov	r4, r1
#if PLATFORM_ID != 3
    if (strcmp(type, "Serial") == 0) {
   d5848:	4620      	mov	r0, r4
   d584a:	4913      	ldr	r1, [pc, #76]	; (d5898 <_ZN5spark26DefaultOutputStreamFactory12createStreamEPKcRKNS_9JSONValueE+0x54>)
    static DefaultLogHandlerFactory factory;
    return &factory;
}

// spark::DefaultOutputStreamFactory
Print* spark::DefaultOutputStreamFactory::createStream(const char *type, const JSONValue &params) {
   d584c:	4615      	mov	r5, r2
#if PLATFORM_ID != 3
    if (strcmp(type, "Serial") == 0) {
   d584e:	f002 f939 	bl	d7ac4 <strcmp>
   d5852:	b940      	cbnz	r0, d5866 <_ZN5spark26DefaultOutputStreamFactory12createStreamEPKcRKNS_9JSONValueE+0x22>
        Serial.begin();
   d5854:	f001 f98a 	bl	d6b6c <_Z16_fetch_usbserialv>
   d5858:	f44f 5116 	mov.w	r1, #9600	; 0x2580
   d585c:	f001 f976 	bl	d6b4c <_ZN9USBSerial5beginEl>
        return &Serial;
   d5860:	f001 f984 	bl	d6b6c <_Z16_fetch_usbserialv>
   d5864:	e015      	b.n	d5892 <_ZN5spark26DefaultOutputStreamFactory12createStreamEPKcRKNS_9JSONValueE+0x4e>
    if (strcmp(type, "USBSerial1") == 0) {
        USBSerial1.begin();
        return &USBSerial1;
    }
#endif
    if (strcmp(type, "Serial1") == 0) {
   d5866:	490d      	ldr	r1, [pc, #52]	; (d589c <_ZN5spark26DefaultOutputStreamFactory12createStreamEPKcRKNS_9JSONValueE+0x58>)
   d5868:	4620      	mov	r0, r4
   d586a:	f002 f92b 	bl	d7ac4 <strcmp>
   d586e:	b978      	cbnz	r0, d5890 <_ZN5spark26DefaultOutputStreamFactory12createStreamEPKcRKNS_9JSONValueE+0x4c>
        int baud = 9600;
   d5870:	a902      	add	r1, sp, #8
   d5872:	f44f 5316 	mov.w	r3, #9600	; 0x2580
   d5876:	f841 3d04 	str.w	r3, [r1, #-4]!
        getParams(params, &baud);
   d587a:	4628      	mov	r0, r5
   d587c:	f7ff ffb2 	bl	d57e4 <_ZN5spark26DefaultOutputStreamFactory9getParamsERKNS_9JSONValueEPi>
        Serial1.begin(baud);
   d5880:	f001 f8e8 	bl	d6a54 <_Z22__fetch_global_Serial1v>
   d5884:	9901      	ldr	r1, [sp, #4]
   d5886:	f001 f8db 	bl	d6a40 <_ZN11USARTSerial5beginEm>
        return &Serial1;
   d588a:	f001 f8e3 	bl	d6a54 <_Z22__fetch_global_Serial1v>
   d588e:	e000      	b.n	d5892 <_ZN5spark26DefaultOutputStreamFactory12createStreamEPKcRKNS_9JSONValueE+0x4e>
    }
#endif // PLATFORM_ID != 3
    return nullptr;
   d5890:	2000      	movs	r0, #0
}
   d5892:	b003      	add	sp, #12
   d5894:	bd30      	pop	{r4, r5, pc}
   d5896:	bf00      	nop
   d5898:	000d7df1 	.word	0x000d7df1
   d589c:	000d7df8 	.word	0x000d7df8

000d58a0 <_ZN5spark6VectorINS_6detail9LogFilter4NodeENS_16DefaultAllocatorEED1Ev>:
inline spark::Vector<T, AllocatorT>::Vector(Vector<T, AllocatorT>&& vector) : Vector() {
    swap(*this, vector);
}

template<typename T, typename AllocatorT>
inline spark::Vector<T, AllocatorT>::~Vector() {
   d58a0:	b570      	push	{r4, r5, r6, lr}
    destruct(data_, data_ + size_);
   d58a2:	6804      	ldr	r4, [r0, #0]
   d58a4:	6843      	ldr	r3, [r0, #4]
   d58a6:	2614      	movs	r6, #20
inline spark::Vector<T, AllocatorT>::Vector(Vector<T, AllocatorT>&& vector) : Vector() {
    swap(*this, vector);
}

template<typename T, typename AllocatorT>
inline spark::Vector<T, AllocatorT>::~Vector() {
   d58a8:	4605      	mov	r5, r0
    destruct(data_, data_ + size_);
   d58aa:	fb06 4603 	mla	r6, r6, r3, r4
            new(p) T(std::forward<ArgsT>(args)...);
        }
    }

    static void destruct(T* p, const T* end) {
        for (; p != end; ++p) {
   d58ae:	42a6      	cmp	r6, r4
   d58b0:	d005      	beq.n	d58be <_ZN5spark6VectorINS_6detail9LogFilter4NodeENS_16DefaultAllocatorEED1Ev+0x1e>
    |
    `- aa (error) - b (warn)
*/

// spark::detail::LogFilter
struct spark::detail::LogFilter::Node {
   d58b2:	f104 0008 	add.w	r0, r4, #8
   d58b6:	f7ff fff3 	bl	d58a0 <_ZN5spark6VectorINS_6detail9LogFilter4NodeENS_16DefaultAllocatorEED1Ev>
   d58ba:	3414      	adds	r4, #20
   d58bc:	e7f7      	b.n	d58ae <_ZN5spark6VectorINS_6detail9LogFilter4NodeENS_16DefaultAllocatorEED1Ev+0xe>
inline void* spark::DefaultAllocator::realloc(void* ptr, size_t size) {
    return ::realloc(ptr, size);
}

inline void spark::DefaultAllocator::free(void* ptr) {
    ::free(ptr);
   d58be:	6828      	ldr	r0, [r5, #0]
   d58c0:	f7fe ffb8 	bl	d4834 <free>

template<typename T, typename AllocatorT>
inline spark::Vector<T, AllocatorT>::~Vector() {
    destruct(data_, data_ + size_);
    AllocatorT::free(data_);
}
   d58c4:	4628      	mov	r0, r5
   d58c6:	bd70      	pop	{r4, r5, r6, pc}

000d58c8 <_ZN5spark6VectorI6StringNS_16DefaultAllocatorEED1Ev>:
inline spark::Vector<T, AllocatorT>::Vector(Vector<T, AllocatorT>&& vector) : Vector() {
    swap(*this, vector);
}

template<typename T, typename AllocatorT>
inline spark::Vector<T, AllocatorT>::~Vector() {
   d58c8:	b570      	push	{r4, r5, r6, lr}
    destruct(data_, data_ + size_);
   d58ca:	6804      	ldr	r4, [r0, #0]
   d58cc:	6843      	ldr	r3, [r0, #4]
inline spark::Vector<T, AllocatorT>::Vector(Vector<T, AllocatorT>&& vector) : Vector() {
    swap(*this, vector);
}

template<typename T, typename AllocatorT>
inline spark::Vector<T, AllocatorT>::~Vector() {
   d58ce:	4605      	mov	r5, r0
    destruct(data_, data_ + size_);
   d58d0:	eb04 1603 	add.w	r6, r4, r3, lsl #4
            new(p) T(std::forward<ArgsT>(args)...);
        }
    }

    static void destruct(T* p, const T* end) {
        for (; p != end; ++p) {
   d58d4:	42a6      	cmp	r6, r4
   d58d6:	d004      	beq.n	d58e2 <_ZN5spark6VectorI6StringNS_16DefaultAllocatorEED1Ev+0x1a>
            p->~T();
   d58d8:	4620      	mov	r0, r4
   d58da:	f000 ffc0 	bl	d685e <_ZN6StringD1Ev>
            new(p) T(std::forward<ArgsT>(args)...);
        }
    }

    static void destruct(T* p, const T* end) {
        for (; p != end; ++p) {
   d58de:	3410      	adds	r4, #16
   d58e0:	e7f8      	b.n	d58d4 <_ZN5spark6VectorI6StringNS_16DefaultAllocatorEED1Ev+0xc>
inline void* spark::DefaultAllocator::realloc(void* ptr, size_t size) {
    return ::realloc(ptr, size);
}

inline void spark::DefaultAllocator::free(void* ptr) {
    ::free(ptr);
   d58e2:	6828      	ldr	r0, [r5, #0]
   d58e4:	f7fe ffa6 	bl	d4834 <free>

template<typename T, typename AllocatorT>
inline spark::Vector<T, AllocatorT>::~Vector() {
    destruct(data_, data_ + size_);
    AllocatorT::free(data_);
}
   d58e8:	4628      	mov	r0, r5
   d58ea:	bd70      	pop	{r4, r5, r6, pc}

000d58ec <_ZN5spark6detail9LogFilterD1Ev>:
    swap(cats_, cats);
    swap(nodes_, nodes);
    level_ = level;
}

spark::detail::LogFilter::~LogFilter() {
   d58ec:	b510      	push	{r4, lr}
   d58ee:	4604      	mov	r4, r0
   d58f0:	300c      	adds	r0, #12
   d58f2:	f7ff ffd5 	bl	d58a0 <_ZN5spark6VectorINS_6detail9LogFilter4NodeENS_16DefaultAllocatorEED1Ev>
   d58f6:	4620      	mov	r0, r4
   d58f8:	f7ff ffe6 	bl	d58c8 <_ZN5spark6VectorI6StringNS_16DefaultAllocatorEED1Ev>
}
   d58fc:	4620      	mov	r0, r4
   d58fe:	bd10      	pop	{r4, pc}

000d5900 <_ZN5spark16StreamLogHandlerD1Ev>:
/*!
    \brief Stream-based log handler.

    Adapter class allowing to use existent stream objects as destination for logging output.
*/
class StreamLogHandler: public LogHandler {
   d5900:	b510      	push	{r4, lr}
    */
    LogHandler(LogLevel level, LogCategoryFilters filters);
    /*!
        \brief Destructor.
    */
    virtual ~LogHandler() = default;
   d5902:	4b04      	ldr	r3, [pc, #16]	; (d5914 <_ZN5spark16StreamLogHandlerD1Ev+0x14>)
/*!
    \brief Stream-based log handler.

    Adapter class allowing to use existent stream objects as destination for logging output.
*/
class StreamLogHandler: public LogHandler {
   d5904:	4604      	mov	r4, r0
    */
    LogHandler(LogLevel level, LogCategoryFilters filters);
    /*!
        \brief Destructor.
    */
    virtual ~LogHandler() = default;
   d5906:	f840 3b04 	str.w	r3, [r0], #4
   d590a:	f7ff ffef 	bl	d58ec <_ZN5spark6detail9LogFilterD1Ev>
/*!
    \brief Stream-based log handler.

    Adapter class allowing to use existent stream objects as destination for logging output.
*/
class StreamLogHandler: public LogHandler {
   d590e:	4620      	mov	r0, r4
   d5910:	bd10      	pop	{r4, pc}
   d5912:	bf00      	nop
   d5914:	000d7cbc 	.word	0x000d7cbc

000d5918 <_ZN5spark16StreamLogHandlerD0Ev>:
   d5918:	b510      	push	{r4, lr}
   d591a:	4604      	mov	r4, r0
   d591c:	f7ff fff0 	bl	d5900 <_ZN5spark16StreamLogHandlerD1Ev>
   d5920:	4620      	mov	r0, r4
   d5922:	2124      	movs	r1, #36	; 0x24
   d5924:	f001 fad1 	bl	d6eca <_ZdlPvj>
   d5928:	4620      	mov	r0, r4
   d592a:	bd10      	pop	{r4, pc}

000d592c <_ZN5spark20JSONStreamLogHandlerD1Ev>:

private:
    Print *stream_;
};

class JSONStreamLogHandler: public StreamLogHandler {
   d592c:	b510      	push	{r4, lr}
   d592e:	4b03      	ldr	r3, [pc, #12]	; (d593c <_ZN5spark20JSONStreamLogHandlerD1Ev+0x10>)
   d5930:	6003      	str	r3, [r0, #0]
   d5932:	4604      	mov	r4, r0
   d5934:	f7ff ffe4 	bl	d5900 <_ZN5spark16StreamLogHandlerD1Ev>
   d5938:	4620      	mov	r0, r4
   d593a:	bd10      	pop	{r4, pc}
   d593c:	000d7ddc 	.word	0x000d7ddc

000d5940 <_ZN5spark20JSONStreamLogHandlerD0Ev>:
   d5940:	b510      	push	{r4, lr}
   d5942:	4604      	mov	r4, r0
   d5944:	f7ff fff2 	bl	d592c <_ZN5spark20JSONStreamLogHandlerD1Ev>
   d5948:	4620      	mov	r0, r4
   d594a:	2124      	movs	r1, #36	; 0x24
   d594c:	f001 fabd 	bl	d6eca <_ZdlPvj>
   d5950:	4620      	mov	r0, r4
   d5952:	bd10      	pop	{r4, pc}

000d5954 <_ZNSt10lock_guardI14RecursiveMutexED1Ev>:
      { _M_device.lock(); }

      lock_guard(mutex_type& __m, adopt_lock_t) : _M_device(__m)
      { } // calling thread owns mutex

      ~lock_guard()
   d5954:	b510      	push	{r4, lr}
        }
    }

    void lock() { os_mutex_recursive_lock(handle_); }
    bool trylock() { return os_mutex_recursive_trylock(handle_)==0; }
    void unlock() { os_mutex_recursive_unlock(handle_); }
   d5956:	6803      	ldr	r3, [r0, #0]
   d5958:	4604      	mov	r4, r0
   d595a:	6818      	ldr	r0, [r3, #0]
   d595c:	f7fe fd6e 	bl	d443c <os_mutex_recursive_unlock>
      { _M_device.unlock(); }
   d5960:	4620      	mov	r0, r4
   d5962:	bd10      	pop	{r4, pc}

000d5964 <_ZN5spark10LogManager10logMessageEPKciS2_PK13LogAttributesPv>:

void spark::LogManager::resetSystemCallbacks() {
    log_set_callbacks(nullptr, nullptr, nullptr, nullptr);
}

void spark::LogManager::logMessage(const char *msg, int level, const char *category, const LogAttributes *attr, void *reserved) {
   d5964:	e92d 4ff0 	stmdb	sp!, {r4, r5, r6, r7, r8, r9, sl, fp, lr}
   d5968:	469b      	mov	fp, r3
#endif /* nRF52840 */

#if defined(STM32F10X_MD) || defined(STM32F10X_HD) || defined(STM32F2XX) || defined(nRF52840)
static inline bool HAL_IsISR() 
{
	return (SCB->ICSR & SCB_ICSR_VECTACTIVE_Msk) != 0;
   d596a:	4b1b      	ldr	r3, [pc, #108]	; (d59d8 <_ZN5spark10LogManager10logMessageEPKciS2_PK13LogAttributesPv+0x74>)
   d596c:	685b      	ldr	r3, [r3, #4]
#ifndef LOG_FROM_ISR
    if (HAL_IsISR()) {
   d596e:	f3c3 0308 	ubfx	r3, r3, #0, #9

void spark::LogManager::resetSystemCallbacks() {
    log_set_callbacks(nullptr, nullptr, nullptr, nullptr);
}

void spark::LogManager::logMessage(const char *msg, int level, const char *category, const LogAttributes *attr, void *reserved) {
   d5972:	b085      	sub	sp, #20
   d5974:	4682      	mov	sl, r0
   d5976:	460e      	mov	r6, r1
   d5978:	4690      	mov	r8, r2
#ifndef LOG_FROM_ISR
    if (HAL_IsISR()) {
   d597a:	bb53      	cbnz	r3, d59d2 <_ZN5spark10LogManager10logMessageEPKciS2_PK13LogAttributesPv+0x6e>
        return;
    }
#endif
    LogManager *that = instance();
   d597c:	f7ff fec0 	bl	d5700 <_ZN5spark10LogManager8instanceEv>
   d5980:	4604      	mov	r4, r0
    LOG_WITH_LOCK(that->mutex_) {
   d5982:	3024      	adds	r0, #36	; 0x24
    class lock_guard
    {
    public:
      typedef _Mutex mutex_type;

      explicit lock_guard(mutex_type& __m) : _M_device(__m)
   d5984:	9003      	str	r0, [sp, #12]
      { _M_device.lock(); }
   d5986:	f7ff fde5 	bl	d5554 <_ZN14RecursiveMutex4lockEv>
        // prevent re-entry
        if (that->isActive()) {
   d598a:	7b23      	ldrb	r3, [r4, #12]
   d598c:	b9f3      	cbnz	r3, d59cc <_ZN5spark10LogManager10logMessageEPKciS2_PK13LogAttributesPv+0x68>
inline bool spark::LogManager::isActive() const {
    return outputActive_;
}

inline void spark::LogManager::setActive(bool outputActive) {
    outputActive_ = outputActive;
   d598e:	2301      	movs	r3, #1
   d5990:	7323      	strb	r3, [r4, #12]
   d5992:	6825      	ldr	r5, [r4, #0]
    return data_;
}

template<typename T, typename AllocatorT>
T* spark::Vector<T, AllocatorT>::end() {
    return data_ + size_;
   d5994:	6863      	ldr	r3, [r4, #4]
        if (that->isActive()) {
            return;
        }
        that->setActive(true);
        for (LogHandler *handler: that->activeHandlers_) {
            handler->message(msg, (LogLevel)level, category, *attr);
   d5996:	b2f6      	uxtb	r6, r6
   d5998:	eb05 0983 	add.w	r9, r5, r3, lsl #2
        // prevent re-entry
        if (that->isActive()) {
            return;
        }
        that->setActive(true);
        for (LogHandler *handler: that->activeHandlers_) {
   d599c:	454d      	cmp	r5, r9
   d599e:	d013      	beq.n	d59c8 <_ZN5spark10LogManager10logMessageEPKciS2_PK13LogAttributesPv+0x64>
   d59a0:	f855 7b04 	ldr.w	r7, [r5], #4
inline const char* spark::LogHandler::levelName(LogLevel level) {
    return log_level_name(level, nullptr);
}

inline void spark::LogHandler::message(const char *msg, LogLevel level, const char *category, const LogAttributes &attr) {
    if (level >= filter_.level(category)) {
   d59a4:	4641      	mov	r1, r8
   d59a6:	1d38      	adds	r0, r7, #4
   d59a8:	f7ff fe30 	bl	d560c <_ZNK5spark6detail9LogFilter5levelEPKc>
   d59ac:	4286      	cmp	r6, r0
   d59ae:	d3f5      	bcc.n	d599c <_ZN5spark10LogManager10logMessageEPKciS2_PK13LogAttributesPv+0x38>
        logMessage(msg, level, category, attr);
   d59b0:	683b      	ldr	r3, [r7, #0]
   d59b2:	f8cd b000 	str.w	fp, [sp]
   d59b6:	689b      	ldr	r3, [r3, #8]
   d59b8:	469e      	mov	lr, r3
   d59ba:	4638      	mov	r0, r7
   d59bc:	4643      	mov	r3, r8
   d59be:	4632      	mov	r2, r6
   d59c0:	4651      	mov	r1, sl
   d59c2:	4677      	mov	r7, lr
   d59c4:	47b8      	blx	r7
   d59c6:	e7e9      	b.n	d599c <_ZN5spark10LogManager10logMessageEPKciS2_PK13LogAttributesPv+0x38>
inline bool spark::LogManager::isActive() const {
    return outputActive_;
}

inline void spark::LogManager::setActive(bool outputActive) {
    outputActive_ = outputActive;
   d59c8:	2300      	movs	r3, #0
   d59ca:	7323      	strb	r3, [r4, #12]
#endif
    LogManager *that = instance();
    LOG_WITH_LOCK(that->mutex_) {
        // prevent re-entry
        if (that->isActive()) {
            return;
   d59cc:	a803      	add	r0, sp, #12
   d59ce:	f7ff ffc1 	bl	d5954 <_ZNSt10lock_guardI14RecursiveMutexED1Ev>
        for (LogHandler *handler: that->activeHandlers_) {
            handler->message(msg, (LogLevel)level, category, *attr);
        }
        that->setActive(false);
    }
}
   d59d2:	b005      	add	sp, #20
   d59d4:	e8bd 8ff0 	ldmia.w	sp!, {r4, r5, r6, r7, r8, r9, sl, fp, pc}
   d59d8:	e000ed00 	.word	0xe000ed00

000d59dc <_ZN5spark10LogManager8logWriteEPKcjiS2_Pv>:

void spark::LogManager::logWrite(const char *data, size_t size, int level, const char *category, void *reserved) {
   d59dc:	e92d 4ff7 	stmdb	sp!, {r0, r1, r2, r4, r5, r6, r7, r8, r9, sl, fp, lr}
   d59e0:	4699      	mov	r9, r3
   d59e2:	4b19      	ldr	r3, [pc, #100]	; (d5a48 <_ZN5spark10LogManager8logWriteEPKcjiS2_Pv+0x6c>)
   d59e4:	685b      	ldr	r3, [r3, #4]
#ifndef LOG_FROM_ISR
    if (HAL_IsISR()) {
   d59e6:	f3c3 0308 	ubfx	r3, r3, #0, #9
        }
        that->setActive(false);
    }
}

void spark::LogManager::logWrite(const char *data, size_t size, int level, const char *category, void *reserved) {
   d59ea:	4607      	mov	r7, r0
   d59ec:	4688      	mov	r8, r1
   d59ee:	4616      	mov	r6, r2
#ifndef LOG_FROM_ISR
    if (HAL_IsISR()) {
   d59f0:	bb33      	cbnz	r3, d5a40 <_ZN5spark10LogManager8logWriteEPKcjiS2_Pv+0x64>
        return;
    }
#endif
    LogManager *that = instance();
   d59f2:	f7ff fe85 	bl	d5700 <_ZN5spark10LogManager8instanceEv>
   d59f6:	4604      	mov	r4, r0
    LOG_WITH_LOCK(that->mutex_) {
   d59f8:	3024      	adds	r0, #36	; 0x24
    class lock_guard
    {
    public:
      typedef _Mutex mutex_type;

      explicit lock_guard(mutex_type& __m) : _M_device(__m)
   d59fa:	9001      	str	r0, [sp, #4]
      { _M_device.lock(); }
   d59fc:	f7ff fdaa 	bl	d5554 <_ZN14RecursiveMutex4lockEv>
        // prevent re-entry
        if (that->isActive()) {
   d5a00:	7b23      	ldrb	r3, [r4, #12]
   d5a02:	b9d3      	cbnz	r3, d5a3a <_ZN5spark10LogManager8logWriteEPKcjiS2_Pv+0x5e>
inline bool spark::LogManager::isActive() const {
    return outputActive_;
}

inline void spark::LogManager::setActive(bool outputActive) {
    outputActive_ = outputActive;
   d5a04:	2301      	movs	r3, #1
   d5a06:	7323      	strb	r3, [r4, #12]
   d5a08:	6825      	ldr	r5, [r4, #0]
   d5a0a:	6863      	ldr	r3, [r4, #4]
    }
}

inline void spark::LogHandler::write(const char *data, size_t size, LogLevel level, const char *category) {
    if (level >= filter_.level(category)) {
   d5a0c:	fa5f fb86 	uxtb.w	fp, r6
   d5a10:	eb05 0a83 	add.w	sl, r5, r3, lsl #2
        // prevent re-entry
        if (that->isActive()) {
            return;
        }
        that->setActive(true);
        for (LogHandler *handler: that->activeHandlers_) {
   d5a14:	4555      	cmp	r5, sl
   d5a16:	d00e      	beq.n	d5a36 <_ZN5spark10LogManager8logWriteEPKcjiS2_Pv+0x5a>
   d5a18:	f855 6b04 	ldr.w	r6, [r5], #4
   d5a1c:	4649      	mov	r1, r9
   d5a1e:	1d30      	adds	r0, r6, #4
   d5a20:	f7ff fdf4 	bl	d560c <_ZNK5spark6detail9LogFilter5levelEPKc>
   d5a24:	4583      	cmp	fp, r0
   d5a26:	d3f5      	bcc.n	d5a14 <_ZN5spark10LogManager8logWriteEPKcjiS2_Pv+0x38>
        write(data, size);
   d5a28:	6833      	ldr	r3, [r6, #0]
   d5a2a:	4642      	mov	r2, r8
   d5a2c:	68db      	ldr	r3, [r3, #12]
   d5a2e:	4639      	mov	r1, r7
   d5a30:	4630      	mov	r0, r6
   d5a32:	4798      	blx	r3
   d5a34:	e7ee      	b.n	d5a14 <_ZN5spark10LogManager8logWriteEPKcjiS2_Pv+0x38>
inline bool spark::LogManager::isActive() const {
    return outputActive_;
}

inline void spark::LogManager::setActive(bool outputActive) {
    outputActive_ = outputActive;
   d5a36:	2300      	movs	r3, #0
   d5a38:	7323      	strb	r3, [r4, #12]
#endif
    LogManager *that = instance();
    LOG_WITH_LOCK(that->mutex_) {
        // prevent re-entry
        if (that->isActive()) {
            return;
   d5a3a:	a801      	add	r0, sp, #4
   d5a3c:	f7ff ff8a 	bl	d5954 <_ZNSt10lock_guardI14RecursiveMutexED1Ev>
        for (LogHandler *handler: that->activeHandlers_) {
            handler->write(data, size, (LogLevel)level, category);
        }
        that->setActive(false);
    }
}
   d5a40:	b003      	add	sp, #12
   d5a42:	e8bd 8ff0 	ldmia.w	sp!, {r4, r5, r6, r7, r8, r9, sl, fp, pc}
   d5a46:	bf00      	nop
   d5a48:	e000ed00 	.word	0xe000ed00

000d5a4c <_ZN5spark10LogManager10logEnabledEiPKcPv>:

int spark::LogManager::logEnabled(int level, const char *category, void *reserved) {
   d5a4c:	e92d 41f3 	stmdb	sp!, {r0, r1, r4, r5, r6, r7, r8, lr}
   d5a50:	4b15      	ldr	r3, [pc, #84]	; (d5aa8 <_ZN5spark10LogManager10logEnabledEiPKcPv+0x5c>)
   d5a52:	685b      	ldr	r3, [r3, #4]
#ifndef LOG_FROM_ISR
    if (HAL_IsISR()) {
   d5a54:	f3c3 0308 	ubfx	r3, r3, #0, #9
        }
        that->setActive(false);
    }
}

int spark::LogManager::logEnabled(int level, const char *category, void *reserved) {
   d5a58:	4604      	mov	r4, r0
   d5a5a:	4688      	mov	r8, r1
#ifndef LOG_FROM_ISR
    if (HAL_IsISR()) {
   d5a5c:	b9fb      	cbnz	r3, d5a9e <_ZN5spark10LogManager10logEnabledEiPKcPv+0x52>
        return 0;
    }
#endif
    LogManager *that = instance();
   d5a5e:	f7ff fe4f 	bl	d5700 <_ZN5spark10LogManager8instanceEv>
   d5a62:	4606      	mov	r6, r0
    int minLevel = LOG_LEVEL_NONE;
    LOG_WITH_LOCK(that->mutex_) {
   d5a64:	3024      	adds	r0, #36	; 0x24
    class lock_guard
    {
    public:
      typedef _Mutex mutex_type;

      explicit lock_guard(mutex_type& __m) : _M_device(__m)
   d5a66:	9001      	str	r0, [sp, #4]
      { _M_device.lock(); }
   d5a68:	f7ff fd74 	bl	d5554 <_ZN14RecursiveMutex4lockEv>
   d5a6c:	e896 00a0 	ldmia.w	r6, {r5, r7}
   d5a70:	2646      	movs	r6, #70	; 0x46
   d5a72:	eb05 0787 	add.w	r7, r5, r7, lsl #2
        for (LogHandler *handler: that->activeHandlers_) {
   d5a76:	42af      	cmp	r7, r5
   d5a78:	d107      	bne.n	d5a8a <_ZN5spark10LogManager10logEnabledEiPKcPv+0x3e>
        return 0;
    }
#endif
    LogManager *that = instance();
    int minLevel = LOG_LEVEL_NONE;
    LOG_WITH_LOCK(that->mutex_) {
   d5a7a:	a801      	add	r0, sp, #4
   d5a7c:	f7ff ff6a 	bl	d5954 <_ZNSt10lock_guardI14RecursiveMutexED1Ev>
            if (level < minLevel) {
                minLevel = level;
            }
        }
    }
    return (level >= minLevel);
   d5a80:	42b4      	cmp	r4, r6
   d5a82:	bfb4      	ite	lt
   d5a84:	2000      	movlt	r0, #0
   d5a86:	2001      	movge	r0, #1
   d5a88:	e00a      	b.n	d5aa0 <_ZN5spark10LogManager10logEnabledEiPKcPv+0x54>
inline LogLevel spark::LogHandler::level() const {
    return filter_.level();
}

inline LogLevel spark::LogHandler::level(const char *category) const {
    return filter_.level(category);
   d5a8a:	f855 0b04 	ldr.w	r0, [r5], #4
   d5a8e:	4641      	mov	r1, r8
   d5a90:	3004      	adds	r0, #4
   d5a92:	f7ff fdbb 	bl	d560c <_ZNK5spark6detail9LogFilter5levelEPKc>
   d5a96:	4286      	cmp	r6, r0
   d5a98:	bfa8      	it	ge
   d5a9a:	4606      	movge	r6, r0
   d5a9c:	e7eb      	b.n	d5a76 <_ZN5spark10LogManager10logEnabledEiPKcPv+0x2a>
}

int spark::LogManager::logEnabled(int level, const char *category, void *reserved) {
#ifndef LOG_FROM_ISR
    if (HAL_IsISR()) {
        return 0;
   d5a9e:	2000      	movs	r0, #0
                minLevel = level;
            }
        }
    }
    return (level >= minLevel);
}
   d5aa0:	b002      	add	sp, #8
   d5aa2:	e8bd 81f0 	ldmia.w	sp!, {r4, r5, r6, r7, r8, pc}
   d5aa6:	bf00      	nop
   d5aa8:	e000ed00 	.word	0xe000ed00

000d5aac <_ZN5spark6VectorIPNS_10LogHandlerENS_16DefaultAllocatorEE9removeOneERKS2_>:
    move(p, p + n, data_ + size_);
    size_ -= n;
}

template<typename T, typename AllocatorT>
inline bool spark::Vector<T, AllocatorT>::removeOne(const T &value) {
   d5aac:	b570      	push	{r4, r5, r6, lr}
    T* const p = find(data_, data_ + size_, value);
   d5aae:	6803      	ldr	r3, [r0, #0]
   d5ab0:	6842      	ldr	r2, [r0, #4]
    move(p, p + n, data_ + size_);
    size_ -= n;
}

template<typename T, typename AllocatorT>
inline bool spark::Vector<T, AllocatorT>::removeOne(const T &value) {
   d5ab2:	4604      	mov	r4, r0
    T* const p = find(data_, data_ + size_, value);
   d5ab4:	eb03 0282 	add.w	r2, r3, r2, lsl #2
            }
        }
    }

    static T* find(T* p, const T* end, const T& value) {
        for (; p != end; ++p) {
   d5ab8:	429a      	cmp	r2, r3
   d5aba:	4618      	mov	r0, r3
   d5abc:	d00e      	beq.n	d5adc <_ZN5spark6VectorIPNS_10LogHandlerENS_16DefaultAllocatorEE9removeOneERKS2_+0x30>
            if (*p == value) {
   d5abe:	6806      	ldr	r6, [r0, #0]
   d5ac0:	680d      	ldr	r5, [r1, #0]
   d5ac2:	42ae      	cmp	r6, r5
   d5ac4:	f103 0304 	add.w	r3, r3, #4
   d5ac8:	d1f6      	bne.n	d5ab8 <_ZN5spark6VectorIPNS_10LogHandlerENS_16DefaultAllocatorEE9removeOneERKS2_+0xc>
    T* const p = find(data_, data_ + size_, value);
    if (!p) {
        return false;
    }
    p->~T();
    move(p, p + 1, data_ + size_);
   d5aca:	1d01      	adds	r1, r0, #4
        }
    }

    template<PARTICLE_VECTOR_ENABLE_IF_TRIVIALLY_COPYABLE(T)>
    static void move(T* dest, const T* p, const T* end) {
        ::memmove(dest, p, (end - p) * sizeof(T));
   d5acc:	1a52      	subs	r2, r2, r1
   d5ace:	f001 ff96 	bl	d79fe <memmove>
    if (!p) {
        return false;
    }
    p->~T();
    move(p, p + 1, data_ + size_);
    --size_;
   d5ad2:	6863      	ldr	r3, [r4, #4]
   d5ad4:	3b01      	subs	r3, #1
   d5ad6:	6063      	str	r3, [r4, #4]
    return true;
   d5ad8:	2001      	movs	r0, #1
}
   d5ada:	bd70      	pop	{r4, r5, r6, pc}

template<typename T, typename AllocatorT>
inline bool spark::Vector<T, AllocatorT>::removeOne(const T &value) {
    T* const p = find(data_, data_ + size_, value);
    if (!p) {
        return false;
   d5adc:	2000      	movs	r0, #0
   d5ade:	bd70      	pop	{r4, r5, r6, pc}

000d5ae0 <_ZN5spark10LogManager13removeHandlerEPNS_10LogHandlerE>:
        }
    }
    return true;
}

void spark::LogManager::removeHandler(LogHandler *handler) {
   d5ae0:	b51f      	push	{r0, r1, r2, r3, r4, lr}
   d5ae2:	4604      	mov	r4, r0
    LOG_WITH_LOCK(mutex_) {
   d5ae4:	3024      	adds	r0, #36	; 0x24
        }
    }
    return true;
}

void spark::LogManager::removeHandler(LogHandler *handler) {
   d5ae6:	9101      	str	r1, [sp, #4]
    class lock_guard
    {
    public:
      typedef _Mutex mutex_type;

      explicit lock_guard(mutex_type& __m) : _M_device(__m)
   d5ae8:	9003      	str	r0, [sp, #12]
      { _M_device.lock(); }
   d5aea:	f7ff fd33 	bl	d5554 <_ZN14RecursiveMutex4lockEv>
    LOG_WITH_LOCK(mutex_) {
        if (activeHandlers_.removeOne(handler) && activeHandlers_.isEmpty()) {
   d5aee:	a901      	add	r1, sp, #4
   d5af0:	4620      	mov	r0, r4
   d5af2:	f7ff ffdb 	bl	d5aac <_ZN5spark6VectorIPNS_10LogHandlerENS_16DefaultAllocatorEE9removeOneERKS2_>
   d5af6:	b920      	cbnz	r0, d5b02 <_ZN5spark10LogManager13removeHandlerEPNS_10LogHandlerE+0x22>
    }
    return true;
}

void spark::LogManager::removeHandler(LogHandler *handler) {
    LOG_WITH_LOCK(mutex_) {
   d5af8:	a803      	add	r0, sp, #12
   d5afa:	f7ff ff2b 	bl	d5954 <_ZNSt10lock_guardI14RecursiveMutexED1Ev>
        if (activeHandlers_.removeOne(handler) && activeHandlers_.isEmpty()) {
            resetSystemCallbacks();
        }
    }
}
   d5afe:	b004      	add	sp, #16
   d5b00:	bd10      	pop	{r4, pc}
    return true;
}

void spark::LogManager::removeHandler(LogHandler *handler) {
    LOG_WITH_LOCK(mutex_) {
        if (activeHandlers_.removeOne(handler) && activeHandlers_.isEmpty()) {
   d5b02:	6863      	ldr	r3, [r4, #4]
   d5b04:	2b00      	cmp	r3, #0
   d5b06:	d1f7      	bne.n	d5af8 <_ZN5spark10LogManager13removeHandlerEPNS_10LogHandlerE+0x18>
            resetSystemCallbacks();
   d5b08:	f7ff fe24 	bl	d5754 <_ZN5spark10LogManager20resetSystemCallbacksEv>
   d5b0c:	e7f4      	b.n	d5af8 <_ZN5spark10LogManager13removeHandlerEPNS_10LogHandlerE+0x18>

000d5b0e <_ZN5spark10LogManager22destroyFactoryHandlersEv>:
            break;
        }
    }
}

void spark::LogManager::destroyFactoryHandlers() {
   d5b0e:	b570      	push	{r4, r5, r6, lr}
   d5b10:	6905      	ldr	r5, [r0, #16]
    return data_;
}

template<typename T, typename AllocatorT>
T* spark::Vector<T, AllocatorT>::end() {
    return data_ + size_;
   d5b12:	6943      	ldr	r3, [r0, #20]
   d5b14:	2618      	movs	r6, #24
   d5b16:	4604      	mov	r4, r0
   d5b18:	fb06 5603 	mla	r6, r6, r3, r5
    for (const FactoryHandler &h: factoryHandlers_) {
   d5b1c:	42ae      	cmp	r6, r5
   d5b1e:	d015      	beq.n	d5b4c <_ZN5spark10LogManager22destroyFactoryHandlersEv+0x3e>
        activeHandlers_.removeOne(h.handler);
   d5b20:	f105 0110 	add.w	r1, r5, #16
   d5b24:	4620      	mov	r0, r4
   d5b26:	f7ff ffc1 	bl	d5aac <_ZN5spark6VectorIPNS_10LogHandlerENS_16DefaultAllocatorEE9removeOneERKS2_>
        if (activeHandlers_.isEmpty()) {
   d5b2a:	6863      	ldr	r3, [r4, #4]
   d5b2c:	b90b      	cbnz	r3, d5b32 <_ZN5spark10LogManager22destroyFactoryHandlersEv+0x24>
            resetSystemCallbacks();
   d5b2e:	f7ff fe11 	bl	d5754 <_ZN5spark10LogManager20resetSystemCallbacksEv>
        }
        handlerFactory_->destroyHandler(h.handler);
   d5b32:	69e0      	ldr	r0, [r4, #28]
   d5b34:	6929      	ldr	r1, [r5, #16]
   d5b36:	6803      	ldr	r3, [r0, #0]
   d5b38:	68db      	ldr	r3, [r3, #12]
   d5b3a:	4798      	blx	r3
        if (h.stream) {
   d5b3c:	6969      	ldr	r1, [r5, #20]
   d5b3e:	b119      	cbz	r1, d5b48 <_ZN5spark10LogManager22destroyFactoryHandlersEv+0x3a>
            streamFactory_->destroyStream(h.stream);
   d5b40:	6a20      	ldr	r0, [r4, #32]
   d5b42:	6803      	ldr	r3, [r0, #0]
   d5b44:	68db      	ldr	r3, [r3, #12]
   d5b46:	4798      	blx	r3
   d5b48:	3518      	adds	r5, #24
        }
    }
}

void spark::LogManager::destroyFactoryHandlers() {
    for (const FactoryHandler &h: factoryHandlers_) {
   d5b4a:	e7e7      	b.n	d5b1c <_ZN5spark10LogManager22destroyFactoryHandlersEv+0xe>
    return true;
}

template<typename T, typename AllocatorT>
inline void spark::Vector<T, AllocatorT>::clear() {
    destruct(data_, data_ + size_);
   d5b4c:	6925      	ldr	r5, [r4, #16]
   d5b4e:	6963      	ldr	r3, [r4, #20]
   d5b50:	2618      	movs	r6, #24
   d5b52:	fb06 5603 	mla	r6, r6, r3, r5
            new(p) T(std::forward<ArgsT>(args)...);
        }
    }

    static void destruct(T* p, const T* end) {
        for (; p != end; ++p) {
   d5b56:	42b5      	cmp	r5, r6
   d5b58:	d004      	beq.n	d5b64 <_ZN5spark10LogManager22destroyFactoryHandlersEv+0x56>
        }
    }
}

// spark::LogManager
struct spark::LogManager::FactoryHandler {
   d5b5a:	4628      	mov	r0, r5
   d5b5c:	f000 fe7f 	bl	d685e <_ZN6StringD1Ev>
   d5b60:	3518      	adds	r5, #24
   d5b62:	e7f8      	b.n	d5b56 <_ZN5spark10LogManager22destroyFactoryHandlersEv+0x48>
}

template<typename T, typename AllocatorT>
inline void spark::Vector<T, AllocatorT>::clear() {
    destruct(data_, data_ + size_);
    size_ = 0;
   d5b64:	2300      	movs	r3, #0
   d5b66:	6163      	str	r3, [r4, #20]
   d5b68:	bd70      	pop	{r4, r5, r6, pc}

000d5b6a <_ZN5spark10LogManagerD1Ev>:
    streamFactory_ = DefaultOutputStreamFactory::instance();
#endif
    outputActive_ = false;
}

spark::LogManager::~LogManager() {
   d5b6a:	b573      	push	{r0, r1, r4, r5, r6, lr}
   d5b6c:	4604      	mov	r4, r0
    class lock_guard
    {
    public:
      typedef _Mutex mutex_type;

      explicit lock_guard(mutex_type& __m) : _M_device(__m)
   d5b6e:	ad02      	add	r5, sp, #8
    resetSystemCallbacks();
   d5b70:	f7ff fdf0 	bl	d5754 <_ZN5spark10LogManager20resetSystemCallbacksEv>
#if Wiring_LogConfig
    LOG_WITH_LOCK(mutex_) {
   d5b74:	f104 0024 	add.w	r0, r4, #36	; 0x24
   d5b78:	f845 0d04 	str.w	r0, [r5, #-4]!
      { _M_device.lock(); }
   d5b7c:	f7ff fcea 	bl	d5554 <_ZN14RecursiveMutex4lockEv>
         destroyFactoryHandlers();
   d5b80:	4620      	mov	r0, r4
   d5b82:	f7ff ffc4 	bl	d5b0e <_ZN5spark10LogManager22destroyFactoryHandlersEv>
}

spark::LogManager::~LogManager() {
    resetSystemCallbacks();
#if Wiring_LogConfig
    LOG_WITH_LOCK(mutex_) {
   d5b86:	4628      	mov	r0, r5
   d5b88:	f7ff fee4 	bl	d5954 <_ZNSt10lock_guardI14RecursiveMutexED1Ev>
        dispose();
    }

    void dispose()
    {
        if (handle_) {
   d5b8c:	6a60      	ldr	r0, [r4, #36]	; 0x24
   d5b8e:	b108      	cbz	r0, d5b94 <_ZN5spark10LogManagerD1Ev+0x2a>
            os_mutex_recursive_destroy(handle_);
   d5b90:	f7fe fc44 	bl	d441c <os_mutex_recursive_destroy>
    swap(*this, vector);
}

template<typename T, typename AllocatorT>
inline spark::Vector<T, AllocatorT>::~Vector() {
    destruct(data_, data_ + size_);
   d5b94:	6925      	ldr	r5, [r4, #16]
   d5b96:	6963      	ldr	r3, [r4, #20]
   d5b98:	2618      	movs	r6, #24
   d5b9a:	fb06 5603 	mla	r6, r6, r3, r5
            new(p) T(std::forward<ArgsT>(args)...);
        }
    }

    static void destruct(T* p, const T* end) {
        for (; p != end; ++p) {
   d5b9e:	42b5      	cmp	r5, r6
   d5ba0:	d004      	beq.n	d5bac <_ZN5spark10LogManagerD1Ev+0x42>
        }
    }
}

// spark::LogManager
struct spark::LogManager::FactoryHandler {
   d5ba2:	4628      	mov	r0, r5
   d5ba4:	f000 fe5b 	bl	d685e <_ZN6StringD1Ev>
   d5ba8:	3518      	adds	r5, #24
   d5baa:	e7f8      	b.n	d5b9e <_ZN5spark10LogManagerD1Ev+0x34>
inline void* spark::DefaultAllocator::realloc(void* ptr, size_t size) {
    return ::realloc(ptr, size);
}

inline void spark::DefaultAllocator::free(void* ptr) {
    ::free(ptr);
   d5bac:	6920      	ldr	r0, [r4, #16]
   d5bae:	f7fe fe41 	bl	d4834 <free>
   d5bb2:	6820      	ldr	r0, [r4, #0]
   d5bb4:	f7fe fe3e 	bl	d4834 <free>
#if Wiring_LogConfig
    LOG_WITH_LOCK(mutex_) {
         destroyFactoryHandlers();
    }
#endif
}
   d5bb8:	4620      	mov	r0, r4
   d5bba:	b002      	add	sp, #8
   d5bbc:	bd70      	pop	{r4, r5, r6, pc}

000d5bbe <_ZN5spark4swapINS_17LogCategoryFilterENS_16DefaultAllocatorEEEvRNS_6VectorIT_T0_EES7_>:
#endif
    {
      // concept requirements
      __glibcxx_function_requires(_SGIAssignableConcept<_Tp>)

      _Tp __tmp = _GLIBCXX_MOVE(__a);
   d5bbe:	6803      	ldr	r3, [r0, #0]
      __a = _GLIBCXX_MOVE(__b);
   d5bc0:	680a      	ldr	r2, [r1, #0]
   d5bc2:	6002      	str	r2, [r0, #0]
      __b = _GLIBCXX_MOVE(__tmp);
   d5bc4:	600b      	str	r3, [r1, #0]
#endif
    {
      // concept requirements
      __glibcxx_function_requires(_SGIAssignableConcept<_Tp>)

      _Tp __tmp = _GLIBCXX_MOVE(__a);
   d5bc6:	6843      	ldr	r3, [r0, #4]
      __a = _GLIBCXX_MOVE(__b);
   d5bc8:	684a      	ldr	r2, [r1, #4]
   d5bca:	6042      	str	r2, [r0, #4]
      __b = _GLIBCXX_MOVE(__tmp);
   d5bcc:	604b      	str	r3, [r1, #4]
#endif
    {
      // concept requirements
      __glibcxx_function_requires(_SGIAssignableConcept<_Tp>)

      _Tp __tmp = _GLIBCXX_MOVE(__a);
   d5bce:	6883      	ldr	r3, [r0, #8]
      __a = _GLIBCXX_MOVE(__b);
   d5bd0:	688a      	ldr	r2, [r1, #8]
   d5bd2:	6082      	str	r2, [r0, #8]
      __b = _GLIBCXX_MOVE(__tmp);
   d5bd4:	608b      	str	r3, [r1, #8]
   d5bd6:	4770      	bx	lr

000d5bd8 <_ZN5spark6VectorINS_17LogCategoryFilterENS_16DefaultAllocatorEEC1EOS3_>:
        size_ = vector.size_;
    }
}

template<typename T, typename AllocatorT>
inline spark::Vector<T, AllocatorT>::Vector(Vector<T, AllocatorT>&& vector) : Vector() {
   d5bd8:	b510      	push	{r4, lr}
// spark::Vector
template<typename T, typename AllocatorT>
inline spark::Vector<T, AllocatorT>::Vector() :
        data_(nullptr),
        size_(0),
        capacity_(0) {
   d5bda:	2300      	movs	r3, #0
        size_ = vector.size_;
    }
}

template<typename T, typename AllocatorT>
inline spark::Vector<T, AllocatorT>::Vector(Vector<T, AllocatorT>&& vector) : Vector() {
   d5bdc:	4604      	mov	r4, r0
// spark::Vector
template<typename T, typename AllocatorT>
inline spark::Vector<T, AllocatorT>::Vector() :
        data_(nullptr),
        size_(0),
        capacity_(0) {
   d5bde:	6003      	str	r3, [r0, #0]
   d5be0:	6043      	str	r3, [r0, #4]
   d5be2:	6083      	str	r3, [r0, #8]
    }
}

template<typename T, typename AllocatorT>
inline spark::Vector<T, AllocatorT>::Vector(Vector<T, AllocatorT>&& vector) : Vector() {
    swap(*this, vector);
   d5be4:	f7ff ffeb 	bl	d5bbe <_ZN5spark4swapINS_17LogCategoryFilterENS_16DefaultAllocatorEEEvRNS_6VectorIT_T0_EES7_>
}
   d5be8:	4620      	mov	r0, r4
   d5bea:	bd10      	pop	{r4, pc}

000d5bec <_ZN5spark6VectorINS_6detail9LogFilter4NodeENS_16DefaultAllocatorEE4moveIS3_Li0EEEvPS3_S7_S7_>:
        ::memmove(dest, p, (end - p) * sizeof(T));
    }

    template<PARTICLE_VECTOR_ENABLE_IF_NOT_TRIVIALLY_COPYABLE(T)>
    static void move(T* dest, T* p, T* end) {
        if (dest > p && dest < end) {
   d5bec:	4288      	cmp	r0, r1
    static void move(T* dest, const T* p, const T* end) {
        ::memmove(dest, p, (end - p) * sizeof(T));
    }

    template<PARTICLE_VECTOR_ENABLE_IF_NOT_TRIVIALLY_COPYABLE(T)>
    static void move(T* dest, T* p, T* end) {
   d5bee:	b5f8      	push	{r3, r4, r5, r6, r7, lr}
   d5bf0:	4604      	mov	r4, r0
   d5bf2:	4616      	mov	r6, r2
        if (dest > p && dest < end) {
   d5bf4:	d925      	bls.n	d5c42 <_ZN5spark6VectorINS_6detail9LogFilter4NodeENS_16DefaultAllocatorEE4moveIS3_Li0EEEvPS3_S7_S7_+0x56>
   d5bf6:	4290      	cmp	r0, r2
   d5bf8:	d224      	bcs.n	d5c44 <_ZN5spark6VectorINS_6detail9LogFilter4NodeENS_16DefaultAllocatorEE4moveIS3_Li0EEEvPS3_S7_S7_+0x58>
            // Move elements in reverse order
            --p;
            --end;
            dest += end - p - 1;
   d5bfa:	1a55      	subs	r5, r2, r1
   d5bfc:	3d14      	subs	r5, #20
   d5bfe:	442c      	add	r4, r5
   d5c00:	f1a1 0714 	sub.w	r7, r1, #20
   d5c04:	f1a2 050c 	sub.w	r5, r2, #12
// spark::Vector
template<typename T, typename AllocatorT>
inline spark::Vector<T, AllocatorT>::Vector() :
        data_(nullptr),
        size_(0),
        capacity_(0) {
   d5c08:	2600      	movs	r6, #0
        if (dest > p && dest < end) {
            // Move elements in reverse order
            --p;
            --end;
            dest += end - p - 1;
            for (; end != p; --end, --dest) {
   d5c0a:	f1a5 0308 	sub.w	r3, r5, #8
   d5c0e:	429f      	cmp	r7, r3
   d5c10:	d037      	beq.n	d5c82 <_ZN5spark6VectorINS_6detail9LogFilter4NodeENS_16DefaultAllocatorEE4moveIS3_Li0EEEvPS3_S7_S7_+0x96>
                new(dest) T(std::move(*end));
   d5c12:	b184      	cbz	r4, d5c36 <_ZN5spark6VectorINS_6detail9LogFilter4NodeENS_16DefaultAllocatorEE4moveIS3_Li0EEEvPS3_S7_S7_+0x4a>
    |
    `- aa (error) - b (warn)
*/

// spark::detail::LogFilter
struct spark::detail::LogFilter::Node {
   d5c14:	f855 3c08 	ldr.w	r3, [r5, #-8]
   d5c18:	6023      	str	r3, [r4, #0]
   d5c1a:	f835 3c04 	ldrh.w	r3, [r5, #-4]
   d5c1e:	80a3      	strh	r3, [r4, #4]
   d5c20:	f935 3c02 	ldrsh.w	r3, [r5, #-2]
   d5c24:	80e3      	strh	r3, [r4, #6]
// spark::Vector
template<typename T, typename AllocatorT>
inline spark::Vector<T, AllocatorT>::Vector() :
        data_(nullptr),
        size_(0),
        capacity_(0) {
   d5c26:	60a6      	str	r6, [r4, #8]
   d5c28:	60e6      	str	r6, [r4, #12]
   d5c2a:	6126      	str	r6, [r4, #16]
    }
}

template<typename T, typename AllocatorT>
inline spark::Vector<T, AllocatorT>::Vector(Vector<T, AllocatorT>&& vector) : Vector() {
    swap(*this, vector);
   d5c2c:	4629      	mov	r1, r5
   d5c2e:	f104 0008 	add.w	r0, r4, #8
   d5c32:	f7ff ffc4 	bl	d5bbe <_ZN5spark4swapINS_17LogCategoryFilterENS_16DefaultAllocatorEEEvRNS_6VectorIT_T0_EES7_>
   d5c36:	4628      	mov	r0, r5
   d5c38:	f7ff fe32 	bl	d58a0 <_ZN5spark6VectorINS_6detail9LogFilter4NodeENS_16DefaultAllocatorEED1Ev>
        if (dest > p && dest < end) {
            // Move elements in reverse order
            --p;
            --end;
            dest += end - p - 1;
            for (; end != p; --end, --dest) {
   d5c3c:	3c14      	subs	r4, #20
   d5c3e:	3d14      	subs	r5, #20
   d5c40:	e7e3      	b.n	d5c0a <_ZN5spark6VectorINS_6detail9LogFilter4NodeENS_16DefaultAllocatorEE4moveIS3_Li0EEEvPS3_S7_S7_+0x1e>
                new(dest) T(std::move(*end));
                end->~T();
            }
        } else if (dest != p) {
   d5c42:	d01e      	beq.n	d5c82 <_ZN5spark6VectorINS_6detail9LogFilter4NodeENS_16DefaultAllocatorEE4moveIS3_Li0EEEvPS3_S7_S7_+0x96>
   d5c44:	f101 0508 	add.w	r5, r1, #8
// spark::Vector
template<typename T, typename AllocatorT>
inline spark::Vector<T, AllocatorT>::Vector() :
        data_(nullptr),
        size_(0),
        capacity_(0) {
   d5c48:	2700      	movs	r7, #0
            for (; end != p; --end, --dest) {
                new(dest) T(std::move(*end));
                end->~T();
            }
        } else if (dest != p) {
            for (; p != end; ++p, ++dest) {
   d5c4a:	f1a5 0308 	sub.w	r3, r5, #8
   d5c4e:	429e      	cmp	r6, r3
   d5c50:	d017      	beq.n	d5c82 <_ZN5spark6VectorINS_6detail9LogFilter4NodeENS_16DefaultAllocatorEE4moveIS3_Li0EEEvPS3_S7_S7_+0x96>
                new(dest) T(std::move(*p));
   d5c52:	b184      	cbz	r4, d5c76 <_ZN5spark6VectorINS_6detail9LogFilter4NodeENS_16DefaultAllocatorEE4moveIS3_Li0EEEvPS3_S7_S7_+0x8a>
   d5c54:	f855 3c08 	ldr.w	r3, [r5, #-8]
   d5c58:	6023      	str	r3, [r4, #0]
   d5c5a:	f835 3c04 	ldrh.w	r3, [r5, #-4]
   d5c5e:	80a3      	strh	r3, [r4, #4]
   d5c60:	f935 3c02 	ldrsh.w	r3, [r5, #-2]
   d5c64:	80e3      	strh	r3, [r4, #6]
// spark::Vector
template<typename T, typename AllocatorT>
inline spark::Vector<T, AllocatorT>::Vector() :
        data_(nullptr),
        size_(0),
        capacity_(0) {
   d5c66:	60a7      	str	r7, [r4, #8]
   d5c68:	60e7      	str	r7, [r4, #12]
   d5c6a:	6127      	str	r7, [r4, #16]
    }
}

template<typename T, typename AllocatorT>
inline spark::Vector<T, AllocatorT>::Vector(Vector<T, AllocatorT>&& vector) : Vector() {
    swap(*this, vector);
   d5c6c:	4629      	mov	r1, r5
   d5c6e:	f104 0008 	add.w	r0, r4, #8
   d5c72:	f7ff ffa4 	bl	d5bbe <_ZN5spark4swapINS_17LogCategoryFilterENS_16DefaultAllocatorEEEvRNS_6VectorIT_T0_EES7_>
   d5c76:	4628      	mov	r0, r5
   d5c78:	f7ff fe12 	bl	d58a0 <_ZN5spark6VectorINS_6detail9LogFilter4NodeENS_16DefaultAllocatorEED1Ev>
            for (; end != p; --end, --dest) {
                new(dest) T(std::move(*end));
                end->~T();
            }
        } else if (dest != p) {
            for (; p != end; ++p, ++dest) {
   d5c7c:	3414      	adds	r4, #20
   d5c7e:	3514      	adds	r5, #20
   d5c80:	e7e3      	b.n	d5c4a <_ZN5spark6VectorINS_6detail9LogFilter4NodeENS_16DefaultAllocatorEE4moveIS3_Li0EEEvPS3_S7_S7_+0x5e>
   d5c82:	bdf8      	pop	{r3, r4, r5, r6, r7, pc}

000d5c84 <_ZN5spark6VectorIPNS_10LogHandlerENS_16DefaultAllocatorEE6insertEiS2_>:
inline bool spark::Vector<T, AllocatorT>::prepend(const Vector<T, AllocatorT> &vector) {
    return insert(0, vector);
}

template<typename T, typename AllocatorT>
inline bool spark::Vector<T, AllocatorT>::insert(int i, T value) {
   d5c84:	b5f8      	push	{r3, r4, r5, r6, r7, lr}
    if (size_ + 1 > capacity_ && !realloc(size_ + 1)) {
   d5c86:	6845      	ldr	r5, [r0, #4]
   d5c88:	6883      	ldr	r3, [r0, #8]
   d5c8a:	429d      	cmp	r5, r3
inline bool spark::Vector<T, AllocatorT>::prepend(const Vector<T, AllocatorT> &vector) {
    return insert(0, vector);
}

template<typename T, typename AllocatorT>
inline bool spark::Vector<T, AllocatorT>::insert(int i, T value) {
   d5c8c:	4604      	mov	r4, r0
   d5c8e:	460e      	mov	r6, r1
   d5c90:	4617      	mov	r7, r2
    if (size_ + 1 > capacity_ && !realloc(size_ + 1)) {
   d5c92:	db0e      	blt.n	d5cb2 <_ZN5spark6VectorIPNS_10LogHandlerENS_16DefaultAllocatorEE6insertEiS2_+0x2e>
   d5c94:	3501      	adds	r5, #1
    int size_, capacity_;

    template<PARTICLE_VECTOR_ENABLE_IF_TRIVIALLY_COPYABLE(T)>
    bool realloc(int n) {
        T* d = nullptr;
        if (n > 0) {
   d5c96:	2d00      	cmp	r5, #0
   d5c98:	dd05      	ble.n	d5ca6 <_ZN5spark6VectorIPNS_10LogHandlerENS_16DefaultAllocatorEE6insertEiS2_+0x22>
inline void* spark::DefaultAllocator::malloc(size_t size) {
    return ::malloc(size);
}

inline void* spark::DefaultAllocator::realloc(void* ptr, size_t size) {
    return ::realloc(ptr, size);
   d5c9a:	00a9      	lsls	r1, r5, #2
   d5c9c:	6800      	ldr	r0, [r0, #0]
   d5c9e:	f7fe fdd1 	bl	d4844 <realloc>
    template<PARTICLE_VECTOR_ENABLE_IF_TRIVIALLY_COPYABLE(T)>
    bool realloc(int n) {
        T* d = nullptr;
        if (n > 0) {
            d = (T*)AllocatorT::realloc(data_, n * sizeof(T));
            if (!d) {
   d5ca2:	b920      	cbnz	r0, d5cae <_ZN5spark6VectorIPNS_10LogHandlerENS_16DefaultAllocatorEE6insertEiS2_+0x2a>
   d5ca4:	bdf8      	pop	{r3, r4, r5, r6, r7, pc}
inline void* spark::DefaultAllocator::realloc(void* ptr, size_t size) {
    return ::realloc(ptr, size);
}

inline void spark::DefaultAllocator::free(void* ptr) {
    ::free(ptr);
   d5ca6:	6800      	ldr	r0, [r0, #0]
   d5ca8:	f7fe fdc4 	bl	d4834 <free>
    T* data_;
    int size_, capacity_;

    template<PARTICLE_VECTOR_ENABLE_IF_TRIVIALLY_COPYABLE(T)>
    bool realloc(int n) {
        T* d = nullptr;
   d5cac:	2000      	movs	r0, #0
                return false;
            }
        } else {
            AllocatorT::free(data_);
        }
        data_ = d;
   d5cae:	6020      	str	r0, [r4, #0]
        capacity_ = n;
   d5cb0:	60a5      	str	r5, [r4, #8]
template<typename T, typename AllocatorT>
inline bool spark::Vector<T, AllocatorT>::insert(int i, T value) {
    if (size_ + 1 > capacity_ && !realloc(size_ + 1)) {
        return false;
    }
    T* const p = data_ + i;
   d5cb2:	6825      	ldr	r5, [r4, #0]
        }
    }

    template<PARTICLE_VECTOR_ENABLE_IF_TRIVIALLY_COPYABLE(T)>
    static void move(T* dest, const T* p, const T* end) {
        ::memmove(dest, p, (end - p) * sizeof(T));
   d5cb4:	6862      	ldr	r2, [r4, #4]
template<typename T, typename AllocatorT>
inline bool spark::Vector<T, AllocatorT>::insert(int i, T value) {
    if (size_ + 1 > capacity_ && !realloc(size_ + 1)) {
        return false;
    }
    T* const p = data_ + i;
   d5cb6:	eb05 0186 	add.w	r1, r5, r6, lsl #2
        }
    }

    template<PARTICLE_VECTOR_ENABLE_IF_TRIVIALLY_COPYABLE(T)>
    static void move(T* dest, const T* p, const T* end) {
        ::memmove(dest, p, (end - p) * sizeof(T));
   d5cba:	eb05 0282 	add.w	r2, r5, r2, lsl #2
   d5cbe:	1a52      	subs	r2, r2, r1
   d5cc0:	1d08      	adds	r0, r1, #4
   d5cc2:	f001 fe9c 	bl	d79fe <memmove>
    if (size_ + 1 > capacity_ && !realloc(size_ + 1)) {
        return false;
    }
    T* const p = data_ + i;
    move(p + 1, p, data_ + size_);
    new(p) T(std::move(value));
   d5cc6:	f845 7026 	str.w	r7, [r5, r6, lsl #2]
    ++size_;
   d5cca:	6863      	ldr	r3, [r4, #4]
   d5ccc:	3301      	adds	r3, #1
   d5cce:	6063      	str	r3, [r4, #4]
   d5cd0:	2001      	movs	r0, #1
    return true;
}
   d5cd2:	bdf8      	pop	{r3, r4, r5, r6, r7, pc}

000d5cd4 <_ZN5spark10LogManager10addHandlerEPNS_10LogHandlerE>:
         destroyFactoryHandlers();
    }
#endif
}

bool spark::LogManager::addHandler(LogHandler *handler) {
   d5cd4:	b537      	push	{r0, r1, r2, r4, r5, lr}
   d5cd6:	4604      	mov	r4, r0
    LOG_WITH_LOCK(mutex_) {
   d5cd8:	3024      	adds	r0, #36	; 0x24
         destroyFactoryHandlers();
    }
#endif
}

bool spark::LogManager::addHandler(LogHandler *handler) {
   d5cda:	460d      	mov	r5, r1
    class lock_guard
    {
    public:
      typedef _Mutex mutex_type;

      explicit lock_guard(mutex_type& __m) : _M_device(__m)
   d5cdc:	9001      	str	r0, [sp, #4]
      { _M_device.lock(); }
   d5cde:	f7ff fc39 	bl	d5554 <_ZN14RecursiveMutex4lockEv>
    return p - data_;
}

template<typename T, typename AllocatorT>
inline bool spark::Vector<T, AllocatorT>::contains(const T &value) const {
    return find(data_, data_ + size_, value);
   d5ce2:	6823      	ldr	r3, [r4, #0]
   d5ce4:	6861      	ldr	r1, [r4, #4]
   d5ce6:	eb03 0081 	add.w	r0, r3, r1, lsl #2
            }
        }
    }

    static T* find(T* p, const T* end, const T& value) {
        for (; p != end; ++p) {
   d5cea:	4283      	cmp	r3, r0
   d5cec:	461a      	mov	r2, r3
   d5cee:	d009      	beq.n	d5d04 <_ZN5spark10LogManager10addHandlerEPNS_10LogHandlerE+0x30>
            if (*p == value) {
   d5cf0:	6812      	ldr	r2, [r2, #0]
   d5cf2:	42aa      	cmp	r2, r5
   d5cf4:	f103 0304 	add.w	r3, r3, #4
   d5cf8:	d1f7      	bne.n	d5cea <_ZN5spark10LogManager10addHandlerEPNS_10LogHandlerE+0x16>
    LOG_WITH_LOCK(mutex_) {
        if (activeHandlers_.contains(handler) || !activeHandlers_.append(handler)) {
            return false;
   d5cfa:	a801      	add	r0, sp, #4
   d5cfc:	f7ff fe2a 	bl	d5954 <_ZNSt10lock_guardI14RecursiveMutexED1Ev>
   d5d00:	2500      	movs	r5, #0
   d5d02:	e00e      	b.n	d5d22 <_ZN5spark10LogManager10addHandlerEPNS_10LogHandlerE+0x4e>
    AllocatorT::free(data_);
}

template<typename T, typename AllocatorT>
inline bool spark::Vector<T, AllocatorT>::append(T value) {
    return insert(size_, std::move(value));
   d5d04:	462a      	mov	r2, r5
   d5d06:	4620      	mov	r0, r4
   d5d08:	f7ff ffbc 	bl	d5c84 <_ZN5spark6VectorIPNS_10LogHandlerENS_16DefaultAllocatorEE6insertEiS2_>
#endif
}

bool spark::LogManager::addHandler(LogHandler *handler) {
    LOG_WITH_LOCK(mutex_) {
        if (activeHandlers_.contains(handler) || !activeHandlers_.append(handler)) {
   d5d0c:	4605      	mov	r5, r0
   d5d0e:	2800      	cmp	r0, #0
   d5d10:	d0f3      	beq.n	d5cfa <_ZN5spark10LogManager10addHandlerEPNS_10LogHandlerE+0x26>
            return false;
        }
        if (activeHandlers_.size() == 1) {
   d5d12:	6863      	ldr	r3, [r4, #4]
   d5d14:	2b01      	cmp	r3, #1
   d5d16:	d101      	bne.n	d5d1c <_ZN5spark10LogManager10addHandlerEPNS_10LogHandlerE+0x48>
            setSystemCallbacks();
   d5d18:	f7ff fd10 	bl	d573c <_ZN5spark10LogManager18setSystemCallbacksEv>
    }
#endif
}

bool spark::LogManager::addHandler(LogHandler *handler) {
    LOG_WITH_LOCK(mutex_) {
   d5d1c:	a801      	add	r0, sp, #4
   d5d1e:	f7ff fe19 	bl	d5954 <_ZNSt10lock_guardI14RecursiveMutexED1Ev>
        if (activeHandlers_.size() == 1) {
            setSystemCallbacks();
        }
    }
    return true;
}
   d5d22:	4628      	mov	r0, r5
   d5d24:	b003      	add	sp, #12
   d5d26:	bd30      	pop	{r4, r5, pc}

000d5d28 <_ZN5spark6VectorI6StringNS_16DefaultAllocatorEE4moveIS1_Li0EEEvPS1_S5_S5_>:
        ::memmove(dest, p, (end - p) * sizeof(T));
    }

    template<PARTICLE_VECTOR_ENABLE_IF_NOT_TRIVIALLY_COPYABLE(T)>
    static void move(T* dest, T* p, T* end) {
        if (dest > p && dest < end) {
   d5d28:	4288      	cmp	r0, r1
    static void move(T* dest, const T* p, const T* end) {
        ::memmove(dest, p, (end - p) * sizeof(T));
    }

    template<PARTICLE_VECTOR_ENABLE_IF_NOT_TRIVIALLY_COPYABLE(T)>
    static void move(T* dest, T* p, T* end) {
   d5d2a:	b5f8      	push	{r3, r4, r5, r6, r7, lr}
   d5d2c:	4606      	mov	r6, r0
   d5d2e:	460c      	mov	r4, r1
   d5d30:	4615      	mov	r5, r2
        if (dest > p && dest < end) {
   d5d32:	d914      	bls.n	d5d5e <_ZN5spark6VectorI6StringNS_16DefaultAllocatorEE4moveIS1_Li0EEEvPS1_S5_S5_+0x36>
   d5d34:	4290      	cmp	r0, r2
   d5d36:	d213      	bcs.n	d5d60 <_ZN5spark6VectorI6StringNS_16DefaultAllocatorEE4moveIS1_Li0EEEvPS1_S5_S5_+0x38>
            // Move elements in reverse order
            --p;
            --end;
   d5d38:	f1a2 0510 	sub.w	r5, r2, #16
            dest += end - p - 1;
   d5d3c:	1a6c      	subs	r4, r5, r1
   d5d3e:	f1a1 0710 	sub.w	r7, r1, #16
   d5d42:	4404      	add	r4, r0
            for (; end != p; --end, --dest) {
   d5d44:	42af      	cmp	r7, r5
   d5d46:	d018      	beq.n	d5d7a <_ZN5spark6VectorI6StringNS_16DefaultAllocatorEE4moveIS1_Li0EEEvPS1_S5_S5_+0x52>
                new(dest) T(std::move(*end));
   d5d48:	b11c      	cbz	r4, d5d52 <_ZN5spark6VectorI6StringNS_16DefaultAllocatorEE4moveIS1_Li0EEEvPS1_S5_S5_+0x2a>
   d5d4a:	4629      	mov	r1, r5
   d5d4c:	4620      	mov	r0, r4
   d5d4e:	f000 fd76 	bl	d683e <_ZN6StringC1EOS_>
                end->~T();
   d5d52:	4628      	mov	r0, r5
   d5d54:	f000 fd83 	bl	d685e <_ZN6StringD1Ev>
        if (dest > p && dest < end) {
            // Move elements in reverse order
            --p;
            --end;
            dest += end - p - 1;
            for (; end != p; --end, --dest) {
   d5d58:	3d10      	subs	r5, #16
   d5d5a:	3c10      	subs	r4, #16
   d5d5c:	e7f2      	b.n	d5d44 <_ZN5spark6VectorI6StringNS_16DefaultAllocatorEE4moveIS1_Li0EEEvPS1_S5_S5_+0x1c>
                new(dest) T(std::move(*end));
                end->~T();
            }
        } else if (dest != p) {
   d5d5e:	d00c      	beq.n	d5d7a <_ZN5spark6VectorI6StringNS_16DefaultAllocatorEE4moveIS1_Li0EEEvPS1_S5_S5_+0x52>
            for (; p != end; ++p, ++dest) {
   d5d60:	42ac      	cmp	r4, r5
   d5d62:	d00a      	beq.n	d5d7a <_ZN5spark6VectorI6StringNS_16DefaultAllocatorEE4moveIS1_Li0EEEvPS1_S5_S5_+0x52>
                new(dest) T(std::move(*p));
   d5d64:	b11e      	cbz	r6, d5d6e <_ZN5spark6VectorI6StringNS_16DefaultAllocatorEE4moveIS1_Li0EEEvPS1_S5_S5_+0x46>
   d5d66:	4621      	mov	r1, r4
   d5d68:	4630      	mov	r0, r6
   d5d6a:	f000 fd68 	bl	d683e <_ZN6StringC1EOS_>
                p->~T();
   d5d6e:	4620      	mov	r0, r4
   d5d70:	f000 fd75 	bl	d685e <_ZN6StringD1Ev>
            for (; end != p; --end, --dest) {
                new(dest) T(std::move(*end));
                end->~T();
            }
        } else if (dest != p) {
            for (; p != end; ++p, ++dest) {
   d5d74:	3410      	adds	r4, #16
   d5d76:	3610      	adds	r6, #16
   d5d78:	e7f2      	b.n	d5d60 <_ZN5spark6VectorI6StringNS_16DefaultAllocatorEE4moveIS1_Li0EEEvPS1_S5_S5_+0x38>
   d5d7a:	bdf8      	pop	{r3, r4, r5, r6, r7, pc}

000d5d7c <_ZN5spark6VectorI6StringNS_16DefaultAllocatorEE7reallocIS1_Li0EEEbi>:
        capacity_ = n;
        return true;
    }

    template<PARTICLE_VECTOR_ENABLE_IF_NOT_TRIVIALLY_COPYABLE(T)>
    bool realloc(int n) {
   d5d7c:	b570      	push	{r4, r5, r6, lr}
        T* d = nullptr;
        if (n > 0) {
   d5d7e:	1e0e      	subs	r6, r1, #0
        capacity_ = n;
        return true;
    }

    template<PARTICLE_VECTOR_ENABLE_IF_NOT_TRIVIALLY_COPYABLE(T)>
    bool realloc(int n) {
   d5d80:	4605      	mov	r5, r0
        T* d = nullptr;
        if (n > 0) {
   d5d82:	dd0b      	ble.n	d5d9c <_ZN5spark6VectorI6StringNS_16DefaultAllocatorEE7reallocIS1_Li0EEEbi+0x20>

} // particle

// spark::DefaultAllocator
inline void* spark::DefaultAllocator::malloc(size_t size) {
    return ::malloc(size);
   d5d84:	0130      	lsls	r0, r6, #4
   d5d86:	f7fe fd4d 	bl	d4824 <malloc>
    template<PARTICLE_VECTOR_ENABLE_IF_NOT_TRIVIALLY_COPYABLE(T)>
    bool realloc(int n) {
        T* d = nullptr;
        if (n > 0) {
            d = (T*)AllocatorT::malloc(n * sizeof(T));
            if (!d) {
   d5d8a:	4604      	mov	r4, r0
   d5d8c:	b170      	cbz	r0, d5dac <_ZN5spark6VectorI6StringNS_16DefaultAllocatorEE7reallocIS1_Li0EEEbi+0x30>
                return false;
            }
            move(d, data_, data_ + size_);
   d5d8e:	e895 0006 	ldmia.w	r5, {r1, r2}
   d5d92:	eb01 1202 	add.w	r2, r1, r2, lsl #4
   d5d96:	f7ff ffc7 	bl	d5d28 <_ZN5spark6VectorI6StringNS_16DefaultAllocatorEE4moveIS1_Li0EEEvPS1_S5_S5_>
   d5d9a:	e000      	b.n	d5d9e <_ZN5spark6VectorI6StringNS_16DefaultAllocatorEE7reallocIS1_Li0EEEbi+0x22>
        return true;
    }

    template<PARTICLE_VECTOR_ENABLE_IF_NOT_TRIVIALLY_COPYABLE(T)>
    bool realloc(int n) {
        T* d = nullptr;
   d5d9c:	2400      	movs	r4, #0
inline void* spark::DefaultAllocator::realloc(void* ptr, size_t size) {
    return ::realloc(ptr, size);
}

inline void spark::DefaultAllocator::free(void* ptr) {
    ::free(ptr);
   d5d9e:	6828      	ldr	r0, [r5, #0]
   d5da0:	f7fe fd48 	bl	d4834 <free>
                return false;
            }
            move(d, data_, data_ + size_);
        }
        AllocatorT::free(data_);
        data_ = d;
   d5da4:	602c      	str	r4, [r5, #0]
        capacity_ = n;
   d5da6:	60ae      	str	r6, [r5, #8]
        return true;
   d5da8:	2001      	movs	r0, #1
   d5daa:	bd70      	pop	{r4, r5, r6, pc}
    }
   d5dac:	bd70      	pop	{r4, r5, r6, pc}

000d5dae <_ZN5spark6detail9LogFilterC1E8LogLevelNS_6VectorINS_17LogCategoryFilterENS_16DefaultAllocatorEEE>:

spark::detail::LogFilter::LogFilter(LogLevel level) :
        level_(level) {
}

spark::detail::LogFilter::LogFilter(LogLevel level, LogCategoryFilters filters) :
   d5dae:	e92d 4ff0 	stmdb	sp!, {r4, r5, r6, r7, r8, r9, sl, fp, lr}
// spark::Vector
template<typename T, typename AllocatorT>
inline spark::Vector<T, AllocatorT>::Vector() :
        data_(nullptr),
        size_(0),
        capacity_(0) {
   d5db2:	2300      	movs	r3, #0
   d5db4:	b095      	sub	sp, #84	; 0x54
   d5db6:	4692      	mov	sl, r2
        level_(LOG_LEVEL_NONE) { // Fallback level that will be used in case of construction errors
   d5db8:	2246      	movs	r2, #70	; 0x46
   d5dba:	6003      	str	r3, [r0, #0]
   d5dbc:	6043      	str	r3, [r0, #4]
   d5dbe:	6083      	str	r3, [r0, #8]
   d5dc0:	60c3      	str	r3, [r0, #12]
   d5dc2:	6103      	str	r3, [r0, #16]
   d5dc4:	6143      	str	r3, [r0, #20]
   d5dc6:	7602      	strb	r2, [r0, #24]

spark::detail::LogFilter::LogFilter(LogLevel level) :
        level_(level) {
}

spark::detail::LogFilter::LogFilter(LogLevel level, LogCategoryFilters filters) :
   d5dc8:	9102      	str	r1, [sp, #8]
   d5dca:	f8da 1004 	ldr.w	r1, [sl, #4]
   d5dce:	9308      	str	r3, [sp, #32]
    return size_ == 0;
}

template<typename T, typename AllocatorT>
inline bool spark::Vector<T, AllocatorT>::reserve(int n) {
    if (n > capacity_ && !realloc(n)) {
   d5dd0:	4299      	cmp	r1, r3
   d5dd2:	4605      	mov	r5, r0
// spark::Vector
template<typename T, typename AllocatorT>
inline spark::Vector<T, AllocatorT>::Vector() :
        data_(nullptr),
        size_(0),
        capacity_(0) {
   d5dd4:	9309      	str	r3, [sp, #36]	; 0x24
   d5dd6:	930a      	str	r3, [sp, #40]	; 0x28
    return size_ == 0;
}

template<typename T, typename AllocatorT>
inline bool spark::Vector<T, AllocatorT>::reserve(int n) {
    if (n > capacity_ && !realloc(n)) {
   d5dd8:	f340 809d 	ble.w	d5f16 <_ZN5spark6detail9LogFilterC1E8LogLevelNS_6VectorINS_17LogCategoryFilterENS_16DefaultAllocatorEEE+0x168>
   d5ddc:	a808      	add	r0, sp, #32
   d5dde:	f7ff ffcd 	bl	d5d7c <_ZN5spark6VectorI6StringNS_16DefaultAllocatorEE7reallocIS1_Li0EEEbi>
   d5de2:	2800      	cmp	r0, #0
   d5de4:	f040 8097 	bne.w	d5f16 <_ZN5spark6detail9LogFilterC1E8LogLevelNS_6VectorINS_17LogCategoryFilterENS_16DefaultAllocatorEEE+0x168>
   d5de8:	e08e      	b.n	d5f08 <_ZN5spark6detail9LogFilterC1E8LogLevelNS_6VectorINS_17LogCategoryFilterENS_16DefaultAllocatorEEE+0x15a>
    Vector<String> cats;
    if (!cats.reserve(filters.size())) {
        return;
    }
    for (LogCategoryFilter &filter: filters) {
        cats.append(std::move(filter.cat_));
   d5dea:	4621      	mov	r1, r4
   d5dec:	a80b      	add	r0, sp, #44	; 0x2c
   d5dee:	f000 fd26 	bl	d683e <_ZN6StringC1EOS_>
    AllocatorT::free(data_);
}

template<typename T, typename AllocatorT>
inline bool spark::Vector<T, AllocatorT>::append(T value) {
    return insert(size_, std::move(value));
   d5df2:	a90b      	add	r1, sp, #44	; 0x2c
   d5df4:	a80f      	add	r0, sp, #60	; 0x3c
   d5df6:	9e09      	ldr	r6, [sp, #36]	; 0x24
   d5df8:	f000 fd21 	bl	d683e <_ZN6StringC1EOS_>
    return insert(0, vector);
}

template<typename T, typename AllocatorT>
inline bool spark::Vector<T, AllocatorT>::insert(int i, T value) {
    if (size_ + 1 > capacity_ && !realloc(size_ + 1)) {
   d5dfc:	9909      	ldr	r1, [sp, #36]	; 0x24
   d5dfe:	9b0a      	ldr	r3, [sp, #40]	; 0x28
   d5e00:	4299      	cmp	r1, r3
   d5e02:	f2c0 80ce 	blt.w	d5fa2 <_ZN5spark6detail9LogFilterC1E8LogLevelNS_6VectorINS_17LogCategoryFilterENS_16DefaultAllocatorEEE+0x1f4>
   d5e06:	3101      	adds	r1, #1
   d5e08:	a808      	add	r0, sp, #32
   d5e0a:	f7ff ffb7 	bl	d5d7c <_ZN5spark6VectorI6StringNS_16DefaultAllocatorEE7reallocIS1_Li0EEEbi>
   d5e0e:	2800      	cmp	r0, #0
   d5e10:	f040 80c7 	bne.w	d5fa2 <_ZN5spark6detail9LogFilterC1E8LogLevelNS_6VectorINS_17LogCategoryFilterENS_16DefaultAllocatorEEE+0x1f4>
    AllocatorT::free(data_);
}

template<typename T, typename AllocatorT>
inline bool spark::Vector<T, AllocatorT>::append(T value) {
    return insert(size_, std::move(value));
   d5e14:	a80f      	add	r0, sp, #60	; 0x3c
   d5e16:	f000 fd22 	bl	d685e <_ZN6StringD1Ev>
   d5e1a:	a80b      	add	r0, sp, #44	; 0x2c
   d5e1c:	f000 fd1f 	bl	d685e <_ZN6StringD1Ev>
   d5e20:	3414      	adds	r4, #20
    // Store category names
    Vector<String> cats;
    if (!cats.reserve(filters.size())) {
        return;
    }
    for (LogCategoryFilter &filter: filters) {
   d5e22:	42a7      	cmp	r7, r4
   d5e24:	d1e1      	bne.n	d5dea <_ZN5spark6detail9LogFilterC1E8LogLevelNS_6VectorINS_17LogCategoryFilterENS_16DefaultAllocatorEEE+0x3c>
// spark::Vector
template<typename T, typename AllocatorT>
inline spark::Vector<T, AllocatorT>::Vector() :
        data_(nullptr),
        size_(0),
        capacity_(0) {
   d5e26:	2600      	movs	r6, #0
   d5e28:	960b      	str	r6, [sp, #44]	; 0x2c
   d5e2a:	960c      	str	r6, [sp, #48]	; 0x30
   d5e2c:	960d      	str	r6, [sp, #52]	; 0x34
        if (!category) {
            continue; // Invalid usage or string allocation error
        }
        Vector<Node> *pNodes = &nodes; // Root nodes
        const char *name = nullptr; // Subcategory name
        size_t size = 0; // Name length
   d5e2e:	46b1      	mov	r9, r6
    for (LogCategoryFilter &filter: filters) {
        cats.append(std::move(filter.cat_));
    }
    // Process category filters
    Vector<Node> nodes;
    for (int i = 0; i < cats.size(); ++i) {
   d5e30:	9b09      	ldr	r3, [sp, #36]	; 0x24
   d5e32:	429e      	cmp	r6, r3
   d5e34:	f280 80a8 	bge.w	d5f88 <_ZN5spark6detail9LogFilterC1E8LogLevelNS_6VectorINS_17LogCategoryFilterENS_16DefaultAllocatorEEE+0x1da>
   d5e38:	0133      	lsls	r3, r6, #4
   d5e3a:	9a08      	ldr	r2, [sp, #32]
   d5e3c:	58d3      	ldr	r3, [r2, r3]
        const char *category = cats.at(i).c_str();
   d5e3e:	9306      	str	r3, [sp, #24]
        if (!category) {
   d5e40:	2b00      	cmp	r3, #0
   d5e42:	f000 809f 	beq.w	d5f84 <_ZN5spark6detail9LogFilterC1E8LogLevelNS_6VectorINS_17LogCategoryFilterENS_16DefaultAllocatorEEE+0x1d6>
   d5e46:	2314      	movs	r3, #20
   d5e48:	4373      	muls	r3, r6
            continue; // Invalid usage or string allocation error
        }
        Vector<Node> *pNodes = &nodes; // Root nodes
        const char *name = nullptr; // Subcategory name
        size_t size = 0; // Name length
   d5e4a:	f8cd 901c 	str.w	r9, [sp, #28]
   d5e4e:	9301      	str	r3, [sp, #4]
    for (int i = 0; i < cats.size(); ++i) {
        const char *category = cats.at(i).c_str();
        if (!category) {
            continue; // Invalid usage or string allocation error
        }
        Vector<Node> *pNodes = &nodes; // Root nodes
   d5e50:	ac0b      	add	r4, sp, #44	; 0x2c
        const char *name = nullptr; // Subcategory name
        size_t size = 0; // Name length
        while ((name = nextSubcategoryName(category, size))) {
   d5e52:	a907      	add	r1, sp, #28
   d5e54:	a806      	add	r0, sp, #24
   d5e56:	f7ff fb2c 	bl	d54b2 <_ZN12_GLOBAL__N_119nextSubcategoryNameERPKcRj>
   d5e5a:	4607      	mov	r7, r0
   d5e5c:	2800      	cmp	r0, #0
   d5e5e:	f000 8091 	beq.w	d5f84 <_ZN5spark6detail9LogFilterC1E8LogLevelNS_6VectorINS_17LogCategoryFilterENS_16DefaultAllocatorEEE+0x1d6>
            bool found = false;
   d5e62:	ab14      	add	r3, sp, #80	; 0x50
            const int index = nodeIndex(*pNodes, name, size, found);
   d5e64:	4601      	mov	r1, r0
        }
        Vector<Node> *pNodes = &nodes; // Root nodes
        const char *name = nullptr; // Subcategory name
        size_t size = 0; // Name length
        while ((name = nextSubcategoryName(category, size))) {
            bool found = false;
   d5e66:	f803 9d39 	strb.w	r9, [r3, #-57]!
            const int index = nodeIndex(*pNodes, name, size, found);
   d5e6a:	9a07      	ldr	r2, [sp, #28]
   d5e6c:	4620      	mov	r0, r4
   d5e6e:	f7ff fb8d 	bl	d558c <_ZN5spark6detail9LogFilter9nodeIndexERKNS_6VectorINS1_4NodeENS_16DefaultAllocatorEEEPKcjRb>
            if (!found && !pNodes->insert(index, Node(name, size))) { // Add node
   d5e72:	f89d 8017 	ldrb.w	r8, [sp, #23]
        Vector<Node> *pNodes = &nodes; // Root nodes
        const char *name = nullptr; // Subcategory name
        size_t size = 0; // Name length
        while ((name = nextSubcategoryName(category, size))) {
            bool found = false;
            const int index = nodeIndex(*pNodes, name, size, found);
   d5e76:	9000      	str	r0, [sp, #0]
            if (!found && !pNodes->insert(index, Node(name, size))) { // Add node
   d5e78:	f1b8 0f00 	cmp.w	r8, #0
   d5e7c:	d153      	bne.n	d5f26 <_ZN5spark6detail9LogFilterC1E8LogLevelNS_6VectorINS_17LogCategoryFilterENS_16DefaultAllocatorEEE+0x178>
   d5e7e:	f8bd 301c 	ldrh.w	r3, [sp, #28]
    Vector<Node> nodes; // Children nodes

    Node(const char *name, uint16_t size) :
            name(name),
            size(size),
            level(-1) {
   d5e82:	f8ad 3040 	strh.w	r3, [sp, #64]	; 0x40
   d5e86:	f64f 73ff 	movw	r3, #65535	; 0xffff
   d5e8a:	970f      	str	r7, [sp, #60]	; 0x3c
   d5e8c:	f8ad 3042 	strh.w	r3, [sp, #66]	; 0x42
   d5e90:	f8cd 8044 	str.w	r8, [sp, #68]	; 0x44
   d5e94:	f8cd 8048 	str.w	r8, [sp, #72]	; 0x48
   d5e98:	f8cd 804c 	str.w	r8, [sp, #76]	; 0x4c
    return insert(0, vector);
}

template<typename T, typename AllocatorT>
inline bool spark::Vector<T, AllocatorT>::insert(int i, T value) {
    if (size_ + 1 > capacity_ && !realloc(size_ + 1)) {
   d5e9c:	6867      	ldr	r7, [r4, #4]
   d5e9e:	68a3      	ldr	r3, [r4, #8]
   d5ea0:	429f      	cmp	r7, r3
   d5ea2:	da4f      	bge.n	d5f44 <_ZN5spark6detail9LogFilterC1E8LogLevelNS_6VectorINS_17LogCategoryFilterENS_16DefaultAllocatorEEE+0x196>
        return false;
    }
    T* const p = data_ + i;
   d5ea4:	9b00      	ldr	r3, [sp, #0]
   d5ea6:	f8d4 b000 	ldr.w	fp, [r4]
    move(p + 1, p, data_ + size_);
   d5eaa:	6861      	ldr	r1, [r4, #4]
template<typename T, typename AllocatorT>
inline bool spark::Vector<T, AllocatorT>::insert(int i, T value) {
    if (size_ + 1 > capacity_ && !realloc(size_ + 1)) {
        return false;
    }
    T* const p = data_ + i;
   d5eac:	2214      	movs	r2, #20
   d5eae:	4353      	muls	r3, r2
   d5eb0:	eb0b 0703 	add.w	r7, fp, r3
    move(p + 1, p, data_ + size_);
   d5eb4:	fb02 b201 	mla	r2, r2, r1, fp
   d5eb8:	f107 0014 	add.w	r0, r7, #20
   d5ebc:	4639      	mov	r1, r7
template<typename T, typename AllocatorT>
inline bool spark::Vector<T, AllocatorT>::insert(int i, T value) {
    if (size_ + 1 > capacity_ && !realloc(size_ + 1)) {
        return false;
    }
    T* const p = data_ + i;
   d5ebe:	9303      	str	r3, [sp, #12]
    move(p + 1, p, data_ + size_);
   d5ec0:	f7ff fe94 	bl	d5bec <_ZN5spark6VectorINS_6detail9LogFilter4NodeENS_16DefaultAllocatorEE4moveIS3_Li0EEEvPS3_S7_S7_>
    new(p) T(std::move(value));
   d5ec4:	b1a7      	cbz	r7, d5ef0 <_ZN5spark6detail9LogFilterC1E8LogLevelNS_6VectorINS_17LogCategoryFilterENS_16DefaultAllocatorEEE+0x142>
    |
    `- aa (error) - b (warn)
*/

// spark::detail::LogFilter
struct spark::detail::LogFilter::Node {
   d5ec6:	9b03      	ldr	r3, [sp, #12]
   d5ec8:	9a0f      	ldr	r2, [sp, #60]	; 0x3c
   d5eca:	f84b 2003 	str.w	r2, [fp, r3]
   d5ece:	f8bd 3040 	ldrh.w	r3, [sp, #64]	; 0x40
   d5ed2:	80bb      	strh	r3, [r7, #4]
   d5ed4:	f9bd 3042 	ldrsh.w	r3, [sp, #66]	; 0x42
   d5ed8:	80fb      	strh	r3, [r7, #6]
// spark::Vector
template<typename T, typename AllocatorT>
inline spark::Vector<T, AllocatorT>::Vector() :
        data_(nullptr),
        size_(0),
        capacity_(0) {
   d5eda:	f8c7 9008 	str.w	r9, [r7, #8]
   d5ede:	f8c7 900c 	str.w	r9, [r7, #12]
   d5ee2:	f8c7 9010 	str.w	r9, [r7, #16]
    }
}

template<typename T, typename AllocatorT>
inline spark::Vector<T, AllocatorT>::Vector(Vector<T, AllocatorT>&& vector) : Vector() {
    swap(*this, vector);
   d5ee6:	a911      	add	r1, sp, #68	; 0x44
   d5ee8:	f107 0008 	add.w	r0, r7, #8
   d5eec:	f7ff fe67 	bl	d5bbe <_ZN5spark4swapINS_17LogCategoryFilterENS_16DefaultAllocatorEEEvRNS_6VectorIT_T0_EES7_>
        return false;
    }
    T* const p = data_ + i;
    move(p + 1, p, data_ + size_);
    new(p) T(std::move(value));
    ++size_;
   d5ef0:	6863      	ldr	r3, [r4, #4]
   d5ef2:	3301      	adds	r3, #1
   d5ef4:	6063      	str	r3, [r4, #4]
   d5ef6:	a811      	add	r0, sp, #68	; 0x44
   d5ef8:	f7ff fcd2 	bl	d58a0 <_ZN5spark6VectorINS_6detail9LogFilter4NodeENS_16DefaultAllocatorEED1Ev>
        const char *name = nullptr; // Subcategory name
        size_t size = 0; // Name length
        while ((name = nextSubcategoryName(category, size))) {
            bool found = false;
            const int index = nodeIndex(*pNodes, name, size, found);
            if (!found && !pNodes->insert(index, Node(name, size))) { // Add node
   d5efc:	f1b8 0f00 	cmp.w	r8, #0
   d5f00:	d011      	beq.n	d5f26 <_ZN5spark6detail9LogFilterC1E8LogLevelNS_6VectorINS_17LogCategoryFilterENS_16DefaultAllocatorEEE+0x178>
    }
    for (LogCategoryFilter &filter: filters) {
        cats.append(std::move(filter.cat_));
    }
    // Process category filters
    Vector<Node> nodes;
   d5f02:	a80b      	add	r0, sp, #44	; 0x2c
   d5f04:	f7ff fccc 	bl	d58a0 <_ZN5spark6VectorINS_6detail9LogFilter4NodeENS_16DefaultAllocatorEED1Ev>
   d5f08:	a808      	add	r0, sp, #32
   d5f0a:	f7ff fcdd 	bl	d58c8 <_ZN5spark6VectorI6StringNS_16DefaultAllocatorEED1Ev>
    }
    using std::swap;
    swap(cats_, cats);
    swap(nodes_, nodes);
    level_ = level;
}
   d5f0e:	4628      	mov	r0, r5
   d5f10:	b015      	add	sp, #84	; 0x54
   d5f12:	e8bd 8ff0 	ldmia.w	sp!, {r4, r5, r6, r7, r8, r9, sl, fp, pc}
   d5f16:	f8da 4000 	ldr.w	r4, [sl]
    return data_;
}

template<typename T, typename AllocatorT>
T* spark::Vector<T, AllocatorT>::end() {
    return data_ + size_;
   d5f1a:	f8da 3004 	ldr.w	r3, [sl, #4]
   d5f1e:	2714      	movs	r7, #20
   d5f20:	fb07 4703 	mla	r7, r7, r3, r4
   d5f24:	e77d      	b.n	d5e22 <_ZN5spark6detail9LogFilterC1E8LogLevelNS_6VectorINS_17LogCategoryFilterENS_16DefaultAllocatorEEE+0x74>
    return data_[size_ - 1];
}

template<typename T, typename AllocatorT>
inline T& spark::Vector<T, AllocatorT>::at(int i) {
    return data_[i];
   d5f26:	6823      	ldr	r3, [r4, #0]
   d5f28:	9a00      	ldr	r2, [sp, #0]
   d5f2a:	2414      	movs	r4, #20
   d5f2c:	fb04 3402 	mla	r4, r4, r2, r3
            const int index = nodeIndex(*pNodes, name, size, found);
            if (!found && !pNodes->insert(index, Node(name, size))) { // Add node
                return;
            }
            Node &node = pNodes->at(index);
            if (!*category) { // Check if it's last subcategory
   d5f30:	9b06      	ldr	r3, [sp, #24]
   d5f32:	781b      	ldrb	r3, [r3, #0]
   d5f34:	bb23      	cbnz	r3, d5f80 <_ZN5spark6detail9LogFilterC1E8LogLevelNS_6VectorINS_17LogCategoryFilterENS_16DefaultAllocatorEEE+0x1d2>
                node.level = filters.at(i).level_;
   d5f36:	f8da 3000 	ldr.w	r3, [sl]
   d5f3a:	9a01      	ldr	r2, [sp, #4]
   d5f3c:	4413      	add	r3, r2
   d5f3e:	7c1b      	ldrb	r3, [r3, #16]
   d5f40:	80e3      	strh	r3, [r4, #6]
   d5f42:	e01d      	b.n	d5f80 <_ZN5spark6detail9LogFilterC1E8LogLevelNS_6VectorINS_17LogCategoryFilterENS_16DefaultAllocatorEEE+0x1d2>
    return insert(0, vector);
}

template<typename T, typename AllocatorT>
inline bool spark::Vector<T, AllocatorT>::insert(int i, T value) {
    if (size_ + 1 > capacity_ && !realloc(size_ + 1)) {
   d5f44:	3701      	adds	r7, #1
    }

    template<PARTICLE_VECTOR_ENABLE_IF_NOT_TRIVIALLY_COPYABLE(T)>
    bool realloc(int n) {
        T* d = nullptr;
        if (n > 0) {
   d5f46:	2f00      	cmp	r7, #0
   d5f48:	dd0f      	ble.n	d5f6a <_ZN5spark6detail9LogFilterC1E8LogLevelNS_6VectorINS_17LogCategoryFilterENS_16DefaultAllocatorEEE+0x1bc>

} // particle

// spark::DefaultAllocator
inline void* spark::DefaultAllocator::malloc(size_t size) {
    return ::malloc(size);
   d5f4a:	2314      	movs	r3, #20
   d5f4c:	fb03 f007 	mul.w	r0, r3, r7
   d5f50:	9303      	str	r3, [sp, #12]
   d5f52:	f7fe fc67 	bl	d4824 <malloc>
    template<PARTICLE_VECTOR_ENABLE_IF_NOT_TRIVIALLY_COPYABLE(T)>
    bool realloc(int n) {
        T* d = nullptr;
        if (n > 0) {
            d = (T*)AllocatorT::malloc(n * sizeof(T));
            if (!d) {
   d5f56:	4683      	mov	fp, r0
   d5f58:	b178      	cbz	r0, d5f7a <_ZN5spark6detail9LogFilterC1E8LogLevelNS_6VectorINS_17LogCategoryFilterENS_16DefaultAllocatorEEE+0x1cc>
                return false;
            }
            move(d, data_, data_ + size_);
   d5f5a:	e894 0006 	ldmia.w	r4, {r1, r2}
   d5f5e:	9b03      	ldr	r3, [sp, #12]
   d5f60:	fb03 1202 	mla	r2, r3, r2, r1
   d5f64:	f7ff fe42 	bl	d5bec <_ZN5spark6VectorINS_6detail9LogFilter4NodeENS_16DefaultAllocatorEE4moveIS3_Li0EEEvPS3_S7_S7_>
   d5f68:	e000      	b.n	d5f6c <_ZN5spark6detail9LogFilterC1E8LogLevelNS_6VectorINS_17LogCategoryFilterENS_16DefaultAllocatorEEE+0x1be>
        return true;
    }

    template<PARTICLE_VECTOR_ENABLE_IF_NOT_TRIVIALLY_COPYABLE(T)>
    bool realloc(int n) {
        T* d = nullptr;
   d5f6a:	46c3      	mov	fp, r8
inline void* spark::DefaultAllocator::realloc(void* ptr, size_t size) {
    return ::realloc(ptr, size);
}

inline void spark::DefaultAllocator::free(void* ptr) {
    ::free(ptr);
   d5f6c:	6820      	ldr	r0, [r4, #0]
   d5f6e:	f7fe fc61 	bl	d4834 <free>
                return false;
            }
            move(d, data_, data_ + size_);
        }
        AllocatorT::free(data_);
        data_ = d;
   d5f72:	f8c4 b000 	str.w	fp, [r4]
        capacity_ = n;
   d5f76:	60a7      	str	r7, [r4, #8]
   d5f78:	e794      	b.n	d5ea4 <_ZN5spark6detail9LogFilterC1E8LogLevelNS_6VectorINS_17LogCategoryFilterENS_16DefaultAllocatorEEE+0xf6>
        const char *name = nullptr; // Subcategory name
        size_t size = 0; // Name length
        while ((name = nextSubcategoryName(category, size))) {
            bool found = false;
            const int index = nodeIndex(*pNodes, name, size, found);
            if (!found && !pNodes->insert(index, Node(name, size))) { // Add node
   d5f7a:	f04f 0801 	mov.w	r8, #1
   d5f7e:	e7ba      	b.n	d5ef6 <_ZN5spark6detail9LogFilterC1E8LogLevelNS_6VectorINS_17LogCategoryFilterENS_16DefaultAllocatorEEE+0x148>
            }
            Node &node = pNodes->at(index);
            if (!*category) { // Check if it's last subcategory
                node.level = filters.at(i).level_;
            }
            pNodes = &node.nodes;
   d5f80:	3408      	adds	r4, #8
            continue; // Invalid usage or string allocation error
        }
        Vector<Node> *pNodes = &nodes; // Root nodes
        const char *name = nullptr; // Subcategory name
        size_t size = 0; // Name length
        while ((name = nextSubcategoryName(category, size))) {
   d5f82:	e766      	b.n	d5e52 <_ZN5spark6detail9LogFilterC1E8LogLevelNS_6VectorINS_17LogCategoryFilterENS_16DefaultAllocatorEEE+0xa4>
    for (LogCategoryFilter &filter: filters) {
        cats.append(std::move(filter.cat_));
    }
    // Process category filters
    Vector<Node> nodes;
    for (int i = 0; i < cats.size(); ++i) {
   d5f84:	3601      	adds	r6, #1
   d5f86:	e753      	b.n	d5e30 <_ZN5spark6detail9LogFilterC1E8LogLevelNS_6VectorINS_17LogCategoryFilterENS_16DefaultAllocatorEEE+0x82>
            }
            pNodes = &node.nodes;
        }
    }
    using std::swap;
    swap(cats_, cats);
   d5f88:	a908      	add	r1, sp, #32
   d5f8a:	4628      	mov	r0, r5
   d5f8c:	f7ff fe17 	bl	d5bbe <_ZN5spark4swapINS_17LogCategoryFilterENS_16DefaultAllocatorEEEvRNS_6VectorIT_T0_EES7_>
    swap(nodes_, nodes);
   d5f90:	a90b      	add	r1, sp, #44	; 0x2c
   d5f92:	f105 000c 	add.w	r0, r5, #12
   d5f96:	f7ff fe12 	bl	d5bbe <_ZN5spark4swapINS_17LogCategoryFilterENS_16DefaultAllocatorEEEvRNS_6VectorIT_T0_EES7_>
    level_ = level;
   d5f9a:	f89d 3008 	ldrb.w	r3, [sp, #8]
   d5f9e:	762b      	strb	r3, [r5, #24]
   d5fa0:	e7af      	b.n	d5f02 <_ZN5spark6detail9LogFilterC1E8LogLevelNS_6VectorINS_17LogCategoryFilterENS_16DefaultAllocatorEEE+0x154>
template<typename T, typename AllocatorT>
inline bool spark::Vector<T, AllocatorT>::insert(int i, T value) {
    if (size_ + 1 > capacity_ && !realloc(size_ + 1)) {
        return false;
    }
    T* const p = data_ + i;
   d5fa2:	9b08      	ldr	r3, [sp, #32]
    move(p + 1, p, data_ + size_);
   d5fa4:	9a09      	ldr	r2, [sp, #36]	; 0x24
template<typename T, typename AllocatorT>
inline bool spark::Vector<T, AllocatorT>::insert(int i, T value) {
    if (size_ + 1 > capacity_ && !realloc(size_ + 1)) {
        return false;
    }
    T* const p = data_ + i;
   d5fa6:	eb03 1606 	add.w	r6, r3, r6, lsl #4
    move(p + 1, p, data_ + size_);
   d5faa:	eb03 1202 	add.w	r2, r3, r2, lsl #4
   d5fae:	4631      	mov	r1, r6
   d5fb0:	f106 0010 	add.w	r0, r6, #16
   d5fb4:	f7ff feb8 	bl	d5d28 <_ZN5spark6VectorI6StringNS_16DefaultAllocatorEE4moveIS1_Li0EEEvPS1_S5_S5_>
    new(p) T(std::move(value));
   d5fb8:	b11e      	cbz	r6, d5fc2 <_ZN5spark6detail9LogFilterC1E8LogLevelNS_6VectorINS_17LogCategoryFilterENS_16DefaultAllocatorEEE+0x214>
   d5fba:	a90f      	add	r1, sp, #60	; 0x3c
   d5fbc:	4630      	mov	r0, r6
   d5fbe:	f000 fc3e 	bl	d683e <_ZN6StringC1EOS_>
    ++size_;
   d5fc2:	9b09      	ldr	r3, [sp, #36]	; 0x24
   d5fc4:	3301      	adds	r3, #1
   d5fc6:	9309      	str	r3, [sp, #36]	; 0x24
   d5fc8:	e724      	b.n	d5e14 <_ZN5spark6detail9LogFilterC1E8LogLevelNS_6VectorINS_17LogCategoryFilterENS_16DefaultAllocatorEEE+0x66>
	...

000d5fcc <_ZN5spark10LogHandlerC1E8LogLevelNS_6VectorINS_17LogCategoryFilterENS_16DefaultAllocatorEEE>:
// spark::LogHandler
inline spark::LogHandler::LogHandler(LogLevel level) :
        filter_(level) {
}

inline spark::LogHandler::LogHandler(LogLevel level, LogCategoryFilters filters) :
   d5fcc:	b57f      	push	{r0, r1, r2, r3, r4, r5, r6, lr}
        filter_(level, filters) {
   d5fce:	4604      	mov	r4, r0
   d5fd0:	4b09      	ldr	r3, [pc, #36]	; (d5ff8 <_ZN5spark10LogHandlerC1E8LogLevelNS_6VectorINS_17LogCategoryFilterENS_16DefaultAllocatorEEE+0x2c>)
   d5fd2:	f844 3b04 	str.w	r3, [r4], #4
// spark::LogHandler
inline spark::LogHandler::LogHandler(LogLevel level) :
        filter_(level) {
}

inline spark::LogHandler::LogHandler(LogLevel level, LogCategoryFilters filters) :
   d5fd6:	4605      	mov	r5, r0
   d5fd8:	460e      	mov	r6, r1
        filter_(level, filters) {
   d5fda:	a801      	add	r0, sp, #4
   d5fdc:	4611      	mov	r1, r2
   d5fde:	f7fe f974 	bl	d42ca <_ZN5spark6VectorINS_17LogCategoryFilterENS_16DefaultAllocatorEEC1ERKS3_>
   d5fe2:	aa01      	add	r2, sp, #4
   d5fe4:	4631      	mov	r1, r6
   d5fe6:	4620      	mov	r0, r4
   d5fe8:	f7ff fee1 	bl	d5dae <_ZN5spark6detail9LogFilterC1E8LogLevelNS_6VectorINS_17LogCategoryFilterENS_16DefaultAllocatorEEE>
   d5fec:	a801      	add	r0, sp, #4
   d5fee:	f7fe f92b 	bl	d4248 <_ZN5spark6VectorINS_17LogCategoryFilterENS_16DefaultAllocatorEED1Ev>
}
   d5ff2:	4628      	mov	r0, r5
   d5ff4:	b004      	add	sp, #16
   d5ff6:	bd70      	pop	{r4, r5, r6, pc}
   d5ff8:	000d7cbc 	.word	0x000d7cbc

000d5ffc <_ZN5spark24DefaultLogHandlerFactory13createHandlerEPKc8LogLevelNS_6VectorINS_17LogCategoryFilterENS_16DefaultAllocatorEEEP5PrintRKNS_9JSONValueE>:

#if Wiring_LogConfig

// spark::DefaultLogHandlerFactory
LogHandler* spark::DefaultLogHandlerFactory::createHandler(const char *type, LogLevel level, LogCategoryFilters filters,
            Print *stream, const JSONValue &params) {
   d5ffc:	b5f0      	push	{r4, r5, r6, r7, lr}
   d5ffe:	460f      	mov	r7, r1
   d6000:	b08b      	sub	sp, #44	; 0x2c
    if (strcmp(type, "JSONStreamLogHandler") == 0) {
   d6002:	492b      	ldr	r1, [pc, #172]	; (d60b0 <_ZN5spark24DefaultLogHandlerFactory13createHandlerEPKc8LogLevelNS_6VectorINS_17LogCategoryFilterENS_16DefaultAllocatorEEEP5PrintRKNS_9JSONValueE+0xb4>)

#if Wiring_LogConfig

// spark::DefaultLogHandlerFactory
LogHandler* spark::DefaultLogHandlerFactory::createHandler(const char *type, LogLevel level, LogCategoryFilters filters,
            Print *stream, const JSONValue &params) {
   d6004:	9c10      	ldr	r4, [sp, #64]	; 0x40
    if (strcmp(type, "JSONStreamLogHandler") == 0) {
   d6006:	4638      	mov	r0, r7

#if Wiring_LogConfig

// spark::DefaultLogHandlerFactory
LogHandler* spark::DefaultLogHandlerFactory::createHandler(const char *type, LogLevel level, LogCategoryFilters filters,
            Print *stream, const JSONValue &params) {
   d6008:	4616      	mov	r6, r2
   d600a:	461d      	mov	r5, r3
    if (strcmp(type, "JSONStreamLogHandler") == 0) {
   d600c:	f001 fd5a 	bl	d7ac4 <strcmp>
   d6010:	bb28      	cbnz	r0, d605e <_ZN5spark24DefaultLogHandlerFactory13createHandlerEPKc8LogLevelNS_6VectorINS_17LogCategoryFilterENS_16DefaultAllocatorEEEP5PrintRKNS_9JSONValueE+0x62>
        if (!stream) {
   d6012:	2c00      	cmp	r4, #0
   d6014:	d049      	beq.n	d60aa <_ZN5spark24DefaultLogHandlerFactory13createHandlerEPKc8LogLevelNS_6VectorINS_17LogCategoryFilterENS_16DefaultAllocatorEEEP5PrintRKNS_9JSONValueE+0xae>
            return nullptr; // Output stream is not specified
        }
        return new(std::nothrow) JSONStreamLogHandler(*stream, level, std::move(filters));
   d6016:	4629      	mov	r1, r5
   d6018:	a801      	add	r0, sp, #4
   d601a:	f7ff fddd 	bl	d5bd8 <_ZN5spark6VectorINS_17LogCategoryFilterENS_16DefaultAllocatorEEC1EOS3_>
   d601e:	4925      	ldr	r1, [pc, #148]	; (d60b4 <_ZN5spark24DefaultLogHandlerFactory13createHandlerEPKc8LogLevelNS_6VectorINS_17LogCategoryFilterENS_16DefaultAllocatorEEEP5PrintRKNS_9JSONValueE+0xb8>)
   d6020:	2024      	movs	r0, #36	; 0x24
   d6022:	f000 ff5d 	bl	d6ee0 <_ZnwjRKSt9nothrow_t>
   d6026:	4605      	mov	r5, r0
   d6028:	b1b8      	cbz	r0, d605a <_ZN5spark24DefaultLogHandlerFactory13createHandlerEPKc8LogLevelNS_6VectorINS_17LogCategoryFilterENS_16DefaultAllocatorEEEP5PrintRKNS_9JSONValueE+0x5e>
    Print *stream_;
};

class JSONStreamLogHandler: public StreamLogHandler {
public:
    using StreamLogHandler::StreamLogHandler;
   d602a:	a901      	add	r1, sp, #4
   d602c:	a804      	add	r0, sp, #16
   d602e:	f7ff fdd3 	bl	d5bd8 <_ZN5spark6VectorINS_17LogCategoryFilterENS_16DefaultAllocatorEEC1EOS3_>
}

// spark::StreamLogHandler
inline spark::StreamLogHandler::StreamLogHandler(Print &stream, LogLevel level, LogCategoryFilters filters) :
        LogHandler(level, filters),
        stream_(&stream) {
   d6032:	a904      	add	r1, sp, #16
   d6034:	a807      	add	r0, sp, #28
   d6036:	f7fe f948 	bl	d42ca <_ZN5spark6VectorINS_17LogCategoryFilterENS_16DefaultAllocatorEEC1ERKS3_>
   d603a:	aa07      	add	r2, sp, #28
   d603c:	4631      	mov	r1, r6
   d603e:	4628      	mov	r0, r5
   d6040:	f7ff ffc4 	bl	d5fcc <_ZN5spark10LogHandlerC1E8LogLevelNS_6VectorINS_17LogCategoryFilterENS_16DefaultAllocatorEEE>
   d6044:	a807      	add	r0, sp, #28
   d6046:	f7fe f8ff 	bl	d4248 <_ZN5spark6VectorINS_17LogCategoryFilterENS_16DefaultAllocatorEED1Ev>
   d604a:	4b1b      	ldr	r3, [pc, #108]	; (d60b8 <_ZN5spark24DefaultLogHandlerFactory13createHandlerEPKc8LogLevelNS_6VectorINS_17LogCategoryFilterENS_16DefaultAllocatorEEEP5PrintRKNS_9JSONValueE+0xbc>)
   d604c:	602b      	str	r3, [r5, #0]
   d604e:	622c      	str	r4, [r5, #32]
    Print *stream_;
};

class JSONStreamLogHandler: public StreamLogHandler {
public:
    using StreamLogHandler::StreamLogHandler;
   d6050:	a804      	add	r0, sp, #16
   d6052:	f7fe f8f9 	bl	d4248 <_ZN5spark6VectorINS_17LogCategoryFilterENS_16DefaultAllocatorEED1Ev>
   d6056:	4b19      	ldr	r3, [pc, #100]	; (d60bc <_ZN5spark24DefaultLogHandlerFactory13createHandlerEPKc8LogLevelNS_6VectorINS_17LogCategoryFilterENS_16DefaultAllocatorEEEP5PrintRKNS_9JSONValueE+0xc0>)
   d6058:	602b      	str	r3, [r5, #0]
   d605a:	a801      	add	r0, sp, #4
   d605c:	e01f      	b.n	d609e <_ZN5spark24DefaultLogHandlerFactory13createHandlerEPKc8LogLevelNS_6VectorINS_17LogCategoryFilterENS_16DefaultAllocatorEEEP5PrintRKNS_9JSONValueE+0xa2>
    } else if (strcmp(type, "StreamLogHandler") == 0) {
   d605e:	4918      	ldr	r1, [pc, #96]	; (d60c0 <_ZN5spark24DefaultLogHandlerFactory13createHandlerEPKc8LogLevelNS_6VectorINS_17LogCategoryFilterENS_16DefaultAllocatorEEEP5PrintRKNS_9JSONValueE+0xc4>)
   d6060:	4638      	mov	r0, r7
   d6062:	f001 fd2f 	bl	d7ac4 <strcmp>
   d6066:	b9f0      	cbnz	r0, d60a6 <_ZN5spark24DefaultLogHandlerFactory13createHandlerEPKc8LogLevelNS_6VectorINS_17LogCategoryFilterENS_16DefaultAllocatorEEEP5PrintRKNS_9JSONValueE+0xaa>
        if (!stream) {
   d6068:	b1fc      	cbz	r4, d60aa <_ZN5spark24DefaultLogHandlerFactory13createHandlerEPKc8LogLevelNS_6VectorINS_17LogCategoryFilterENS_16DefaultAllocatorEEEP5PrintRKNS_9JSONValueE+0xae>
            return nullptr;
        }
        return new(std::nothrow) StreamLogHandler(*stream, level, std::move(filters));
   d606a:	4629      	mov	r1, r5
   d606c:	a804      	add	r0, sp, #16
   d606e:	f7ff fdb3 	bl	d5bd8 <_ZN5spark6VectorINS_17LogCategoryFilterENS_16DefaultAllocatorEEC1EOS3_>
   d6072:	4910      	ldr	r1, [pc, #64]	; (d60b4 <_ZN5spark24DefaultLogHandlerFactory13createHandlerEPKc8LogLevelNS_6VectorINS_17LogCategoryFilterENS_16DefaultAllocatorEEEP5PrintRKNS_9JSONValueE+0xb8>)
   d6074:	2024      	movs	r0, #36	; 0x24
   d6076:	f000 ff33 	bl	d6ee0 <_ZnwjRKSt9nothrow_t>
   d607a:	4605      	mov	r5, r0
   d607c:	b170      	cbz	r0, d609c <_ZN5spark24DefaultLogHandlerFactory13createHandlerEPKc8LogLevelNS_6VectorINS_17LogCategoryFilterENS_16DefaultAllocatorEEEP5PrintRKNS_9JSONValueE+0xa0>
}

// spark::StreamLogHandler
inline spark::StreamLogHandler::StreamLogHandler(Print &stream, LogLevel level, LogCategoryFilters filters) :
        LogHandler(level, filters),
        stream_(&stream) {
   d607e:	a904      	add	r1, sp, #16
   d6080:	a807      	add	r0, sp, #28
   d6082:	f7fe f922 	bl	d42ca <_ZN5spark6VectorINS_17LogCategoryFilterENS_16DefaultAllocatorEEC1ERKS3_>
   d6086:	aa07      	add	r2, sp, #28
   d6088:	4631      	mov	r1, r6
   d608a:	4628      	mov	r0, r5
   d608c:	f7ff ff9e 	bl	d5fcc <_ZN5spark10LogHandlerC1E8LogLevelNS_6VectorINS_17LogCategoryFilterENS_16DefaultAllocatorEEE>
   d6090:	a807      	add	r0, sp, #28
   d6092:	f7fe f8d9 	bl	d4248 <_ZN5spark6VectorINS_17LogCategoryFilterENS_16DefaultAllocatorEED1Ev>
   d6096:	4b08      	ldr	r3, [pc, #32]	; (d60b8 <_ZN5spark24DefaultLogHandlerFactory13createHandlerEPKc8LogLevelNS_6VectorINS_17LogCategoryFilterENS_16DefaultAllocatorEEEP5PrintRKNS_9JSONValueE+0xbc>)
   d6098:	602b      	str	r3, [r5, #0]
   d609a:	622c      	str	r4, [r5, #32]
   d609c:	a804      	add	r0, sp, #16
   d609e:	f7fe f8d3 	bl	d4248 <_ZN5spark6VectorINS_17LogCategoryFilterENS_16DefaultAllocatorEED1Ev>
   d60a2:	4628      	mov	r0, r5
   d60a4:	e002      	b.n	d60ac <_ZN5spark24DefaultLogHandlerFactory13createHandlerEPKc8LogLevelNS_6VectorINS_17LogCategoryFilterENS_16DefaultAllocatorEEEP5PrintRKNS_9JSONValueE+0xb0>
// spark::DefaultLogHandlerFactory
LogHandler* spark::DefaultLogHandlerFactory::createHandler(const char *type, LogLevel level, LogCategoryFilters filters,
            Print *stream, const JSONValue &params) {
    if (strcmp(type, "JSONStreamLogHandler") == 0) {
        if (!stream) {
            return nullptr; // Output stream is not specified
   d60a6:	2000      	movs	r0, #0
   d60a8:	e000      	b.n	d60ac <_ZN5spark24DefaultLogHandlerFactory13createHandlerEPKc8LogLevelNS_6VectorINS_17LogCategoryFilterENS_16DefaultAllocatorEEEP5PrintRKNS_9JSONValueE+0xb0>
   d60aa:	4620      	mov	r0, r4
            return nullptr;
        }
        return new(std::nothrow) StreamLogHandler(*stream, level, std::move(filters));
    }
    return nullptr; // Unknown handler type
}
   d60ac:	b00b      	add	sp, #44	; 0x2c
   d60ae:	bdf0      	pop	{r4, r5, r6, r7, pc}
   d60b0:	000d7e4a 	.word	0x000d7e4a
   d60b4:	000d8048 	.word	0x000d8048
   d60b8:	000d7ed0 	.word	0x000d7ed0
   d60bc:	000d7ddc 	.word	0x000d7ddc
   d60c0:	000d7e4e 	.word	0x000d7e4e

000d60c4 <_GLOBAL__sub_I__ZN5spark3LogE>:
    // This handler doesn't support direct logging
}

// spark::Logger
inline spark::Logger::Logger(const char *name) :
        name_(name) {
   d60c4:	4b01      	ldr	r3, [pc, #4]	; (d60cc <_GLOBAL__sub_I__ZN5spark3LogE+0x8>)
   d60c6:	4a02      	ldr	r2, [pc, #8]	; (d60d0 <_GLOBAL__sub_I__ZN5spark3LogE+0xc>)
   d60c8:	601a      	str	r2, [r3, #0]
   d60ca:	4770      	bx	lr
   d60cc:	2003e3d8 	.word	0x2003e3d8
   d60d0:	000d7e5f 	.word	0x000d7e5f

000d60d4 <_ZN5spark16StreamLogHandler10logMessageEPKc8LogLevelS2_RK13LogAttributes>:
                return cmp < 0;
            }));
}

// spark::StreamLogHandler
void spark::StreamLogHandler::logMessage(const char *msg, LogLevel level, const char *category, const LogAttributes &attr) {
   d60d4:	e92d 47f0 	stmdb	sp!, {r4, r5, r6, r7, r8, r9, sl, lr}
   d60d8:	9d08      	ldr	r5, [sp, #32]
    // TODO: Move this check to a base class (see also JSONStreamLogHandler::logMessage())
#if PLATFORM_ID != PLATFORM_GCC
    if (stream_ == &Serial && Network.listening()) {
   d60da:	f8d0 9020 	ldr.w	r9, [r0, #32]
                return cmp < 0;
            }));
}

// spark::StreamLogHandler
void spark::StreamLogHandler::logMessage(const char *msg, LogLevel level, const char *category, const LogAttributes &attr) {
   d60de:	4604      	mov	r4, r0
   d60e0:	460e      	mov	r6, r1
   d60e2:	4617      	mov	r7, r2
   d60e4:	4698      	mov	r8, r3
    // TODO: Move this check to a base class (see also JSONStreamLogHandler::logMessage())
#if PLATFORM_ID != PLATFORM_GCC
    if (stream_ == &Serial && Network.listening()) {
   d60e6:	f000 fd41 	bl	d6b6c <_Z16_fetch_usbserialv>
   d60ea:	4581      	cmp	r9, r0
   d60ec:	d105      	bne.n	d60fa <_ZN5spark16StreamLogHandler10logMessageEPKc8LogLevelS2_RK13LogAttributes+0x26>
   d60ee:	485a      	ldr	r0, [pc, #360]	; (d6258 <_ZN5spark16StreamLogHandler10logMessageEPKc8LogLevelS2_RK13LogAttributes+0x184>)
   d60f0:	f000 fa73 	bl	d65da <_ZN5spark12NetworkClass9listeningEv>
   d60f4:	2800      	cmp	r0, #0
   d60f6:	f040 80ac 	bne.w	d6252 <_ZN5spark16StreamLogHandler10logMessageEPKc8LogLevelS2_RK13LogAttributes+0x17e>
        return; // Do not mix logging and serial console output
    }
#endif
    const char *s = nullptr;
    // Timestamp
    if (attr.has_time) {
   d60fa:	792b      	ldrb	r3, [r5, #4]
   d60fc:	071b      	lsls	r3, r3, #28
   d60fe:	d505      	bpl.n	d610c <_ZN5spark16StreamLogHandler10logMessageEPKc8LogLevelS2_RK13LogAttributes+0x38>
    size_t println(const __FlashStringHelper*);

    template <typename... Args>
    inline size_t printf(const char* format, Args... args)
    {
        return this->printf_impl(false, format, args...);
   d6100:	696b      	ldr	r3, [r5, #20]
   d6102:	4a56      	ldr	r2, [pc, #344]	; (d625c <_ZN5spark16StreamLogHandler10logMessageEPKc8LogLevelS2_RK13LogAttributes+0x188>)
   d6104:	6a20      	ldr	r0, [r4, #32]
   d6106:	2100      	movs	r1, #0
   d6108:	f000 fb31 	bl	d676e <_ZN5Print11printf_implEbPKcz>
        printf("%010u ", (unsigned)attr.time);
    }
    // Category
    if (category) {
   d610c:	f1b8 0f00 	cmp.w	r8, #0
   d6110:	d00d      	beq.n	d612e <_ZN5spark16StreamLogHandler10logMessageEPKc8LogLevelS2_RK13LogAttributes+0x5a>
        write('[');
   d6112:	215b      	movs	r1, #91	; 0x5b
   d6114:	4620      	mov	r0, r4
   d6116:	f7ff fa2e 	bl	d5576 <_ZN5spark16StreamLogHandler5writeEc>
        write(category);
   d611a:	4641      	mov	r1, r8
   d611c:	4620      	mov	r0, r4
   d611e:	f7ff fa1c 	bl	d555a <_ZN5spark16StreamLogHandler5writeEPKc>
        write("] ", 2);
   d6122:	6823      	ldr	r3, [r4, #0]
   d6124:	494e      	ldr	r1, [pc, #312]	; (d6260 <_ZN5spark16StreamLogHandler10logMessageEPKc8LogLevelS2_RK13LogAttributes+0x18c>)
   d6126:	68db      	ldr	r3, [r3, #12]
   d6128:	2202      	movs	r2, #2
   d612a:	4620      	mov	r0, r4
   d612c:	4798      	blx	r3
    }
    // Source file
    if (attr.has_file) {
   d612e:	792b      	ldrb	r3, [r5, #4]
   d6130:	07d9      	lsls	r1, r3, #31
   d6132:	d525      	bpl.n	d6180 <_ZN5spark16StreamLogHandler10logMessageEPKc8LogLevelS2_RK13LogAttributes+0xac>
        s = extractFileName(attr.file); // Strip directory path
   d6134:	f8d5 8008 	ldr.w	r8, [r5, #8]
    }
    return nullptr;
}

const char* extractFileName(const char *s) {
    const char *s1 = strrchr(s, '/');
   d6138:	212f      	movs	r1, #47	; 0x2f
   d613a:	4640      	mov	r0, r8
   d613c:	f001 fd0c 	bl	d7b58 <strrchr>
    if (s1) {
   d6140:	b108      	cbz	r0, d6146 <_ZN5spark16StreamLogHandler10logMessageEPKc8LogLevelS2_RK13LogAttributes+0x72>
        return s1 + 1;
   d6142:	f100 0801 	add.w	r8, r0, #1
        write("] ", 2);
    }
    // Source file
    if (attr.has_file) {
        s = extractFileName(attr.file); // Strip directory path
        write(s); // File name
   d6146:	4641      	mov	r1, r8
   d6148:	4620      	mov	r0, r4
   d614a:	f7ff fa06 	bl	d555a <_ZN5spark16StreamLogHandler5writeEPKc>
        if (attr.has_line) {
   d614e:	792b      	ldrb	r3, [r5, #4]
   d6150:	079a      	lsls	r2, r3, #30
   d6152:	d509      	bpl.n	d6168 <_ZN5spark16StreamLogHandler10logMessageEPKc8LogLevelS2_RK13LogAttributes+0x94>
            write(':');
   d6154:	213a      	movs	r1, #58	; 0x3a
   d6156:	4620      	mov	r0, r4
   d6158:	f7ff fa0d 	bl	d5576 <_ZN5spark16StreamLogHandler5writeEc>
   d615c:	68eb      	ldr	r3, [r5, #12]
   d615e:	4a41      	ldr	r2, [pc, #260]	; (d6264 <_ZN5spark16StreamLogHandler10logMessageEPKc8LogLevelS2_RK13LogAttributes+0x190>)
   d6160:	6a20      	ldr	r0, [r4, #32]
   d6162:	2100      	movs	r1, #0
   d6164:	f000 fb03 	bl	d676e <_ZN5Print11printf_implEbPKcz>
            printf("%d", (int)attr.line); // Line number
        }
        if (attr.has_function) {
   d6168:	792b      	ldrb	r3, [r5, #4]
   d616a:	f013 0f04 	tst.w	r3, #4
   d616e:	6823      	ldr	r3, [r4, #0]
            write(", ", 2);
   d6170:	bf18      	it	ne
   d6172:	493d      	ldrne	r1, [pc, #244]	; (d6268 <_ZN5spark16StreamLogHandler10logMessageEPKc8LogLevelS2_RK13LogAttributes+0x194>)
   d6174:	68db      	ldr	r3, [r3, #12]
        } else {
            write(": ", 2);
   d6176:	bf08      	it	eq
   d6178:	493c      	ldreq	r1, [pc, #240]	; (d626c <_ZN5spark16StreamLogHandler10logMessageEPKc8LogLevelS2_RK13LogAttributes+0x198>)
        if (attr.has_line) {
            write(':');
            printf("%d", (int)attr.line); // Line number
        }
        if (attr.has_function) {
            write(", ", 2);
   d617a:	2202      	movs	r2, #2
        } else {
            write(": ", 2);
   d617c:	4620      	mov	r0, r4
   d617e:	4798      	blx	r3
        }
    }
    // Function name
    if (attr.has_function) {
   d6180:	792b      	ldrb	r3, [r5, #4]
   d6182:	075b      	lsls	r3, r3, #29
   d6184:	d518      	bpl.n	d61b8 <_ZN5spark16StreamLogHandler10logMessageEPKc8LogLevelS2_RK13LogAttributes+0xe4>
        size_t n = 0;
        s = extractFuncName(attr.function, &n); // Strip argument and return types
   d6186:	6929      	ldr	r1, [r5, #16]
   d6188:	460a      	mov	r2, r1
    return s;
}

const char* extractFuncName(const char *s, size_t *size) {
    const char *s1 = s;
    for (; *s; ++s) {
   d618a:	4613      	mov	r3, r2
   d618c:	f813 0b01 	ldrb.w	r0, [r3], #1
   d6190:	b138      	cbz	r0, d61a2 <_ZN5spark16StreamLogHandler10logMessageEPKc8LogLevelS2_RK13LogAttributes+0xce>
        if (*s == ' ') {
   d6192:	2820      	cmp	r0, #32
   d6194:	d101      	bne.n	d619a <_ZN5spark16StreamLogHandler10logMessageEPKc8LogLevelS2_RK13LogAttributes+0xc6>
            s1 = s + 1; // Skip return type
   d6196:	4619      	mov	r1, r3
   d6198:	e001      	b.n	d619e <_ZN5spark16StreamLogHandler10logMessageEPKc8LogLevelS2_RK13LogAttributes+0xca>
        } else if (*s == '(') {
   d619a:	2828      	cmp	r0, #40	; 0x28
   d619c:	d001      	beq.n	d61a2 <_ZN5spark16StreamLogHandler10logMessageEPKc8LogLevelS2_RK13LogAttributes+0xce>
                return cmp < 0;
            }));
}

// spark::StreamLogHandler
void spark::StreamLogHandler::logMessage(const char *msg, LogLevel level, const char *category, const LogAttributes &attr) {
   d619e:	461a      	mov	r2, r3
   d61a0:	e7f3      	b.n	d618a <_ZN5spark16StreamLogHandler10logMessageEPKc8LogLevelS2_RK13LogAttributes+0xb6>
    }
    // Function name
    if (attr.has_function) {
        size_t n = 0;
        s = extractFuncName(attr.function, &n); // Strip argument and return types
        write(s, n);
   d61a2:	6823      	ldr	r3, [r4, #0]
   d61a4:	1a52      	subs	r2, r2, r1
   d61a6:	68db      	ldr	r3, [r3, #12]
   d61a8:	4620      	mov	r0, r4
   d61aa:	4798      	blx	r3
        write("(): ", 4);
   d61ac:	6823      	ldr	r3, [r4, #0]
   d61ae:	4930      	ldr	r1, [pc, #192]	; (d6270 <_ZN5spark16StreamLogHandler10logMessageEPKc8LogLevelS2_RK13LogAttributes+0x19c>)
   d61b0:	68db      	ldr	r3, [r3, #12]
   d61b2:	2204      	movs	r2, #4
   d61b4:	4620      	mov	r0, r4
   d61b6:	4798      	blx	r3
inline LogLevel spark::LogHandler::level(const char *category) const {
    return filter_.level(category);
}

inline const char* spark::LogHandler::levelName(LogLevel level) {
    return log_level_name(level, nullptr);
   d61b8:	2100      	movs	r1, #0
   d61ba:	4638      	mov	r0, r7
   d61bc:	f7fe fa8e 	bl	d46dc <log_level_name>
    }
    // Level
    s = levelName(level);
    write(s);
   d61c0:	4601      	mov	r1, r0
   d61c2:	4620      	mov	r0, r4
   d61c4:	f7ff f9c9 	bl	d555a <_ZN5spark16StreamLogHandler5writeEPKc>
    write(": ", 2);
   d61c8:	6823      	ldr	r3, [r4, #0]
   d61ca:	4928      	ldr	r1, [pc, #160]	; (d626c <_ZN5spark16StreamLogHandler10logMessageEPKc8LogLevelS2_RK13LogAttributes+0x198>)
   d61cc:	68db      	ldr	r3, [r3, #12]
   d61ce:	2202      	movs	r2, #2
   d61d0:	4620      	mov	r0, r4
   d61d2:	4798      	blx	r3
    // Message
    if (msg) {
   d61d4:	b11e      	cbz	r6, d61de <_ZN5spark16StreamLogHandler10logMessageEPKc8LogLevelS2_RK13LogAttributes+0x10a>
        write(msg);
   d61d6:	4631      	mov	r1, r6
   d61d8:	4620      	mov	r0, r4
   d61da:	f7ff f9be 	bl	d555a <_ZN5spark16StreamLogHandler5writeEPKc>
    }
    // Additional attributes
    if (attr.has_code || attr.has_details) {
   d61de:	792b      	ldrb	r3, [r5, #4]
   d61e0:	f013 0f30 	tst.w	r3, #48	; 0x30
   d61e4:	d02d      	beq.n	d6242 <_ZN5spark16StreamLogHandler10logMessageEPKc8LogLevelS2_RK13LogAttributes+0x16e>
        write(" [", 2);
   d61e6:	6823      	ldr	r3, [r4, #0]
   d61e8:	4922      	ldr	r1, [pc, #136]	; (d6274 <_ZN5spark16StreamLogHandler10logMessageEPKc8LogLevelS2_RK13LogAttributes+0x1a0>)
   d61ea:	68db      	ldr	r3, [r3, #12]
   d61ec:	4620      	mov	r0, r4
   d61ee:	2202      	movs	r2, #2
   d61f0:	4798      	blx	r3
        // Code
        if (attr.has_code) {
   d61f2:	792b      	ldrb	r3, [r5, #4]
   d61f4:	06d8      	lsls	r0, r3, #27
   d61f6:	d50b      	bpl.n	d6210 <_ZN5spark16StreamLogHandler10logMessageEPKc8LogLevelS2_RK13LogAttributes+0x13c>
            write("code = ", 7);
   d61f8:	6823      	ldr	r3, [r4, #0]
   d61fa:	491f      	ldr	r1, [pc, #124]	; (d6278 <_ZN5spark16StreamLogHandler10logMessageEPKc8LogLevelS2_RK13LogAttributes+0x1a4>)
   d61fc:	68db      	ldr	r3, [r3, #12]
   d61fe:	2207      	movs	r2, #7
   d6200:	4620      	mov	r0, r4
   d6202:	4798      	blx	r3
   d6204:	69ab      	ldr	r3, [r5, #24]
   d6206:	4a1d      	ldr	r2, [pc, #116]	; (d627c <_ZN5spark16StreamLogHandler10logMessageEPKc8LogLevelS2_RK13LogAttributes+0x1a8>)
   d6208:	6a20      	ldr	r0, [r4, #32]
   d620a:	2100      	movs	r1, #0
   d620c:	f000 faaf 	bl	d676e <_ZN5Print11printf_implEbPKcz>
            printf("%" PRIiPTR, (intptr_t)attr.code);
        }
        // Details
        if (attr.has_details) {
   d6210:	792b      	ldrb	r3, [r5, #4]
   d6212:	0699      	lsls	r1, r3, #26
   d6214:	d511      	bpl.n	d623a <_ZN5spark16StreamLogHandler10logMessageEPKc8LogLevelS2_RK13LogAttributes+0x166>
            if (attr.has_code) {
   d6216:	06da      	lsls	r2, r3, #27
   d6218:	d505      	bpl.n	d6226 <_ZN5spark16StreamLogHandler10logMessageEPKc8LogLevelS2_RK13LogAttributes+0x152>
                write(", ", 2);
   d621a:	6823      	ldr	r3, [r4, #0]
   d621c:	4912      	ldr	r1, [pc, #72]	; (d6268 <_ZN5spark16StreamLogHandler10logMessageEPKc8LogLevelS2_RK13LogAttributes+0x194>)
   d621e:	68db      	ldr	r3, [r3, #12]
   d6220:	2202      	movs	r2, #2
   d6222:	4620      	mov	r0, r4
   d6224:	4798      	blx	r3
            }
            write("details = ", 10);
   d6226:	6823      	ldr	r3, [r4, #0]
   d6228:	4915      	ldr	r1, [pc, #84]	; (d6280 <_ZN5spark16StreamLogHandler10logMessageEPKc8LogLevelS2_RK13LogAttributes+0x1ac>)
   d622a:	68db      	ldr	r3, [r3, #12]
   d622c:	4620      	mov	r0, r4
   d622e:	220a      	movs	r2, #10
   d6230:	4798      	blx	r3
            write(attr.details);
   d6232:	69e9      	ldr	r1, [r5, #28]
   d6234:	4620      	mov	r0, r4
   d6236:	f7ff f990 	bl	d555a <_ZN5spark16StreamLogHandler5writeEPKc>
        }
        write(']');
   d623a:	215d      	movs	r1, #93	; 0x5d
   d623c:	4620      	mov	r0, r4
   d623e:	f7ff f99a 	bl	d5576 <_ZN5spark16StreamLogHandler5writeEc>
    }
    write("\r\n", 2);
   d6242:	6823      	ldr	r3, [r4, #0]
   d6244:	490f      	ldr	r1, [pc, #60]	; (d6284 <_ZN5spark16StreamLogHandler10logMessageEPKc8LogLevelS2_RK13LogAttributes+0x1b0>)
   d6246:	68db      	ldr	r3, [r3, #12]
   d6248:	4620      	mov	r0, r4
   d624a:	2202      	movs	r2, #2
}
   d624c:	e8bd 47f0 	ldmia.w	sp!, {r4, r5, r6, r7, r8, r9, sl, lr}
            write("details = ", 10);
            write(attr.details);
        }
        write(']');
    }
    write("\r\n", 2);
   d6250:	4718      	bx	r3
   d6252:	e8bd 87f0 	ldmia.w	sp!, {r4, r5, r6, r7, r8, r9, sl, pc}
   d6256:	bf00      	nop
   d6258:	2003e5b0 	.word	0x2003e5b0
   d625c:	000d7e63 	.word	0x000d7e63
   d6260:	000d7e6a 	.word	0x000d7e6a
   d6264:	000d7cfc 	.word	0x000d7cfc
   d6268:	000d7e6d 	.word	0x000d7e6d
   d626c:	000d7e72 	.word	0x000d7e72
   d6270:	000d7e70 	.word	0x000d7e70
   d6274:	000d7e75 	.word	0x000d7e75
   d6278:	000d7e78 	.word	0x000d7e78
   d627c:	000d7e80 	.word	0x000d7e80
   d6280:	000d7e83 	.word	0x000d7e83
   d6284:	000d7e8e 	.word	0x000d7e8e

000d6288 <_ZN5spark20JSONStreamLogHandler10logMessageEPKc8LogLevelS2_RK13LogAttributes>:
}

// spark::JSONStreamLogHandler
void spark::JSONStreamLogHandler::logMessage(const char *msg, LogLevel level, const char *category, const LogAttributes &attr) {
   d6288:	e92d 43f0 	stmdb	sp!, {r4, r5, r6, r7, r8, r9, lr}
   d628c:	b085      	sub	sp, #20
   d628e:	f8d0 8020 	ldr.w	r8, [r0, #32]
   d6292:	9c0c      	ldr	r4, [sp, #48]	; 0x30
   d6294:	4606      	mov	r6, r0
   d6296:	460f      	mov	r7, r1
   d6298:	4691      	mov	r9, r2
   d629a:	461d      	mov	r5, r3
    // TODO: Move this check to a base class (see also StreamLogHandler::logMessage())
#if PLATFORM_ID != PLATFORM_GCC
    if (this->stream() == &Serial && Network.listening()) {
   d629c:	f000 fc66 	bl	d6b6c <_Z16_fetch_usbserialv>
   d62a0:	4580      	cmp	r8, r0
   d62a2:	d105      	bne.n	d62b0 <_ZN5spark20JSONStreamLogHandler10logMessageEPKc8LogLevelS2_RK13LogAttributes+0x28>
   d62a4:	484a      	ldr	r0, [pc, #296]	; (d63d0 <_ZN5spark20JSONStreamLogHandler10logMessageEPKc8LogLevelS2_RK13LogAttributes+0x148>)
   d62a6:	f000 f998 	bl	d65da <_ZN5spark12NetworkClass9listeningEv>
   d62aa:	2800      	cmp	r0, #0
   d62ac:	f040 808c 	bne.w	d63c8 <_ZN5spark20JSONStreamLogHandler10logMessageEPKc8LogLevelS2_RK13LogAttributes+0x140>
   d62b0:	6a33      	ldr	r3, [r6, #32]
    write(&c, 1);
}

// spark::JSONStreamWriter
inline spark::JSONStreamWriter::JSONStreamWriter(Print &stream) :
        strm_(stream) {
   d62b2:	4a48      	ldr	r2, [pc, #288]	; (d63d4 <_ZN5spark20JSONStreamLogHandler10logMessageEPKc8LogLevelS2_RK13LogAttributes+0x14c>)
   d62b4:	9201      	str	r2, [sp, #4]
    return n_;
}

// spark::JSONWriter
inline spark::JSONWriter::JSONWriter() :
        state_(BEGIN) {
   d62b6:	f04f 0800 	mov.w	r8, #0
        return; // Do not mix logging and serial console output
    }
#endif
    JSONStreamWriter json(*this->stream());
    json.beginObject();
   d62ba:	a801      	add	r0, sp, #4
    write(&c, 1);
}

// spark::JSONStreamWriter
inline spark::JSONStreamWriter::JSONStreamWriter(Print &stream) :
        strm_(stream) {
   d62bc:	9303      	str	r3, [sp, #12]
    return n_;
}

// spark::JSONWriter
inline spark::JSONWriter::JSONWriter() :
        state_(BEGIN) {
   d62be:	f88d 8008 	strb.w	r8, [sp, #8]
   d62c2:	f7fe ffec 	bl	d529e <_ZN5spark10JSONWriter11beginObjectEv>
   d62c6:	4641      	mov	r1, r8
   d62c8:	4648      	mov	r0, r9
   d62ca:	f7fe fa07 	bl	d46dc <log_level_name>
    // Level
    const char *s = levelName(level);
    json.name("l", 1).value(s);
   d62ce:	4942      	ldr	r1, [pc, #264]	; (d63d8 <_ZN5spark20JSONStreamLogHandler10logMessageEPKc8LogLevelS2_RK13LogAttributes+0x150>)
   d62d0:	4680      	mov	r8, r0
   d62d2:	2201      	movs	r2, #1
   d62d4:	a801      	add	r0, sp, #4
   d62d6:	f7ff f867 	bl	d53a8 <_ZN5spark10JSONWriter4nameEPKcj>
   d62da:	4641      	mov	r1, r8
   d62dc:	f7ff f92d 	bl	d553a <_ZN5spark10JSONWriter5valueEPKc>
    // Message
    if (msg) {
   d62e0:	b13f      	cbz	r7, d62f2 <_ZN5spark20JSONStreamLogHandler10logMessageEPKc8LogLevelS2_RK13LogAttributes+0x6a>
        json.name("m", 1).value(msg);
   d62e2:	493e      	ldr	r1, [pc, #248]	; (d63dc <_ZN5spark20JSONStreamLogHandler10logMessageEPKc8LogLevelS2_RK13LogAttributes+0x154>)
   d62e4:	2201      	movs	r2, #1
   d62e6:	a801      	add	r0, sp, #4
   d62e8:	f7ff f85e 	bl	d53a8 <_ZN5spark10JSONWriter4nameEPKcj>
   d62ec:	4639      	mov	r1, r7
   d62ee:	f7ff f924 	bl	d553a <_ZN5spark10JSONWriter5valueEPKc>
    }
    // Category
    if (category) {
   d62f2:	b13d      	cbz	r5, d6304 <_ZN5spark20JSONStreamLogHandler10logMessageEPKc8LogLevelS2_RK13LogAttributes+0x7c>
        json.name("c", 1).value(category);
   d62f4:	493a      	ldr	r1, [pc, #232]	; (d63e0 <_ZN5spark20JSONStreamLogHandler10logMessageEPKc8LogLevelS2_RK13LogAttributes+0x158>)
   d62f6:	2201      	movs	r2, #1
   d62f8:	a801      	add	r0, sp, #4
   d62fa:	f7ff f855 	bl	d53a8 <_ZN5spark10JSONWriter4nameEPKcj>
   d62fe:	4629      	mov	r1, r5
   d6300:	f7ff f91b 	bl	d553a <_ZN5spark10JSONWriter5valueEPKc>
    }
    // File name
    if (attr.has_file) {
   d6304:	7923      	ldrb	r3, [r4, #4]
   d6306:	07df      	lsls	r7, r3, #31
   d6308:	d50e      	bpl.n	d6328 <_ZN5spark20JSONStreamLogHandler10logMessageEPKc8LogLevelS2_RK13LogAttributes+0xa0>
        s = extractFileName(attr.file); // Strip directory path
   d630a:	68a5      	ldr	r5, [r4, #8]
    }
    return nullptr;
}

const char* extractFileName(const char *s) {
    const char *s1 = strrchr(s, '/');
   d630c:	212f      	movs	r1, #47	; 0x2f
   d630e:	4628      	mov	r0, r5
   d6310:	f001 fc22 	bl	d7b58 <strrchr>
    if (s1) {
   d6314:	b100      	cbz	r0, d6318 <_ZN5spark20JSONStreamLogHandler10logMessageEPKc8LogLevelS2_RK13LogAttributes+0x90>
        return s1 + 1;
   d6316:	1c45      	adds	r5, r0, #1
        json.name("c", 1).value(category);
    }
    // File name
    if (attr.has_file) {
        s = extractFileName(attr.file); // Strip directory path
        json.name("f", 1).value(s);
   d6318:	4932      	ldr	r1, [pc, #200]	; (d63e4 <_ZN5spark20JSONStreamLogHandler10logMessageEPKc8LogLevelS2_RK13LogAttributes+0x15c>)
   d631a:	2201      	movs	r2, #1
   d631c:	a801      	add	r0, sp, #4
   d631e:	f7ff f843 	bl	d53a8 <_ZN5spark10JSONWriter4nameEPKcj>
   d6322:	4629      	mov	r1, r5
   d6324:	f7ff f909 	bl	d553a <_ZN5spark10JSONWriter5valueEPKc>
    }
    // Line number
    if (attr.has_line) {
   d6328:	7923      	ldrb	r3, [r4, #4]
   d632a:	079d      	lsls	r5, r3, #30
   d632c:	d507      	bpl.n	d633e <_ZN5spark20JSONStreamLogHandler10logMessageEPKc8LogLevelS2_RK13LogAttributes+0xb6>
        json.name("ln", 2).value(attr.line);
   d632e:	492e      	ldr	r1, [pc, #184]	; (d63e8 <_ZN5spark20JSONStreamLogHandler10logMessageEPKc8LogLevelS2_RK13LogAttributes+0x160>)
   d6330:	2202      	movs	r2, #2
   d6332:	a801      	add	r0, sp, #4
   d6334:	f7ff f838 	bl	d53a8 <_ZN5spark10JSONWriter4nameEPKcj>
   d6338:	68e1      	ldr	r1, [r4, #12]
   d633a:	f7fe ffbd 	bl	d52b8 <_ZN5spark10JSONWriter5valueEi>
    }
    // Function name
    if (attr.has_function) {
   d633e:	7923      	ldrb	r3, [r4, #4]
   d6340:	0758      	lsls	r0, r3, #29
   d6342:	d516      	bpl.n	d6372 <_ZN5spark20JSONStreamLogHandler10logMessageEPKc8LogLevelS2_RK13LogAttributes+0xea>
        size_t n = 0;
        s = extractFuncName(attr.function, &n); // Strip argument and return types
   d6344:	6925      	ldr	r5, [r4, #16]
   d6346:	462f      	mov	r7, r5
    return s;
}

const char* extractFuncName(const char *s, size_t *size) {
    const char *s1 = s;
    for (; *s; ++s) {
   d6348:	463b      	mov	r3, r7
   d634a:	f813 2b01 	ldrb.w	r2, [r3], #1
   d634e:	b13a      	cbz	r2, d6360 <_ZN5spark20JSONStreamLogHandler10logMessageEPKc8LogLevelS2_RK13LogAttributes+0xd8>
        if (*s == ' ') {
   d6350:	2a20      	cmp	r2, #32
   d6352:	d101      	bne.n	d6358 <_ZN5spark20JSONStreamLogHandler10logMessageEPKc8LogLevelS2_RK13LogAttributes+0xd0>
            s1 = s + 1; // Skip return type
   d6354:	461d      	mov	r5, r3
   d6356:	e001      	b.n	d635c <_ZN5spark20JSONStreamLogHandler10logMessageEPKc8LogLevelS2_RK13LogAttributes+0xd4>
        } else if (*s == '(') {
   d6358:	2a28      	cmp	r2, #40	; 0x28
   d635a:	d001      	beq.n	d6360 <_ZN5spark20JSONStreamLogHandler10logMessageEPKc8LogLevelS2_RK13LogAttributes+0xd8>
    }
    write("\r\n", 2);
}

// spark::JSONStreamLogHandler
void spark::JSONStreamLogHandler::logMessage(const char *msg, LogLevel level, const char *category, const LogAttributes &attr) {
   d635c:	461f      	mov	r7, r3
   d635e:	e7f3      	b.n	d6348 <_ZN5spark20JSONStreamLogHandler10logMessageEPKc8LogLevelS2_RK13LogAttributes+0xc0>
    }
    // Function name
    if (attr.has_function) {
        size_t n = 0;
        s = extractFuncName(attr.function, &n); // Strip argument and return types
        json.name("fn", 2).value(s, n);
   d6360:	2202      	movs	r2, #2
   d6362:	4922      	ldr	r1, [pc, #136]	; (d63ec <_ZN5spark20JSONStreamLogHandler10logMessageEPKc8LogLevelS2_RK13LogAttributes+0x164>)
   d6364:	a801      	add	r0, sp, #4
   d6366:	f7ff f81f 	bl	d53a8 <_ZN5spark10JSONWriter4nameEPKcj>
   d636a:	1b7a      	subs	r2, r7, r5
   d636c:	4629      	mov	r1, r5
   d636e:	f7ff f82a 	bl	d53c6 <_ZN5spark10JSONWriter5valueEPKcj>
    }
    // Timestamp
    if (attr.has_time) {
   d6372:	7923      	ldrb	r3, [r4, #4]
   d6374:	0719      	lsls	r1, r3, #28
   d6376:	d507      	bpl.n	d6388 <_ZN5spark20JSONStreamLogHandler10logMessageEPKc8LogLevelS2_RK13LogAttributes+0x100>
        json.name("t", 1).value((unsigned)attr.time);
   d6378:	491d      	ldr	r1, [pc, #116]	; (d63f0 <_ZN5spark20JSONStreamLogHandler10logMessageEPKc8LogLevelS2_RK13LogAttributes+0x168>)
   d637a:	2201      	movs	r2, #1
   d637c:	a801      	add	r0, sp, #4
   d637e:	f7ff f813 	bl	d53a8 <_ZN5spark10JSONWriter4nameEPKcj>
   d6382:	6961      	ldr	r1, [r4, #20]
   d6384:	f7fe ffaa 	bl	d52dc <_ZN5spark10JSONWriter5valueEj>
    }
    // Code (additional attribute)
    if (attr.has_code) {
   d6388:	7923      	ldrb	r3, [r4, #4]
   d638a:	06da      	lsls	r2, r3, #27
   d638c:	d508      	bpl.n	d63a0 <_ZN5spark20JSONStreamLogHandler10logMessageEPKc8LogLevelS2_RK13LogAttributes+0x118>
        json.name("code", 4).value((int)attr.code);
   d638e:	2204      	movs	r2, #4
   d6390:	4918      	ldr	r1, [pc, #96]	; (d63f4 <_ZN5spark20JSONStreamLogHandler10logMessageEPKc8LogLevelS2_RK13LogAttributes+0x16c>)
   d6392:	eb0d 0002 	add.w	r0, sp, r2
   d6396:	f7ff f807 	bl	d53a8 <_ZN5spark10JSONWriter4nameEPKcj>
   d639a:	69a1      	ldr	r1, [r4, #24]
   d639c:	f7fe ff8c 	bl	d52b8 <_ZN5spark10JSONWriter5valueEi>
    }
    // Details (additional attribute)
    if (attr.has_details) {
   d63a0:	7923      	ldrb	r3, [r4, #4]
   d63a2:	069b      	lsls	r3, r3, #26
   d63a4:	d507      	bpl.n	d63b6 <_ZN5spark20JSONStreamLogHandler10logMessageEPKc8LogLevelS2_RK13LogAttributes+0x12e>
        json.name("detail", 6).value(attr.details);
   d63a6:	4914      	ldr	r1, [pc, #80]	; (d63f8 <_ZN5spark20JSONStreamLogHandler10logMessageEPKc8LogLevelS2_RK13LogAttributes+0x170>)
   d63a8:	2206      	movs	r2, #6
   d63aa:	a801      	add	r0, sp, #4
   d63ac:	f7fe fffc 	bl	d53a8 <_ZN5spark10JSONWriter4nameEPKcj>
   d63b0:	69e1      	ldr	r1, [r4, #28]
   d63b2:	f7ff f8c2 	bl	d553a <_ZN5spark10JSONWriter5valueEPKc>
    }
    json.endObject();
   d63b6:	a801      	add	r0, sp, #4
   d63b8:	f7fe ff5b 	bl	d5272 <_ZN5spark10JSONWriter9endObjectEv>
   d63bc:	6a30      	ldr	r0, [r6, #32]
    this->stream()->write((const uint8_t*)"\r\n", 2);
   d63be:	490f      	ldr	r1, [pc, #60]	; (d63fc <_ZN5spark20JSONStreamLogHandler10logMessageEPKc8LogLevelS2_RK13LogAttributes+0x174>)
   d63c0:	6803      	ldr	r3, [r0, #0]
   d63c2:	2202      	movs	r2, #2
   d63c4:	68db      	ldr	r3, [r3, #12]
   d63c6:	4798      	blx	r3
}
   d63c8:	b005      	add	sp, #20
   d63ca:	e8bd 83f0 	ldmia.w	sp!, {r4, r5, r6, r7, r8, r9, pc}
   d63ce:	bf00      	nop
   d63d0:	2003e5b0 	.word	0x2003e5b0
   d63d4:	000d7dc4 	.word	0x000d7dc4
   d63d8:	000d7df6 	.word	0x000d7df6
   d63dc:	000d7e09 	.word	0x000d7e09
   d63e0:	000d7ec2 	.word	0x000d7ec2
   d63e4:	000d7daa 	.word	0x000d7daa
   d63e8:	000d7e91 	.word	0x000d7e91
   d63ec:	000d7e94 	.word	0x000d7e94
   d63f0:	000d7e1e 	.word	0x000d7e1e
   d63f4:	000d7e97 	.word	0x000d7e97
   d63f8:	000d7e9c 	.word	0x000d7e9c
   d63fc:	000d7e8e 	.word	0x000d7e8e

000d6400 <_ZN5spark9MeshClass9listeningEv>:
    uint16_t getListenTimeout(void) {
        return network_get_listen_timeout(*this, 0, NULL);
    }

    bool listening(void) {
        return network_listening(*this, 0, NULL);
   d6400:	2200      	movs	r2, #0
   d6402:	4611      	mov	r1, r2
   d6404:	6840      	ldr	r0, [r0, #4]
   d6406:	f7fe b9f5 	b.w	d47f4 <network_listening>

000d640a <_ZN5spark9MeshClass16getListenTimeoutEv>:
    void setListenTimeout(uint16_t timeout) {
        network_set_listen_timeout(*this, timeout, NULL);
    }

    uint16_t getListenTimeout(void) {
        return network_get_listen_timeout(*this, 0, NULL);
   d640a:	2200      	movs	r2, #0
   d640c:	4611      	mov	r1, r2
   d640e:	6840      	ldr	r0, [r0, #4]
   d6410:	f7fe ba00 	b.w	d4814 <network_get_listen_timeout>

000d6414 <_ZN5spark9MeshClass16setListenTimeoutEt>:
    void listen(bool begin=true) {
        network_listen(*this, begin ? 0 : 1, NULL);
    }

    void setListenTimeout(uint16_t timeout) {
        network_set_listen_timeout(*this, timeout, NULL);
   d6414:	2200      	movs	r2, #0
   d6416:	6840      	ldr	r0, [r0, #4]
   d6418:	f7fe b9f4 	b.w	d4804 <network_set_listen_timeout>

000d641c <_ZN5spark9MeshClass6listenEb>:
    void disconnect() {
        network_disconnect(*this, NETWORK_DISCONNECT_REASON_USER, NULL);
    }

    void listen(bool begin=true) {
        network_listen(*this, begin ? 0 : 1, NULL);
   d641c:	2200      	movs	r2, #0
   d641e:	f081 0101 	eor.w	r1, r1, #1
   d6422:	6840      	ldr	r0, [r0, #4]
   d6424:	f7fe b9de 	b.w	d47e4 <network_listen>

000d6428 <_ZN5spark9MeshClass3offEv>:
    void on() {
        network_on(*this, 0, 0, NULL);
    }

    void off() {
        network_off(*this, 1, 0, NULL);
   d6428:	2300      	movs	r3, #0
   d642a:	461a      	mov	r2, r3
   d642c:	2101      	movs	r1, #1
   d642e:	6840      	ldr	r0, [r0, #4]
   d6430:	f7fe b9d0 	b.w	d47d4 <network_off>

000d6434 <_ZN5spark9MeshClass2onEv>:
    MeshClass() :
            NetworkClass(NETWORK_INTERFACE_MESH) {
    }

    void on() {
        network_on(*this, 0, 0, NULL);
   d6434:	2300      	movs	r3, #0
   d6436:	461a      	mov	r2, r3
   d6438:	4619      	mov	r1, r3
   d643a:	6840      	ldr	r0, [r0, #4]
   d643c:	f7fe b9c2 	b.w	d47c4 <network_on>

000d6440 <_ZN5spark9MeshClass5readyEv>:
    bool listening(void) {
        return network_listening(*this, 0, NULL);
    }

    bool ready() {
        return network_ready(*this, 0,  NULL);
   d6440:	2200      	movs	r2, #0
   d6442:	4611      	mov	r1, r2
   d6444:	6840      	ldr	r0, [r0, #4]
   d6446:	f7fe b9b5 	b.w	d47b4 <network_ready>

000d644a <_ZN5spark9MeshClass10connectingEv>:
    void connect(unsigned flags=0) {
        network_connect(*this, flags, 0, NULL);
    }

    bool connecting(void) {
        return network_connecting(*this, 0, NULL);
   d644a:	2200      	movs	r2, #0
   d644c:	4611      	mov	r1, r2
   d644e:	6840      	ldr	r0, [r0, #4]
   d6450:	f7fe b9a0 	b.w	d4794 <network_connecting>

000d6454 <_ZN5spark9MeshClass10disconnectEv>:
    }

    void disconnect() {
        network_disconnect(*this, NETWORK_DISCONNECT_REASON_USER, NULL);
   d6454:	2200      	movs	r2, #0
   d6456:	2102      	movs	r1, #2
   d6458:	6840      	ldr	r0, [r0, #4]
   d645a:	f7fe b9a3 	b.w	d47a4 <network_disconnect>

000d645e <_ZN5spark9MeshClass7connectEj>:
    void off() {
        network_off(*this, 1, 0, NULL);
    }

    void connect(unsigned flags=0) {
        network_connect(*this, flags, 0, NULL);
   d645e:	2300      	movs	r3, #0
   d6460:	461a      	mov	r2, r3
   d6462:	6840      	ldr	r0, [r0, #4]
   d6464:	f7fe b98e 	b.w	d4784 <network_connect>

000d6468 <_ZNKSt14default_deleteIN6Thread4DataEEclEPS1_.isra.6>:
	       enable_if<is_convertible<_Up*, _Tp*>::value>::type>
        default_delete(const default_delete<_Up>&) noexcept { }

      /// Calls @c delete @p __ptr
      void
      operator()(_Tp* __ptr) const
   d6468:	b538      	push	{r3, r4, r5, lr}
      {
	static_assert(!is_void<_Tp>::value,
		      "can't delete pointer to incomplete type");
	static_assert(sizeof(_Tp)>0,
		      "can't delete pointer to incomplete type");
	delete __ptr;
   d646a:	4605      	mov	r5, r0
   d646c:	b188      	cbz	r0, d6492 <_ZNKSt14default_deleteIN6Thread4DataEEclEPS1_.isra.6+0x2a>

      /// Destructor, invokes the deleter if the stored pointer is not null.
      ~unique_ptr() noexcept
      {
	auto& __ptr = std::get<0>(_M_t);
	if (__ptr != nullptr)
   d646e:	6804      	ldr	r4, [r0, #0]
   d6470:	b14c      	cbz	r4, d6486 <_ZNKSt14default_deleteIN6Thread4DataEEclEPS1_.isra.6+0x1e>

    _Function_base() : _M_manager(nullptr) { }

    ~_Function_base()
    {
      if (_M_manager)
   d6472:	68a3      	ldr	r3, [r4, #8]
   d6474:	b11b      	cbz	r3, d647e <_ZNKSt14default_deleteIN6Thread4DataEEclEPS1_.isra.6+0x16>
	_M_manager(_M_functor, _M_functor, __destroy_functor);
   d6476:	2203      	movs	r2, #3
   d6478:	4621      	mov	r1, r4
   d647a:	4620      	mov	r0, r4
   d647c:	4798      	blx	r3
      {
	static_assert(!is_void<_Tp>::value,
		      "can't delete pointer to incomplete type");
	static_assert(sizeof(_Tp)>0,
		      "can't delete pointer to incomplete type");
	delete __ptr;
   d647e:	2110      	movs	r1, #16
   d6480:	4620      	mov	r0, r4
   d6482:	f000 fd22 	bl	d6eca <_ZdlPvj>
   d6486:	4628      	mov	r0, r5
   d6488:	2114      	movs	r1, #20
      }
   d648a:	e8bd 4038 	ldmia.w	sp!, {r3, r4, r5, lr}
      {
	static_assert(!is_void<_Tp>::value,
		      "can't delete pointer to incomplete type");
	static_assert(sizeof(_Tp)>0,
		      "can't delete pointer to incomplete type");
	delete __ptr;
   d648e:	f000 bd1c 	b.w	d6eca <_ZdlPvj>
   d6492:	bd38      	pop	{r3, r4, r5, pc}

000d6494 <_ZNKSt14default_deleteI3UDPEclEPS0_.isra.8.constprop.13>:
   d6494:	b110      	cbz	r0, d649c <_ZNKSt14default_deleteI3UDPEclEPS0_.isra.8.constprop.13+0x8>
   d6496:	6803      	ldr	r3, [r0, #0]
   d6498:	685b      	ldr	r3, [r3, #4]
   d649a:	4718      	bx	r3
   d649c:	4770      	bx	lr

000d649e <_ZN6ThreadD1Ev>:
    Thread(Thread&& thread)
        : d_(std::move(thread.d_))
    {
    }

    ~Thread()
   d649e:	b510      	push	{r4, lr}
      }

      /// Return the stored pointer.
      pointer
      get() const noexcept
      { return std::get<0>(_M_t); }
   d64a0:	6803      	ldr	r3, [r0, #0]
   d64a2:	4604      	mov	r4, r0
        dispose();
    }

    void dispose()
    {
        if (!isValid())
   d64a4:	b1bb      	cbz	r3, d64d6 <_ZN6ThreadD1Ev+0x38>
        return isCurrent();
    }

    bool isCurrent() const
    {
        return isValid() && os_thread_is_current(d_->handle);
   d64a6:	6858      	ldr	r0, [r3, #4]
   d64a8:	f7fd ff98 	bl	d43dc <os_thread_is_current>
   d64ac:	b978      	cbnz	r0, d64ce <_ZN6ThreadD1Ev+0x30>
   d64ae:	6823      	ldr	r3, [r4, #0]

        // We shouldn't dispose of current thread
        if (isCurrent())
            return;

        if (!d_->exited) {
   d64b0:	7c5a      	ldrb	r2, [r3, #17]
   d64b2:	b912      	cbnz	r2, d64ba <_ZN6ThreadD1Ev+0x1c>
        d_.reset();
    }

    bool join()
    {
        return isValid() && os_thread_join(d_->handle)==0;
   d64b4:	6858      	ldr	r0, [r3, #4]
   d64b6:	f7fd ff99 	bl	d43ec <os_thread_join>

        if (!d_->exited) {
            join();
        }

        os_thread_cleanup(d_->handle);
   d64ba:	6823      	ldr	r3, [r4, #0]
   d64bc:	6858      	ldr	r0, [r3, #4]
   d64be:	f7fd ff9d 	bl	d43fc <os_thread_cleanup>
#endif
    {
      // concept requirements
      __glibcxx_function_requires(_SGIAssignableConcept<_Tp>)

      _Tp __tmp = _GLIBCXX_MOVE(__a);
   d64c2:	6820      	ldr	r0, [r4, #0]
      __a = _GLIBCXX_MOVE(__b);
   d64c4:	2300      	movs	r3, #0
   d64c6:	6023      	str	r3, [r4, #0]
      void
      reset(pointer __p = pointer()) noexcept
      {
	using std::swap;
	swap(std::get<0>(_M_t), __p);
	if (__p != pointer())
   d64c8:	b128      	cbz	r0, d64d6 <_ZN6ThreadD1Ev+0x38>
	  get_deleter()(__p);
   d64ca:	f7ff ffcd 	bl	d6468 <_ZNKSt14default_deleteIN6Thread4DataEEclEPS1_.isra.6>

      /// Destructor, invokes the deleter if the stored pointer is not null.
      ~unique_ptr() noexcept
      {
	auto& __ptr = std::get<0>(_M_t);
	if (__ptr != nullptr)
   d64ce:	6820      	ldr	r0, [r4, #0]
   d64d0:	b108      	cbz	r0, d64d6 <_ZN6ThreadD1Ev+0x38>
	  get_deleter()(__ptr);
   d64d2:	f7ff ffc9 	bl	d6468 <_ZNKSt14default_deleteIN6Thread4DataEEclEPS1_.isra.6>
    }

    ~Thread()
    {
        dispose();
    }
   d64d6:	4620      	mov	r0, r4
   d64d8:	bd10      	pop	{r4, pc}

000d64da <_ZN5spark11MeshPublishD1Ev>:
    virtual float getQualityValue() const {
        return 0.0f;
    }
};

class MeshPublish {
   d64da:	b538      	push	{r3, r4, r5, lr}
   d64dc:	4604      	mov	r4, r0

      /// Destructor, invokes the deleter if the stored pointer is not null.
      ~unique_ptr()
      {
	auto& __ptr = std::get<0>(_M_t);
	if (__ptr != nullptr)
   d64de:	f8d0 01c4 	ldr.w	r0, [r0, #452]	; 0x1c4
   d64e2:	b108      	cbz	r0, d64e8 <_ZN5spark11MeshPublishD1Ev+0xe>
      void
      operator()(_Tp* __ptr) const
      {
	static_assert(sizeof(_Tp)>0,
		      "can't delete pointer to incomplete type");
	delete [] __ptr;
   d64e4:	f7fd fddd 	bl	d40a2 <_ZdaPv>
        dispose();
    }

    void dispose()
    {
        if (handle_) {
   d64e8:	f8d4 01c0 	ldr.w	r0, [r4, #448]	; 0x1c0
   d64ec:	b108      	cbz	r0, d64f2 <_ZN5spark11MeshPublishD1Ev+0x18>
            os_mutex_recursive_destroy(handle_);
   d64ee:	f7fd ff95 	bl	d441c <os_mutex_recursive_destroy>

      /// Destructor, invokes the deleter if the stored pointer is not null.
      ~unique_ptr() noexcept
      {
	auto& __ptr = std::get<0>(_M_t);
	if (__ptr != nullptr)
   d64f2:	f8d4 51bc 	ldr.w	r5, [r4, #444]	; 0x1bc
   d64f6:	b135      	cbz	r5, d6506 <_ZN5spark11MeshPublishD1Ev+0x2c>
      {
	static_assert(!is_void<_Tp>::value,
		      "can't delete pointer to incomplete type");
	static_assert(sizeof(_Tp)>0,
		      "can't delete pointer to incomplete type");
	delete __ptr;
   d64f8:	4628      	mov	r0, r5
   d64fa:	f7ff ffd0 	bl	d649e <_ZN6ThreadD1Ev>
   d64fe:	2104      	movs	r1, #4
   d6500:	4628      	mov	r0, r5
   d6502:	f000 fce2 	bl	d6eca <_ZdlPvj>

      /// Destructor, invokes the deleter if the stored pointer is not null.
      ~unique_ptr() noexcept
      {
	auto& __ptr = std::get<0>(_M_t);
	if (__ptr != nullptr)
   d6506:	6820      	ldr	r0, [r4, #0]
   d6508:	b108      	cbz	r0, d650e <_ZN5spark11MeshPublishD1Ev+0x34>
	  get_deleter()(__ptr);
   d650a:	f7ff ffc3 	bl	d6494 <_ZNKSt14default_deleteI3UDPEclEPS0_.isra.8.constprop.13>
   d650e:	4620      	mov	r0, r4
   d6510:	bd38      	pop	{r3, r4, r5, pc}
	...

000d6514 <_ZN5spark9MeshClassD1Ev>:
    RecursiveMutex mutex_;
    std::unique_ptr<uint8_t[]> buffer_;
    std::atomic_bool exit_;
};

class MeshClass : public NetworkClass, public MeshPublish {
   d6514:	b510      	push	{r4, lr}
   d6516:	4b04      	ldr	r3, [pc, #16]	; (d6528 <_ZN5spark9MeshClassD1Ev+0x14>)
   d6518:	4604      	mov	r4, r0
   d651a:	f840 3b08 	str.w	r3, [r0], #8
   d651e:	f7ff ffdc 	bl	d64da <_ZN5spark11MeshPublishD1Ev>
   d6522:	4620      	mov	r0, r4
   d6524:	bd10      	pop	{r4, pc}
   d6526:	bf00      	nop
   d6528:	000d7f18 	.word	0x000d7f18

000d652c <_GLOBAL__sub_I__ZN5spark11MeshPublish13Subscriptions20event_handler_existsEPKcPFvS3_S3_EPvN17SubscriptionScope4EnumES3_>:

    return addr;
}

MeshClass Mesh;
} // namespace spark
   d652c:	b538      	push	{r3, r4, r5, lr}
   d652e:	4c0e      	ldr	r4, [pc, #56]	; (d6568 <_GLOBAL__sub_I__ZN5spark11MeshPublish13Subscriptions20event_handler_existsEPKcPFvS3_S3_EPvN17SubscriptionScope4EnumES3_+0x3c>)
   d6530:	4b0e      	ldr	r3, [pc, #56]	; (d656c <_GLOBAL__sub_I__ZN5spark11MeshPublish13Subscriptions20event_handler_existsEPKcPFvS3_S3_EPvN17SubscriptionScope4EnumES3_+0x40>)
   d6532:	6023      	str	r3, [r4, #0]

  template<std::size_t _Idx, typename _Head>
    struct _Head_base<_Idx, _Head, false>
    {
      constexpr _Head_base()
      : _M_head_impl() { }
   d6534:	2500      	movs	r5, #0
   d6536:	2302      	movs	r3, #2
     */
    RecursiveMutex(os_mutex_recursive_t handle) : handle_(handle) {}

    RecursiveMutex() : handle_(nullptr)
    {
        os_mutex_recursive_create(&handle_);
   d6538:	f504 70e4 	add.w	r0, r4, #456	; 0x1c8
   d653c:	6063      	str	r3, [r4, #4]
   d653e:	60a5      	str	r5, [r4, #8]
   d6540:	f8c4 51c4 	str.w	r5, [r4, #452]	; 0x1c4
    /**
     * Creates a shared mutex.
     */
    RecursiveMutex(os_mutex_recursive_t handle) : handle_(handle) {}

    RecursiveMutex() : handle_(nullptr)
   d6544:	f8c4 51c8 	str.w	r5, [r4, #456]	; 0x1c8
    {
        os_mutex_recursive_create(&handle_);
   d6548:	f7fd ff60 	bl	d440c <os_mutex_recursive_create>
public:
    MeshClass() :
            NetworkClass(NETWORK_INTERFACE_MESH) {
   d654c:	4b08      	ldr	r3, [pc, #32]	; (d6570 <_GLOBAL__sub_I__ZN5spark11MeshPublish13Subscriptions20event_handler_existsEPKcPFvS3_S3_EPvN17SubscriptionScope4EnumES3_+0x44>)
   d654e:	f8c4 51cc 	str.w	r5, [r4, #460]	; 0x1cc
      __atomic_base(const __atomic_base&) = delete;
      __atomic_base& operator=(const __atomic_base&) = delete;
      __atomic_base& operator=(const __atomic_base&) volatile = delete;

      // Requires __int_type convertible to _M_i.
      constexpr __atomic_base(__int_type __i) noexcept : _M_i (__i) { }
   d6552:	f884 51d0 	strb.w	r5, [r4, #464]	; 0x1d0
   d6556:	6023      	str	r3, [r4, #0]
    }

    return addr;
}

MeshClass Mesh;
   d6558:	4620      	mov	r0, r4
   d655a:	4a06      	ldr	r2, [pc, #24]	; (d6574 <_GLOBAL__sub_I__ZN5spark11MeshPublish13Subscriptions20event_handler_existsEPKcPFvS3_S3_EPvN17SubscriptionScope4EnumES3_+0x48>)
   d655c:	4906      	ldr	r1, [pc, #24]	; (d6578 <_GLOBAL__sub_I__ZN5spark11MeshPublish13Subscriptions20event_handler_existsEPKcPFvS3_S3_EPvN17SubscriptionScope4EnumES3_+0x4c>)
} // namespace spark
   d655e:	e8bd 4038 	ldmia.w	sp!, {r3, r4, r5, lr}
    }

    return addr;
}

MeshClass Mesh;
   d6562:	f000 bcad 	b.w	d6ec0 <__aeabi_atexit>
   d6566:	bf00      	nop
   d6568:	2003e3dc 	.word	0x2003e3dc
   d656c:	000d7f4c 	.word	0x000d7f4c
   d6570:	000d7f18 	.word	0x000d7f18
   d6574:	2003e2e8 	.word	0x2003e2e8
   d6578:	000d6515 	.word	0x000d6515

000d657c <_ZN5spark12NetworkClass7connectEj>:
        return Network;
    }
}

void NetworkClass::connect(unsigned flags) {
    network_connect(*this, flags, 0, nullptr);
   d657c:	2300      	movs	r3, #0
   d657e:	461a      	mov	r2, r3
   d6580:	6840      	ldr	r0, [r0, #4]
   d6582:	f7fe b8ff 	b.w	d4784 <network_connect>

000d6586 <_ZN5spark12NetworkClass10disconnectEv>:
}

void NetworkClass::disconnect() {
    network_disconnect(*this, NETWORK_DISCONNECT_REASON_USER, nullptr);
   d6586:	2200      	movs	r2, #0
   d6588:	2102      	movs	r1, #2
   d658a:	6840      	ldr	r0, [r0, #4]
   d658c:	f7fe b90a 	b.w	d47a4 <network_disconnect>

000d6590 <_ZN5spark12NetworkClass10connectingEv>:
}

bool NetworkClass::connecting() {
    return network_connecting(*this, 0, nullptr);
   d6590:	2200      	movs	r2, #0
   d6592:	4611      	mov	r1, r2
   d6594:	6840      	ldr	r0, [r0, #4]
   d6596:	f7fe b8fd 	b.w	d4794 <network_connecting>

000d659a <_ZN5spark12NetworkClass5readyEv>:
}

bool NetworkClass::ready() {
    return network_ready(*this, 0, nullptr);
   d659a:	2200      	movs	r2, #0
   d659c:	4611      	mov	r1, r2
   d659e:	6840      	ldr	r0, [r0, #4]
   d65a0:	f7fe b908 	b.w	d47b4 <network_ready>

000d65a4 <_ZN5spark12NetworkClass2onEv>:
}

void NetworkClass::on() {
    network_on(*this, 0, 0, nullptr);
   d65a4:	2300      	movs	r3, #0
   d65a6:	461a      	mov	r2, r3
   d65a8:	4619      	mov	r1, r3
   d65aa:	6840      	ldr	r0, [r0, #4]
   d65ac:	f7fe b90a 	b.w	d47c4 <network_on>

000d65b0 <_ZN5spark12NetworkClass3offEv>:
}

void NetworkClass::off() {
    network_off(*this, 0, 0, nullptr);
   d65b0:	2300      	movs	r3, #0
   d65b2:	461a      	mov	r2, r3
   d65b4:	4619      	mov	r1, r3
   d65b6:	6840      	ldr	r0, [r0, #4]
   d65b8:	f7fe b90c 	b.w	d47d4 <network_off>

000d65bc <_ZN5spark12NetworkClass6listenEb>:
}

void NetworkClass::listen(bool begin) {
    network_listen(*this, begin ? 0 : 1, nullptr);
   d65bc:	2200      	movs	r2, #0
   d65be:	f081 0101 	eor.w	r1, r1, #1
   d65c2:	6840      	ldr	r0, [r0, #4]
   d65c4:	f7fe b90e 	b.w	d47e4 <network_listen>

000d65c8 <_ZN5spark12NetworkClass16setListenTimeoutEt>:
}

void NetworkClass::setListenTimeout(uint16_t timeout) {
    network_set_listen_timeout(*this, timeout, nullptr);
   d65c8:	2200      	movs	r2, #0
   d65ca:	6840      	ldr	r0, [r0, #4]
   d65cc:	f7fe b91a 	b.w	d4804 <network_set_listen_timeout>

000d65d0 <_ZN5spark12NetworkClass16getListenTimeoutEv>:
}

uint16_t NetworkClass::getListenTimeout() {
    return network_get_listen_timeout(*this, 0, nullptr);
   d65d0:	2200      	movs	r2, #0
   d65d2:	4611      	mov	r1, r2
   d65d4:	6840      	ldr	r0, [r0, #4]
   d65d6:	f7fe b91d 	b.w	d4814 <network_get_listen_timeout>

000d65da <_ZN5spark12NetworkClass9listeningEv>:
}

bool NetworkClass::listening() {
    return network_listening(*this, 0, nullptr);
   d65da:	2200      	movs	r2, #0
   d65dc:	4611      	mov	r1, r2
   d65de:	6840      	ldr	r0, [r0, #4]
   d65e0:	f7fe b908 	b.w	d47f4 <network_listening>

000d65e4 <_ZN5spark12NetworkClass7resolveEPKc>:
}

IPAddress NetworkClass::resolve(const char* name) {
   d65e4:	e92d 43f0 	stmdb	sp!, {r4, r5, r6, r7, r8, r9, lr}
    IPAddress addr;
#if HAL_USE_INET_HAL_POSIX
    struct addrinfo *ai = nullptr;
   d65e8:	2400      	movs	r4, #0

bool NetworkClass::listening() {
    return network_listening(*this, 0, nullptr);
}

IPAddress NetworkClass::resolve(const char* name) {
   d65ea:	b095      	sub	sp, #84	; 0x54
   d65ec:	4616      	mov	r6, r2
   d65ee:	460d      	mov	r5, r1
   d65f0:	4607      	mov	r7, r0
    IPAddress addr;
   d65f2:	f7fe fd4d 	bl	d5090 <_ZN9IPAddressC1Ev>
#if HAL_USE_INET_HAL_POSIX
    struct addrinfo *ai = nullptr;
    struct addrinfo hints = {};
   d65f6:	4621      	mov	r1, r4
   d65f8:	2220      	movs	r2, #32
   d65fa:	a80c      	add	r0, sp, #48	; 0x30
}

IPAddress NetworkClass::resolve(const char* name) {
    IPAddress addr;
#if HAL_USE_INET_HAL_POSIX
    struct addrinfo *ai = nullptr;
   d65fc:	9400      	str	r4, [sp, #0]
    struct addrinfo hints = {};
   d65fe:	f001 fa19 	bl	d7a34 <memset>
    hints.ai_flags = AI_ADDRCONFIG;
   d6602:	2340      	movs	r3, #64	; 0x40
   d6604:	930c      	str	r3, [sp, #48]	; 0x30
    hints.ai_family = AF_UNSPEC;
    const int r = getaddrinfo(name, nullptr, &hints, &ai);
   d6606:	4621      	mov	r1, r4
   d6608:	466b      	mov	r3, sp
   d660a:	aa0c      	add	r2, sp, #48	; 0x30
   d660c:	4630      	mov	r0, r6
   d660e:	f7fd ffad 	bl	d456c <netdb_getaddrinfo>
    if (!r) {
   d6612:	4604      	mov	r4, r0
   d6614:	2800      	cmp	r0, #0
   d6616:	d144      	bne.n	d66a2 <_ZN5spark12NetworkClass7resolveEPKc+0xbe>
        bool ok = false;
        // This is not really needed if AI_ADDRCONFIG is properly supported
        bool ipv4 = network_ready(*this, NETWORK_READY_TYPE_IPV4, nullptr);
   d6618:	4602      	mov	r2, r0
   d661a:	2101      	movs	r1, #1
   d661c:	6868      	ldr	r0, [r5, #4]
   d661e:	f7fe f8c9 	bl	d47b4 <network_ready>
        bool ipv6 = network_ready(*this, NETWORK_READY_TYPE_IPV6, nullptr);
   d6622:	2102      	movs	r1, #2
    hints.ai_family = AF_UNSPEC;
    const int r = getaddrinfo(name, nullptr, &hints, &ai);
    if (!r) {
        bool ok = false;
        // This is not really needed if AI_ADDRCONFIG is properly supported
        bool ipv4 = network_ready(*this, NETWORK_READY_TYPE_IPV4, nullptr);
   d6624:	4680      	mov	r8, r0
        bool ipv6 = network_ready(*this, NETWORK_READY_TYPE_IPV6, nullptr);
   d6626:	4622      	mov	r2, r4
   d6628:	6868      	ldr	r0, [r5, #4]
   d662a:	f7fe f8c3 	bl	d47b4 <network_ready>
        for (auto cur = ai; cur != nullptr && !ok; cur = cur->ai_next) {
   d662e:	9e00      	ldr	r6, [sp, #0]
    const int r = getaddrinfo(name, nullptr, &hints, &ai);
    if (!r) {
        bool ok = false;
        // This is not really needed if AI_ADDRCONFIG is properly supported
        bool ipv4 = network_ready(*this, NETWORK_READY_TYPE_IPV4, nullptr);
        bool ipv6 = network_ready(*this, NETWORK_READY_TYPE_IPV6, nullptr);
   d6630:	4681      	mov	r9, r0
    struct addrinfo hints = {};
    hints.ai_flags = AI_ADDRCONFIG;
    hints.ai_family = AF_UNSPEC;
    const int r = getaddrinfo(name, nullptr, &hints, &ai);
    if (!r) {
        bool ok = false;
   d6632:	4621      	mov	r1, r4
        // This is not really needed if AI_ADDRCONFIG is properly supported
        bool ipv4 = network_ready(*this, NETWORK_READY_TYPE_IPV4, nullptr);
        bool ipv6 = network_ready(*this, NETWORK_READY_TYPE_IPV6, nullptr);
        for (auto cur = ai; cur != nullptr && !ok; cur = cur->ai_next) {
   d6634:	2e00      	cmp	r6, #0
   d6636:	d034      	beq.n	d66a2 <_ZN5spark12NetworkClass7resolveEPKc+0xbe>
   d6638:	2900      	cmp	r1, #0
   d663a:	d132      	bne.n	d66a2 <_ZN5spark12NetworkClass7resolveEPKc+0xbe>
            // NOTE: using only the first entry that matches the current state of IPv4/IPv6 connectivity
            switch (cur->ai_family) {
   d663c:	6873      	ldr	r3, [r6, #4]
   d663e:	2b02      	cmp	r3, #2
   d6640:	d002      	beq.n	d6648 <_ZN5spark12NetworkClass7resolveEPKc+0x64>
   d6642:	2b0a      	cmp	r3, #10
   d6644:	d009      	beq.n	d665a <_ZN5spark12NetworkClass7resolveEPKc+0x76>
   d6646:	e02a      	b.n	d669e <_ZN5spark12NetworkClass7resolveEPKc+0xba>
                case AF_INET: {
                    if (!ipv4) {
   d6648:	f1b8 0f00 	cmp.w	r8, #0
   d664c:	d027      	beq.n	d669e <_ZN5spark12NetworkClass7resolveEPKc+0xba>
                        continue;
                    }
                    // NOTE: HAL_IPAddress is little-endian
                    auto in = (struct sockaddr_in*)cur->ai_addr;
                    addr = (const uint8_t*)(&in->sin_addr.s_addr);
   d664e:	6971      	ldr	r1, [r6, #20]
   d6650:	4638      	mov	r0, r7
   d6652:	3104      	adds	r1, #4
   d6654:	f7fe fd49 	bl	d50ea <_ZN9IPAddressaSEPKh>
   d6658:	e020      	b.n	d669c <_ZN5spark12NetworkClass7resolveEPKc+0xb8>
                    ok = true;
                    break;
                }
                case AF_INET6: {
                    if (!ipv6) {
   d665a:	f1b9 0f00 	cmp.w	r9, #0
   d665e:	d01e      	beq.n	d669e <_ZN5spark12NetworkClass7resolveEPKc+0xba>
                        continue;
                    }
                    auto in6 = (struct sockaddr_in6*)cur->ai_addr;
   d6660:	6974      	ldr	r4, [r6, #20]
                    HAL_IPAddress a = {};
   d6662:	2211      	movs	r2, #17
   d6664:	a801      	add	r0, sp, #4
   d6666:	f001 f9e5 	bl	d7a34 <memset>
                    a.v = 6;
   d666a:	2306      	movs	r3, #6
   d666c:	f88d 3014 	strb.w	r3, [sp, #20]
                    memcpy(a.ipv6, in6->sin6_addr.s6_addr, sizeof(a.ipv6));
   d6670:	ad01      	add	r5, sp, #4
   d6672:	f104 0308 	add.w	r3, r4, #8
   d6676:	3418      	adds	r4, #24
   d6678:	6818      	ldr	r0, [r3, #0]
   d667a:	6859      	ldr	r1, [r3, #4]
   d667c:	462a      	mov	r2, r5
   d667e:	c203      	stmia	r2!, {r0, r1}
   d6680:	3308      	adds	r3, #8
   d6682:	42a3      	cmp	r3, r4
   d6684:	4615      	mov	r5, r2
   d6686:	d1f7      	bne.n	d6678 <_ZN5spark12NetworkClass7resolveEPKc+0x94>
                    addr = IPAddress(a);
   d6688:	a901      	add	r1, sp, #4
   d668a:	a806      	add	r0, sp, #24

/**
 * The IP address stored in host order.
 *
 */
class IPAddress : public Printable {
   d668c:	ad07      	add	r5, sp, #28
   d668e:	f7fe fd0d 	bl	d50ac <_ZN9IPAddressC1ERK16_HAL_IPAddress_t>
   d6692:	cd0f      	ldmia	r5!, {r0, r1, r2, r3}
   d6694:	1d3c      	adds	r4, r7, #4
   d6696:	c40f      	stmia	r4!, {r0, r1, r2, r3}
   d6698:	682b      	ldr	r3, [r5, #0]
   d669a:	7023      	strb	r3, [r4, #0]
                    ok = true;
   d669c:	2101      	movs	r1, #1
    if (!r) {
        bool ok = false;
        // This is not really needed if AI_ADDRCONFIG is properly supported
        bool ipv4 = network_ready(*this, NETWORK_READY_TYPE_IPV4, nullptr);
        bool ipv6 = network_ready(*this, NETWORK_READY_TYPE_IPV6, nullptr);
        for (auto cur = ai; cur != nullptr && !ok; cur = cur->ai_next) {
   d669e:	69f6      	ldr	r6, [r6, #28]
   d66a0:	e7c8      	b.n	d6634 <_ZN5spark12NetworkClass7resolveEPKc+0x50>
                    break;
                }
            }
        }
    }
    freeaddrinfo(ai);
   d66a2:	9800      	ldr	r0, [sp, #0]
   d66a4:	f7fd ff5a 	bl	d455c <netdb_freeaddrinfo>
    return Cellular.resolve(name);
#endif // Wiring_Cellular

#endif // HAL_USE_INET_HAL_POSIX
    return addr;
}
   d66a8:	4638      	mov	r0, r7
   d66aa:	b015      	add	sp, #84	; 0x54
   d66ac:	e8bd 83f0 	ldmia.w	sp!, {r4, r5, r6, r7, r8, r9, pc}

000d66b0 <_GLOBAL__sub_I__ZN5spark7NetworkE>:
   d66b0:	4b02      	ldr	r3, [pc, #8]	; (d66bc <_GLOBAL__sub_I__ZN5spark7NetworkE+0xc>)
   d66b2:	4a03      	ldr	r2, [pc, #12]	; (d66c0 <_GLOBAL__sub_I__ZN5spark7NetworkE+0x10>)
   d66b4:	601a      	str	r2, [r3, #0]
   d66b6:	2200      	movs	r2, #0
   d66b8:	605a      	str	r2, [r3, #4]
   d66ba:	4770      	bx	lr
   d66bc:	2003e5b0 	.word	0x2003e5b0
   d66c0:	000d7f4c 	.word	0x000d7f4c

000d66c4 <_ZN5Print5writeEPKhj>:

// Public Methods //////////////////////////////////////////////////////////////

/* default implementation: may be overridden */
size_t Print::write(const uint8_t *buffer, size_t size)
{
   d66c4:	b5f8      	push	{r3, r4, r5, r6, r7, lr}
   d66c6:	4606      	mov	r6, r0
   d66c8:	460d      	mov	r5, r1
   d66ca:	188f      	adds	r7, r1, r2
  size_t n = 0;
   d66cc:	2400      	movs	r4, #0
  while (size--) {
   d66ce:	42bd      	cmp	r5, r7
   d66d0:	d00c      	beq.n	d66ec <_ZN5Print5writeEPKhj+0x28>
     int chunk = write(*buffer++);
   d66d2:	6833      	ldr	r3, [r6, #0]
   d66d4:	f815 1b01 	ldrb.w	r1, [r5], #1
   d66d8:	689b      	ldr	r3, [r3, #8]
   d66da:	4630      	mov	r0, r6
   d66dc:	4798      	blx	r3
     if (chunk>=0)
   d66de:	2800      	cmp	r0, #0
   d66e0:	db01      	blt.n	d66e6 <_ZN5Print5writeEPKhj+0x22>
         n += chunk;
   d66e2:	4404      	add	r4, r0

/* default implementation: may be overridden */
size_t Print::write(const uint8_t *buffer, size_t size)
{
  size_t n = 0;
  while (size--) {
   d66e4:	e7f3      	b.n	d66ce <_ZN5Print5writeEPKhj+0xa>
     int chunk = write(*buffer++);
   d66e6:	2c00      	cmp	r4, #0
   d66e8:	bf08      	it	eq
   d66ea:	4604      	moveq	r4, r0
             n = chunk;
         break;
     }
  }
  return n;
}
   d66ec:	4620      	mov	r0, r4
   d66ee:	bdf8      	pop	{r3, r4, r5, r6, r7, pc}

000d66f0 <_ZN5Print5writeEPKc>:

    int getWriteError() { return write_error; }
    void clearWriteError() { setWriteError(0); }

    virtual size_t write(uint8_t) = 0;
    size_t write(const char *str) {
   d66f0:	b570      	push	{r4, r5, r6, lr}
   d66f2:	4605      	mov	r5, r0
      if (str == NULL) return 0;
   d66f4:	460c      	mov	r4, r1
      return write((const uint8_t *)str, strlen(str));
    }
   d66f6:	4608      	mov	r0, r1
    int getWriteError() { return write_error; }
    void clearWriteError() { setWriteError(0); }

    virtual size_t write(uint8_t) = 0;
    size_t write(const char *str) {
      if (str == NULL) return 0;
   d66f8:	b149      	cbz	r1, d670e <_ZN5Print5writeEPKc+0x1e>
      return write((const uint8_t *)str, strlen(str));
   d66fa:	f001 fa10 	bl	d7b1e <strlen>
   d66fe:	682b      	ldr	r3, [r5, #0]
   d6700:	4602      	mov	r2, r0
   d6702:	4621      	mov	r1, r4
   d6704:	4628      	mov	r0, r5
   d6706:	68db      	ldr	r3, [r3, #12]
    }
   d6708:	e8bd 4070 	ldmia.w	sp!, {r4, r5, r6, lr}
    void clearWriteError() { setWriteError(0); }

    virtual size_t write(uint8_t) = 0;
    size_t write(const char *str) {
      if (str == NULL) return 0;
      return write((const uint8_t *)str, strlen(str));
   d670c:	4718      	bx	r3
    }
   d670e:	bd70      	pop	{r4, r5, r6, pc}

000d6710 <_ZN5Print5printEc>:
  return write(str);
}

size_t Print::print(char c)
{
  return write(c);
   d6710:	6803      	ldr	r3, [r0, #0]
   d6712:	689b      	ldr	r3, [r3, #8]
   d6714:	4718      	bx	r3

000d6716 <_ZN5Print7printlnEv>:
{
  return print(reinterpret_cast<const char*>(str));
}

size_t Print::println(void)
{
   d6716:	b538      	push	{r3, r4, r5, lr}
  size_t n = print('\r');
   d6718:	210d      	movs	r1, #13
{
  return print(reinterpret_cast<const char*>(str));
}

size_t Print::println(void)
{
   d671a:	4605      	mov	r5, r0
  size_t n = print('\r');
   d671c:	f7ff fff8 	bl	d6710 <_ZN5Print5printEc>
  n += print('\n');
   d6720:	210a      	movs	r1, #10
  return print(reinterpret_cast<const char*>(str));
}

size_t Print::println(void)
{
  size_t n = print('\r');
   d6722:	4604      	mov	r4, r0
  n += print('\n');
   d6724:	4628      	mov	r0, r5
   d6726:	f7ff fff3 	bl	d6710 <_ZN5Print5printEc>
  return n;
}
   d672a:	4420      	add	r0, r4
   d672c:	bd38      	pop	{r3, r4, r5, pc}

000d672e <_ZN5Print11printNumberEmh>:
  return println(reinterpret_cast<const char*>(str));
}

// Private Methods /////////////////////////////////////////////////////////////

size_t Print::printNumber(unsigned long n, uint8_t base) {
   d672e:	b530      	push	{r4, r5, lr}
   d6730:	b08b      	sub	sp, #44	; 0x2c
   d6732:	460b      	mov	r3, r1
  char buf[8 * sizeof(n) + 1]; // Assumes 8-bit chars plus zero byte.
  char *str = &buf[sizeof(buf) - 1];

  *str = '\0';
   d6734:	2100      	movs	r1, #0
   d6736:	f88d 1024 	strb.w	r1, [sp, #36]	; 0x24

  // prevent crash if called with base == 1
  if (base < 2) base = 10;
   d673a:	2a01      	cmp	r2, #1
   d673c:	bf98      	it	ls
   d673e:	220a      	movls	r2, #10
   d6740:	f10d 0423 	add.w	r4, sp, #35	; 0x23

  do {
   decltype(n) m = n;
   n /= base;
   d6744:	fbb3 f5f2 	udiv	r5, r3, r2
   char c = m - base * n;
   d6748:	fb05 3312 	mls	r3, r5, r2, r3
   d674c:	f003 03ff 	and.w	r3, r3, #255	; 0xff
   *--str = c < 10 ? c + '0' : c + 'A' - 10;
   d6750:	2b09      	cmp	r3, #9
   d6752:	bf94      	ite	ls
   d6754:	3330      	addls	r3, #48	; 0x30
   d6756:	3337      	addhi	r3, #55	; 0x37
   d6758:	b2db      	uxtb	r3, r3
   d675a:	4621      	mov	r1, r4
   d675c:	f804 3901 	strb.w	r3, [r4], #-1
   d6760:	462b      	mov	r3, r5
  *str = '\0';

  // prevent crash if called with base == 1
  if (base < 2) base = 10;

  do {
   d6762:	2d00      	cmp	r5, #0
   d6764:	d1ee      	bne.n	d6744 <_ZN5Print11printNumberEmh+0x16>
   n /= base;
   char c = m - base * n;
   *--str = c < 10 ? c + '0' : c + 'A' - 10;
  } while(n);

  return write(str);
   d6766:	f7ff ffc3 	bl	d66f0 <_ZN5Print5writeEPKc>
}
   d676a:	b00b      	add	sp, #44	; 0x2c
   d676c:	bd30      	pop	{r4, r5, pc}

000d676e <_ZN5Print11printf_implEbPKcz>:

  return n;
}

size_t Print::printf_impl(bool newline, const char* format, ...)
{
   d676e:	b40c      	push	{r2, r3}
   d6770:	e92d 43f0 	stmdb	sp!, {r4, r5, r6, r7, r8, r9, lr}
   d6774:	b087      	sub	sp, #28
   d6776:	af00      	add	r7, sp, #0
   d6778:	f107 0438 	add.w	r4, r7, #56	; 0x38
   d677c:	4605      	mov	r5, r0
   d677e:	f854 9b04 	ldr.w	r9, [r4], #4
    const int bufsize = 20;
    char test[bufsize];
    va_list marker;
    va_start(marker, format);
   d6782:	603c      	str	r4, [r7, #0]

  return n;
}

size_t Print::printf_impl(bool newline, const char* format, ...)
{
   d6784:	460e      	mov	r6, r1
    const int bufsize = 20;
    char test[bufsize];
    va_list marker;
    va_start(marker, format);
    size_t n = vsnprintf(test, bufsize, format, marker);
   d6786:	4623      	mov	r3, r4
   d6788:	464a      	mov	r2, r9
   d678a:	2114      	movs	r1, #20
   d678c:	1d38      	adds	r0, r7, #4
   d678e:	f7fe f869 	bl	d4864 <vsnprintf>
    va_end(marker);

    if (n<bufsize)
   d6792:	2813      	cmp	r0, #19
   d6794:	d805      	bhi.n	d67a2 <_ZN5Print11printf_implEbPKcz+0x34>
  return n;
}

size_t Print::print(const char str[])
{
  return write(str);
   d6796:	1d39      	adds	r1, r7, #4
   d6798:	4628      	mov	r0, r5
   d679a:	f7ff ffa9 	bl	d66f0 <_ZN5Print5writeEPKc>
   d679e:	4604      	mov	r4, r0
   d67a0:	e013      	b.n	d67ca <_ZN5Print11printf_implEbPKcz+0x5c>
    {
        n = print(test);
    }
    else
    {
        char bigger[n+1];
   d67a2:	f100 0308 	add.w	r3, r0, #8
   d67a6:	f023 0307 	bic.w	r3, r3, #7
        va_start(marker, format);
        n = vsnprintf(bigger, n+1, format, marker);
        va_end(marker);
        n = print(bigger);
   d67aa:	46e8      	mov	r8, sp
    {
        n = print(test);
    }
    else
    {
        char bigger[n+1];
   d67ac:	ebad 0d03 	sub.w	sp, sp, r3
        va_start(marker, format);
        n = vsnprintf(bigger, n+1, format, marker);
   d67b0:	1c41      	adds	r1, r0, #1
   d67b2:	4623      	mov	r3, r4
   d67b4:	464a      	mov	r2, r9
   d67b6:	4668      	mov	r0, sp
        n = print(test);
    }
    else
    {
        char bigger[n+1];
        va_start(marker, format);
   d67b8:	603c      	str	r4, [r7, #0]
        n = vsnprintf(bigger, n+1, format, marker);
   d67ba:	f7fe f853 	bl	d4864 <vsnprintf>
  return n;
}

size_t Print::print(const char str[])
{
  return write(str);
   d67be:	4669      	mov	r1, sp
   d67c0:	4628      	mov	r0, r5
   d67c2:	f7ff ff95 	bl	d66f0 <_ZN5Print5writeEPKc>
   d67c6:	4604      	mov	r4, r0
   d67c8:	46c5      	mov	sp, r8
        va_start(marker, format);
        n = vsnprintf(bigger, n+1, format, marker);
        va_end(marker);
        n = print(bigger);
    }
    if (newline)
   d67ca:	b11e      	cbz	r6, d67d4 <_ZN5Print11printf_implEbPKcz+0x66>
        n += println();
   d67cc:	4628      	mov	r0, r5
   d67ce:	f7ff ffa2 	bl	d6716 <_ZN5Print7printlnEv>
   d67d2:	4404      	add	r4, r0
    return n;
}
   d67d4:	4620      	mov	r0, r4
   d67d6:	371c      	adds	r7, #28
   d67d8:	46bd      	mov	sp, r7
   d67da:	e8bd 43f0 	ldmia.w	sp!, {r4, r5, r6, r7, r8, r9, lr}
   d67de:	b002      	add	sp, #8
   d67e0:	4770      	bx	lr

000d67e2 <_ZN8RGBClassD1Ev>:
#include "rgbled.h"

typedef void (raw_rgb_change_handler_t)(uint8_t, uint8_t, uint8_t);
typedef std::function<raw_rgb_change_handler_t> wiring_rgb_change_handler_t;

class RGBClass {
   d67e2:	b510      	push	{r4, lr}
   d67e4:	4604      	mov	r4, r0
   *  @ingroup functors
   *
   *  Polymorphic function wrapper.
   */
  template<typename _Res, typename... _ArgTypes>
    class function<_Res(_ArgTypes...)>
   d67e6:	f7fe f8cc 	bl	d4982 <_ZNSt14_Function_baseD1Ev>
   d67ea:	4620      	mov	r0, r4
   d67ec:	bd10      	pop	{r4, pc}
	...

000d67f0 <_GLOBAL__sub_I_RGB>:
	{
	  _Base::_M_init_functor(__functor, std::__addressof(__f.get()));
	}
      };

    _Function_base() : _M_manager(nullptr) { }
   d67f0:	4803      	ldr	r0, [pc, #12]	; (d6800 <_GLOBAL__sub_I_RGB+0x10>)
#include "spark_wiring_rgb.h"
#include "spark_wiring_interrupts.h"

#include "core_hal.h"

RGBClass RGB;
   d67f2:	4a04      	ldr	r2, [pc, #16]	; (d6804 <_GLOBAL__sub_I_RGB+0x14>)
   d67f4:	4904      	ldr	r1, [pc, #16]	; (d6808 <_GLOBAL__sub_I_RGB+0x18>)
   d67f6:	2300      	movs	r3, #0
   d67f8:	6083      	str	r3, [r0, #8]
   d67fa:	f000 bb61 	b.w	d6ec0 <__aeabi_atexit>
   d67fe:	bf00      	nop
   d6800:	2003e5b8 	.word	0x2003e5b8
   d6804:	2003e2e8 	.word	0x2003e2e8
   d6808:	000d67e3 	.word	0x000d67e3

000d680c <_ZN8SPIClassD1Ev>:
  RecursiveMutex _mutex;
#endif

public:
  SPIClass(HAL_SPI_Interface spi);
  virtual ~SPIClass() {};
   d680c:	4770      	bx	lr

000d680e <_ZN8SPIClassD0Ev>:
   d680e:	b510      	push	{r4, lr}
   d6810:	210c      	movs	r1, #12
   d6812:	4604      	mov	r4, r0
   d6814:	f000 fb59 	bl	d6eca <_ZdlPvj>
   d6818:	4620      	mov	r0, r4
   d681a:	bd10      	pop	{r4, pc}

000d681c <_ZN8SPIClassC1E17HAL_SPI_Interface>:
    }
    return particle::__SPISettings(info->clock, info->bit_order, info->data_mode);
}
} // namespace

SPIClass::SPIClass(HAL_SPI_Interface spi)
   d681c:	b510      	push	{r4, lr}
   d681e:	4b05      	ldr	r3, [pc, #20]	; (d6834 <_ZN8SPIClassC1E17HAL_SPI_Interface+0x18>)
   d6820:	6003      	str	r3, [r0, #0]
   d6822:	4604      	mov	r4, r0
{
    _spi = spi;
   d6824:	7101      	strb	r1, [r0, #4]
    HAL_SPI_Init(_spi);
   d6826:	4608      	mov	r0, r1
   d6828:	f7fd fea8 	bl	d457c <HAL_SPI_Init>
    _dividerReference = SPI_CLK_SYSTEM; // 0 indicates the system clock
   d682c:	2300      	movs	r3, #0
   d682e:	60a3      	str	r3, [r4, #8]
}
   d6830:	4620      	mov	r0, r4
   d6832:	bd10      	pop	{r4, pc}
   d6834:	000d7f80 	.word	0x000d7f80

000d6838 <_ZN8SPIClass9isEnabledEv>:
bool SPIClass::isEnabled()
{
    // XXX: pinAvailable() will call this method potentially even from
    // interrupt context. `enabled` flag in HAL is usually just a volatile
    // variable, so it's fine not to acquire the lock here.
    return HAL_SPI_Is_Enabled(_spi);
   d6838:	7900      	ldrb	r0, [r0, #4]
   d683a:	f7fd bea7 	b.w	d458c <HAL_SPI_Is_Enabled>

000d683e <_ZN6StringC1EOS_>:
/*  Memory Management                        */
/*********************************************/

inline void String::init(void)
{
	buffer = NULL;
   d683e:	2300      	movs	r3, #0
   d6840:	6003      	str	r3, [r0, #0]
	capacity = 0;
   d6842:	6043      	str	r3, [r0, #4]
	len = 0;
   d6844:	6083      	str	r3, [r0, #8]
	flags = 0;
   d6846:	7303      	strb	r3, [r0, #12]
	const char* cstr = reinterpret_cast<const char*>(pstr);
	if (cstr) copy(cstr, strlen(cstr));
}

#ifdef __GXX_EXPERIMENTAL_CXX0X__
String::String(String &&rval)
   d6848:	b510      	push	{r4, lr}
			return;
		} else {
			free(buffer);
		}
	}
	buffer = rhs.buffer;
   d684a:	680c      	ldr	r4, [r1, #0]
   d684c:	6004      	str	r4, [r0, #0]
	capacity = rhs.capacity;
   d684e:	684c      	ldr	r4, [r1, #4]
   d6850:	6044      	str	r4, [r0, #4]
	len = rhs.len;
   d6852:	688c      	ldr	r4, [r1, #8]
   d6854:	6084      	str	r4, [r0, #8]
	rhs.buffer = NULL;
   d6856:	600b      	str	r3, [r1, #0]
	rhs.capacity = 0;
   d6858:	604b      	str	r3, [r1, #4]
	rhs.len = 0;
   d685a:	608b      	str	r3, [r1, #8]
#ifdef __GXX_EXPERIMENTAL_CXX0X__
String::String(String &&rval)
{
	init();
	move(rval);
}
   d685c:	bd10      	pop	{r4, pc}

000d685e <_ZN6StringD1Ev>:
	init();
	char buf[33];
	dtoa(value, decimalPlaces, buf);
        *this = buf;
}
String::~String()
   d685e:	b510      	push	{r4, lr}
   d6860:	4604      	mov	r4, r0
{
	free(buffer);
   d6862:	6800      	ldr	r0, [r0, #0]
   d6864:	f7fd ffe6 	bl	d4834 <free>
}
   d6868:	4620      	mov	r0, r4
   d686a:	bd10      	pop	{r4, pc}

000d686c <_ZN6String10invalidateEv>:
	len = 0;
	flags = 0;
}

void String::invalidate(void)
{
   d686c:	b510      	push	{r4, lr}
   d686e:	4604      	mov	r4, r0
	if (buffer) free(buffer);
   d6870:	6800      	ldr	r0, [r0, #0]
   d6872:	b108      	cbz	r0, d6878 <_ZN6String10invalidateEv+0xc>
   d6874:	f7fd ffde 	bl	d4834 <free>
	buffer = NULL;
   d6878:	2300      	movs	r3, #0
   d687a:	6023      	str	r3, [r4, #0]
	capacity = len = 0;
   d687c:	60a3      	str	r3, [r4, #8]
   d687e:	6063      	str	r3, [r4, #4]
   d6880:	bd10      	pop	{r4, pc}

000d6882 <_ZN6String12changeBufferEj>:
	}
	return 0;
}

unsigned char String::changeBuffer(unsigned int maxStrLen)
{
   d6882:	b538      	push	{r3, r4, r5, lr}
   d6884:	4604      	mov	r4, r0
   d6886:	460d      	mov	r5, r1
	char *newbuffer = (char *)realloc(buffer, maxStrLen + 1);
   d6888:	6800      	ldr	r0, [r0, #0]
   d688a:	3101      	adds	r1, #1
   d688c:	f7fd ffda 	bl	d4844 <realloc>
	if (newbuffer) {
   d6890:	b110      	cbz	r0, d6898 <_ZN6String12changeBufferEj+0x16>
		buffer = newbuffer;
		capacity = maxStrLen;
   d6892:	e884 0021 	stmia.w	r4, {r0, r5}
		return 1;
   d6896:	2001      	movs	r0, #1
	}
	return 0;
}
   d6898:	bd38      	pop	{r3, r4, r5, pc}

000d689a <_ZN6String7reserveEj>:
	buffer = NULL;
	capacity = len = 0;
}

unsigned char String::reserve(unsigned int size)
{
   d689a:	b510      	push	{r4, lr}
	if (buffer && capacity >= size) return 1;
   d689c:	6803      	ldr	r3, [r0, #0]
	buffer = NULL;
	capacity = len = 0;
}

unsigned char String::reserve(unsigned int size)
{
   d689e:	4604      	mov	r4, r0
	if (buffer && capacity >= size) return 1;
   d68a0:	b113      	cbz	r3, d68a8 <_ZN6String7reserveEj+0xe>
   d68a2:	6843      	ldr	r3, [r0, #4]
   d68a4:	428b      	cmp	r3, r1
   d68a6:	d207      	bcs.n	d68b8 <_ZN6String7reserveEj+0x1e>
	if (changeBuffer(size)) {
   d68a8:	4620      	mov	r0, r4
   d68aa:	f7ff ffea 	bl	d6882 <_ZN6String12changeBufferEj>
   d68ae:	b120      	cbz	r0, d68ba <_ZN6String7reserveEj+0x20>
		if (len == 0) buffer[0] = 0;
   d68b0:	68a3      	ldr	r3, [r4, #8]
   d68b2:	b90b      	cbnz	r3, d68b8 <_ZN6String7reserveEj+0x1e>
   d68b4:	6822      	ldr	r2, [r4, #0]
   d68b6:	7013      	strb	r3, [r2, #0]
   d68b8:	2001      	movs	r0, #1
		return 1;
	}
	return 0;
}
   d68ba:	bd10      	pop	{r4, pc}

000d68bc <_ZN6String4copyEPKcj>:
/*********************************************/
/*  Copy and Move                            */
/*********************************************/

String & String::copy(const char *cstr, unsigned int length)
{
   d68bc:	b570      	push	{r4, r5, r6, lr}
   d68be:	460e      	mov	r6, r1
	if (!reserve(length)) {
   d68c0:	4611      	mov	r1, r2
/*********************************************/
/*  Copy and Move                            */
/*********************************************/

String & String::copy(const char *cstr, unsigned int length)
{
   d68c2:	4604      	mov	r4, r0
   d68c4:	4615      	mov	r5, r2
	if (!reserve(length)) {
   d68c6:	f7ff ffe8 	bl	d689a <_ZN6String7reserveEj>
   d68ca:	b918      	cbnz	r0, d68d4 <_ZN6String4copyEPKcj+0x18>
		invalidate();
   d68cc:	4620      	mov	r0, r4
   d68ce:	f7ff ffcd 	bl	d686c <_ZN6String10invalidateEv>
		return *this;
   d68d2:	e009      	b.n	d68e8 <_ZN6String4copyEPKcj+0x2c>
	}
	len = length;
	memcpy(buffer, cstr, length);
   d68d4:	462a      	mov	r2, r5
   d68d6:	4631      	mov	r1, r6
{
	if (!reserve(length)) {
		invalidate();
		return *this;
	}
	len = length;
   d68d8:	60a5      	str	r5, [r4, #8]
	memcpy(buffer, cstr, length);
   d68da:	6820      	ldr	r0, [r4, #0]
   d68dc:	f001 f884 	bl	d79e8 <memcpy>
	buffer[len] = 0;
   d68e0:	6822      	ldr	r2, [r4, #0]
   d68e2:	68a3      	ldr	r3, [r4, #8]
   d68e4:	2100      	movs	r1, #0
   d68e6:	54d1      	strb	r1, [r2, r3]
	return *this;
}
   d68e8:	4620      	mov	r0, r4
   d68ea:	bd70      	pop	{r4, r5, r6, pc}

000d68ec <_ZN6StringaSERKS_>:
}
#endif

String & String::operator = (const String &rhs)
{
	if (this == &rhs) return *this;
   d68ec:	4288      	cmp	r0, r1
	rhs.len = 0;
}
#endif

String & String::operator = (const String &rhs)
{
   d68ee:	b510      	push	{r4, lr}
   d68f0:	460b      	mov	r3, r1
   d68f2:	4604      	mov	r4, r0
	if (this == &rhs) return *this;
   d68f4:	d007      	beq.n	d6906 <_ZN6StringaSERKS_+0x1a>

	if (rhs.buffer) copy(rhs.buffer, rhs.len);
   d68f6:	6809      	ldr	r1, [r1, #0]
   d68f8:	b119      	cbz	r1, d6902 <_ZN6StringaSERKS_+0x16>
   d68fa:	689a      	ldr	r2, [r3, #8]
   d68fc:	f7ff ffde 	bl	d68bc <_ZN6String4copyEPKcj>
   d6900:	e001      	b.n	d6906 <_ZN6StringaSERKS_+0x1a>
	else invalidate();
   d6902:	f7ff ffb3 	bl	d686c <_ZN6String10invalidateEv>

	return *this;
}
   d6906:	4620      	mov	r0, r4
   d6908:	bd10      	pop	{r4, pc}

000d690a <_ZN6StringC1ERKS_>:
{
	init();
	if (cstr) copy(cstr, length);
}

String::String(const String &value)
   d690a:	b510      	push	{r4, lr}
/*  Memory Management                        */
/*********************************************/

inline void String::init(void)
{
	buffer = NULL;
   d690c:	2300      	movs	r3, #0
{
	init();
	if (cstr) copy(cstr, length);
}

String::String(const String &value)
   d690e:	4604      	mov	r4, r0
/*  Memory Management                        */
/*********************************************/

inline void String::init(void)
{
	buffer = NULL;
   d6910:	6003      	str	r3, [r0, #0]
	capacity = 0;
   d6912:	6043      	str	r3, [r0, #4]
	len = 0;
   d6914:	6083      	str	r3, [r0, #8]
	flags = 0;
   d6916:	7303      	strb	r3, [r0, #12]
}

String::String(const String &value)
{
	init();
	*this = value;
   d6918:	f7ff ffe8 	bl	d68ec <_ZN6StringaSERKS_>
}
   d691c:	4620      	mov	r0, r4
   d691e:	bd10      	pop	{r4, pc}

000d6920 <_ZN17SystemSleepResult22freeWakeupSourceMemoryEv.isra.2>:
    operator SleepResult() {
        return toSleepResult();
    }

private:
    void freeWakeupSourceMemory() {
   d6920:	b510      	push	{r4, lr}
   d6922:	4604      	mov	r4, r0
        if (wakeupSource_) {
   d6924:	6800      	ldr	r0, [r0, #0]
   d6926:	b118      	cbz	r0, d6930 <_ZN17SystemSleepResult22freeWakeupSourceMemoryEv.isra.2+0x10>
            free(wakeupSource_);
   d6928:	f7fd ff84 	bl	d4834 <free>
            wakeupSource_ = nullptr;
   d692c:	2300      	movs	r3, #0
   d692e:	6023      	str	r3, [r4, #0]
   d6930:	bd10      	pop	{r4, pc}

000d6932 <_ZN11SystemClassD1Ev>:
    system_error_t error_;
    SleepResult compatResult_;
};


class SystemClass {
   d6932:	b510      	push	{r4, lr}
   d6934:	4604      	mov	r4, r0
        }
        return *this;
    }

    ~SystemSleepResult() {
        freeWakeupSourceMemory();
   d6936:	f7ff fff3 	bl	d6920 <_ZN17SystemSleepResult22freeWakeupSourceMemoryEv.isra.2>
    system_error_t error_;
    SleepResult compatResult_;
};


class SystemClass {
   d693a:	4620      	mov	r0, r4
   d693c:	bd10      	pop	{r4, pc}
	...

000d6940 <_GLOBAL__sub_I_System>:
    return wokenUpByRtc();
}

system_error_t SleepResult::error() const {
    return err_;
   d6940:	b510      	push	{r4, lr}

class SystemSleepResult {
public:
    SystemSleepResult()
            : wakeupSource_(nullptr),
              error_(SYSTEM_ERROR_NONE) {
   d6942:	4c09      	ldr	r4, [pc, #36]	; (d6968 <_GLOBAL__sub_I_System+0x28>)
   d6944:	2000      	movs	r0, #0
    WAKEUP_REASON_PIN_OR_RTC = 3,
    WAKEUP_REASON_UNKNOWN = 4
};

struct SleepResult {
    SleepResult() {}
   d6946:	f64f 73ff 	movw	r3, #65535	; 0xffff

class SystemSleepResult {
public:
    SystemSleepResult()
            : wakeupSource_(nullptr),
              error_(SYSTEM_ERROR_NONE) {
   d694a:	6020      	str	r0, [r4, #0]
   d694c:	80a0      	strh	r0, [r4, #4]
    WAKEUP_REASON_PIN_OR_RTC = 3,
    WAKEUP_REASON_UNKNOWN = 4
};

struct SleepResult {
    SleepResult() {}
   d694e:	71a0      	strb	r0, [r4, #6]
   d6950:	8120      	strh	r0, [r4, #8]
   d6952:	8163      	strh	r3, [r4, #10]

class SystemClass {
public:

    SystemClass(System_Mode_TypeDef mode = DEFAULT) {
        set_system_mode(mode);
   d6954:	f7fd fed2 	bl	d46fc <set_system_mode>

#if Wiring_LogConfig
extern void(*log_process_ctrl_request_callback)(ctrl_request* req);
#endif

SystemClass System;
   d6958:	4620      	mov	r0, r4
   d695a:	4a04      	ldr	r2, [pc, #16]	; (d696c <_GLOBAL__sub_I_System+0x2c>)
   d695c:	4904      	ldr	r1, [pc, #16]	; (d6970 <_GLOBAL__sub_I_System+0x30>)
    return wokenUpByRtc();
}

system_error_t SleepResult::error() const {
    return err_;
   d695e:	e8bd 4010 	ldmia.w	sp!, {r4, lr}

#if Wiring_LogConfig
extern void(*log_process_ctrl_request_callback)(ctrl_request* req);
#endif

SystemClass System;
   d6962:	f000 baad 	b.w	d6ec0 <__aeabi_atexit>
   d6966:	bf00      	nop
   d6968:	2003e5c8 	.word	0x2003e5c8
   d696c:	2003e2e8 	.word	0x2003e2e8
   d6970:	000d6933 	.word	0x000d6933

000d6974 <_GLOBAL__sub_I_TIME_FORMAT_DEFAULT>:
            calendar_time_cache = Convert_UnixTime_To_CalendarTime(unix_time);
            unix_time_cache = unix_time;
    }
}

const char* TimeClass::format_spec = TIME_FORMAT_DEFAULT;
   d6974:	4b02      	ldr	r3, [pc, #8]	; (d6980 <_GLOBAL__sub_I_TIME_FORMAT_DEFAULT+0xc>)
   d6976:	681a      	ldr	r2, [r3, #0]
   d6978:	4b02      	ldr	r3, [pc, #8]	; (d6984 <_GLOBAL__sub_I_TIME_FORMAT_DEFAULT+0x10>)
   d697a:	601a      	str	r2, [r3, #0]
   d697c:	4770      	bx	lr
   d697e:	bf00      	nop
   d6980:	2003e27c 	.word	0x2003e27c
   d6984:	2003e5d4 	.word	0x2003e5d4

000d6988 <_ZN11USARTSerialD1Ev>:
private:
  HAL_USART_Serial _serial;
  bool _blocking;
public:
  USARTSerial(HAL_USART_Serial serial, Ring_Buffer *rx_buffer, Ring_Buffer *tx_buffer);
  virtual ~USARTSerial() {};
   d6988:	4770      	bx	lr

000d698a <_ZN11USARTSerial14blockOnOverrunEb>:
    HAL_USART_Half_Duplex(_serial, Enable);
}

void USARTSerial::blockOnOverrun(bool block)
{
  _blocking = block;
   d698a:	7441      	strb	r1, [r0, #17]
   d698c:	4770      	bx	lr

000d698e <_ZN11USARTSerial17availableForWriteEv>:
}


int USARTSerial::availableForWrite(void)
{
   d698e:	b508      	push	{r3, lr}
  return std::max(0, (int)HAL_USART_Available_Data_For_Write(_serial));
   d6990:	7c00      	ldrb	r0, [r0, #16]
   d6992:	f7fd fe43 	bl	d461c <HAL_USART_Available_Data_For_Write>
}
   d6996:	ea20 70e0 	bic.w	r0, r0, r0, asr #31
   d699a:	bd08      	pop	{r3, pc}

000d699c <_ZN11USARTSerial9availableEv>:

int USARTSerial::available(void)
{
   d699c:	b508      	push	{r3, lr}
  return std::max(0, (int)HAL_USART_Available_Data(_serial));
   d699e:	7c00      	ldrb	r0, [r0, #16]
   d69a0:	f7fd fe14 	bl	d45cc <HAL_USART_Available_Data>
}
   d69a4:	ea20 70e0 	bic.w	r0, r0, r0, asr #31
   d69a8:	bd08      	pop	{r3, pc}

000d69aa <_ZN11USARTSerial4peekEv>:

int USARTSerial::peek(void)
{
   d69aa:	b508      	push	{r3, lr}
  return std::max(-1, (int)HAL_USART_Peek_Data(_serial));
   d69ac:	7c00      	ldrb	r0, [r0, #16]
   d69ae:	f7fd fe1d 	bl	d45ec <HAL_USART_Peek_Data>
}
   d69b2:	ea30 0020 	bics.w	r0, r0, r0, asr #32
   d69b6:	bf28      	it	cs
   d69b8:	f04f 30ff 	movcs.w	r0, #4294967295	; 0xffffffff
   d69bc:	bd08      	pop	{r3, pc}

000d69be <_ZN11USARTSerial4readEv>:

int USARTSerial::read(void)
{
   d69be:	b508      	push	{r3, lr}
  return std::max(-1, (int)HAL_USART_Read_Data(_serial));
   d69c0:	7c00      	ldrb	r0, [r0, #16]
   d69c2:	f7fd fe0b 	bl	d45dc <HAL_USART_Read_Data>
}
   d69c6:	ea30 0020 	bics.w	r0, r0, r0, asr #32
   d69ca:	bf28      	it	cs
   d69cc:	f04f 30ff 	movcs.w	r0, #4294967295	; 0xffffffff
   d69d0:	bd08      	pop	{r3, pc}

000d69d2 <_ZN11USARTSerial5flushEv>:

void USARTSerial::flush()
{
  HAL_USART_Flush_Data(_serial);
   d69d2:	7c00      	ldrb	r0, [r0, #16]
   d69d4:	f7fd be12 	b.w	d45fc <HAL_USART_Flush_Data>

000d69d8 <_ZN11USARTSerialD0Ev>:
   d69d8:	b510      	push	{r4, lr}
   d69da:	2114      	movs	r1, #20
   d69dc:	4604      	mov	r4, r0
   d69de:	f000 fa74 	bl	d6eca <_ZdlPvj>
   d69e2:	4620      	mov	r0, r4
   d69e4:	bd10      	pop	{r4, pc}

000d69e6 <_ZN11USARTSerial5writeEh>:
}

size_t USARTSerial::write(uint8_t c)
{
   d69e6:	b570      	push	{r4, r5, r6, lr}
  // attempt a write if blocking, or for non-blocking if there is room.
  if (_blocking || HAL_USART_Available_Data_For_Write(_serial) > 0) {
   d69e8:	7c45      	ldrb	r5, [r0, #17]
{
  HAL_USART_Flush_Data(_serial);
}

size_t USARTSerial::write(uint8_t c)
{
   d69ea:	4604      	mov	r4, r0
   d69ec:	460e      	mov	r6, r1
  // attempt a write if blocking, or for non-blocking if there is room.
  if (_blocking || HAL_USART_Available_Data_For_Write(_serial) > 0) {
   d69ee:	b925      	cbnz	r5, d69fa <_ZN11USARTSerial5writeEh+0x14>
   d69f0:	7c00      	ldrb	r0, [r0, #16]
   d69f2:	f7fd fe13 	bl	d461c <HAL_USART_Available_Data_For_Write>
   d69f6:	2800      	cmp	r0, #0
   d69f8:	dd05      	ble.n	d6a06 <_ZN11USARTSerial5writeEh+0x20>
    // the HAL always blocks.
	  return HAL_USART_Write_Data(_serial, c);
   d69fa:	4631      	mov	r1, r6
   d69fc:	7c20      	ldrb	r0, [r4, #16]
  }
  return 0;
}
   d69fe:	e8bd 4070 	ldmia.w	sp!, {r4, r5, r6, lr}
size_t USARTSerial::write(uint8_t c)
{
  // attempt a write if blocking, or for non-blocking if there is room.
  if (_blocking || HAL_USART_Available_Data_For_Write(_serial) > 0) {
    // the HAL always blocks.
	  return HAL_USART_Write_Data(_serial, c);
   d6a02:	f7fd bddb 	b.w	d45bc <HAL_USART_Write_Data>
  }
  return 0;
}
   d6a06:	4628      	mov	r0, r5
   d6a08:	bd70      	pop	{r4, r5, r6, pc}
	...

000d6a0c <_ZN11USARTSerialC1E16HAL_USART_SerialP11Ring_BufferS2_>:
#include "spark_wiring_constants.h"
#include "module_info.h"

// Constructors ////////////////////////////////////////////////////////////////

USARTSerial::USARTSerial(HAL_USART_Serial serial, Ring_Buffer *rx_buffer, Ring_Buffer *tx_buffer)
   d6a0c:	b510      	push	{r4, lr}
   d6a0e:	4604      	mov	r4, r0
   d6a10:	4608      	mov	r0, r1
   d6a12:	4611      	mov	r1, r2
  protected:
    void setWriteError(int err = 1) { write_error = err; }
    size_t printf_impl(bool newline, const char* format, ...);

  public:
    Print() : write_error(0) {}
   d6a14:	2200      	movs	r2, #0
   d6a16:	6062      	str	r2, [r4, #4]
   d6a18:	f44f 727a 	mov.w	r2, #1000	; 0x3e8
   d6a1c:	60a2      	str	r2, [r4, #8]
   d6a1e:	4a05      	ldr	r2, [pc, #20]	; (d6a34 <_ZN11USARTSerialC1E16HAL_USART_SerialP11Ring_BufferS2_+0x28>)
   d6a20:	6022      	str	r2, [r4, #0]
{
  _serial = serial;
  // Default is blocking mode
  _blocking = true;
   d6a22:	2201      	movs	r2, #1

// Constructors ////////////////////////////////////////////////////////////////

USARTSerial::USARTSerial(HAL_USART_Serial serial, Ring_Buffer *rx_buffer, Ring_Buffer *tx_buffer)
{
  _serial = serial;
   d6a24:	7420      	strb	r0, [r4, #16]
  // Default is blocking mode
  _blocking = true;
   d6a26:	7462      	strb	r2, [r4, #17]
  HAL_USART_Init(serial, rx_buffer, tx_buffer);
   d6a28:	461a      	mov	r2, r3
   d6a2a:	f7fd fdb7 	bl	d459c <HAL_USART_Init>
}
   d6a2e:	4620      	mov	r0, r4
   d6a30:	bd10      	pop	{r4, pc}
   d6a32:	bf00      	nop
   d6a34:	000d7fbc 	.word	0x000d7fbc

000d6a38 <_ZN11USARTSerial5beginEmm>:
  begin(baud, SERIAL_8N1);
}

void USARTSerial::begin(unsigned long baud, uint32_t config)
{
  HAL_USART_BeginConfig(_serial, baud, config, 0);
   d6a38:	2300      	movs	r3, #0
   d6a3a:	7c00      	ldrb	r0, [r0, #16]
   d6a3c:	f7fd bdf6 	b.w	d462c <HAL_USART_BeginConfig>

000d6a40 <_ZN11USARTSerial5beginEm>:
}
// Public Methods //////////////////////////////////////////////////////////////

void USARTSerial::begin(unsigned long baud)
{
  begin(baud, SERIAL_8N1);
   d6a40:	2200      	movs	r2, #0
   d6a42:	f7ff bff9 	b.w	d6a38 <_ZN11USARTSerial5beginEmm>

000d6a46 <_ZN11USARTSerial3endEv>:
  HAL_USART_BeginConfig(_serial, baud, config, 0);
}

void USARTSerial::end()
{
  HAL_USART_End(_serial);
   d6a46:	7c00      	ldrb	r0, [r0, #16]
   d6a48:	f7fd bdb0 	b.w	d45ac <HAL_USART_End>

000d6a4c <_ZN11USARTSerial9isEnabledEv>:
USARTSerial::operator bool() {
  return true;
}

bool USARTSerial::isEnabled() {
  return HAL_USART_Is_Enabled(_serial);
   d6a4c:	7c00      	ldrb	r0, [r0, #16]
   d6a4e:	f7fd bddd 	b.w	d460c <HAL_USART_Is_Enabled>
	...

000d6a54 <_Z22__fetch_global_Serial1v>:
static Ring_Buffer* serial1_rx_buffer = NULL;
static Ring_Buffer* serial1_tx_buffer = NULL;
#endif

USARTSerial& __fetch_global_Serial1()
{
   d6a54:	b538      	push	{r3, r4, r5, lr}
#if ((MODULE_FUNCTION == MOD_FUNC_USER_PART) || (MODULE_FUNCTION == MOD_FUNC_MONO_FIRMWARE))
	static USARTSerial serial1(HAL_USART_SERIAL1, &serial1_rx_buffer, &serial1_tx_buffer);
   d6a56:	4d0c      	ldr	r5, [pc, #48]	; (d6a88 <_Z22__fetch_global_Serial1v+0x34>)
   d6a58:	6829      	ldr	r1, [r5, #0]
   d6a5a:	f011 0401 	ands.w	r4, r1, #1
   d6a5e:	d111      	bne.n	d6a84 <_Z22__fetch_global_Serial1v+0x30>
   d6a60:	4628      	mov	r0, r5
   d6a62:	f7fd fb2b 	bl	d40bc <__cxa_guard_acquire>
   d6a66:	b168      	cbz	r0, d6a84 <_Z22__fetch_global_Serial1v+0x30>
   d6a68:	4a08      	ldr	r2, [pc, #32]	; (d6a8c <_Z22__fetch_global_Serial1v+0x38>)
   d6a6a:	4b09      	ldr	r3, [pc, #36]	; (d6a90 <_Z22__fetch_global_Serial1v+0x3c>)
   d6a6c:	4809      	ldr	r0, [pc, #36]	; (d6a94 <_Z22__fetch_global_Serial1v+0x40>)
   d6a6e:	4621      	mov	r1, r4
   d6a70:	f7ff ffcc 	bl	d6a0c <_ZN11USARTSerialC1E16HAL_USART_SerialP11Ring_BufferS2_>
   d6a74:	4628      	mov	r0, r5
   d6a76:	f7fd fb26 	bl	d40c6 <__cxa_guard_release>
   d6a7a:	4a07      	ldr	r2, [pc, #28]	; (d6a98 <_Z22__fetch_global_Serial1v+0x44>)
   d6a7c:	4907      	ldr	r1, [pc, #28]	; (d6a9c <_Z22__fetch_global_Serial1v+0x48>)
   d6a7e:	4805      	ldr	r0, [pc, #20]	; (d6a94 <_Z22__fetch_global_Serial1v+0x40>)
   d6a80:	f000 fa1e 	bl	d6ec0 <__aeabi_atexit>
    serial1_tx_buffer = new Ring_Buffer();
  }
  static USARTSerial serial1(HAL_USART_SERIAL1, serial1_rx_buffer, serial1_tx_buffer);
#endif
	return serial1;
}
   d6a84:	4803      	ldr	r0, [pc, #12]	; (d6a94 <_Z22__fetch_global_Serial1v+0x40>)
   d6a86:	bd38      	pop	{r3, r4, r5, pc}
   d6a88:	2003e670 	.word	0x2003e670
   d6a8c:	2003e674 	.word	0x2003e674
   d6a90:	2003e5ec 	.word	0x2003e5ec
   d6a94:	2003e5d8 	.word	0x2003e5d8
   d6a98:	2003e2e8 	.word	0x2003e2e8
   d6a9c:	000d6989 	.word	0x000d6989

000d6aa0 <_ZN9USBSerial14blockOnOverrunEb>:
  HAL_USB_USART_Flush_Data(_serial);
}

void USBSerial::blockOnOverrun(bool block)
{
  _blocking = block;
   d6aa0:	7441      	strb	r1, [r0, #17]
   d6aa2:	4770      	bx	lr

000d6aa4 <_ZN9USBSerialD1Ev>:
#include "usb_hal.h"
#include "system_task.h"
#include "spark_wiring_startup.h"
#include "concurrent_hal.h"

class USBSerial : public Stream
   d6aa4:	4770      	bx	lr

000d6aa6 <_ZN9USBSerial4readEv>:
}


// Read data from buffer
int USBSerial::read()
{
   d6aa6:	b508      	push	{r3, lr}
	return std::max(-1, (int)HAL_USB_USART_Receive_Data(_serial, false));
   d6aa8:	2100      	movs	r1, #0
   d6aaa:	7c00      	ldrb	r0, [r0, #16]
   d6aac:	f7fd fdee 	bl	d468c <HAL_USB_USART_Receive_Data>
}
   d6ab0:	ea30 0020 	bics.w	r0, r0, r0, asr #32
   d6ab4:	bf28      	it	cs
   d6ab6:	f04f 30ff 	movcs.w	r0, #4294967295	; 0xffffffff
   d6aba:	bd08      	pop	{r3, pc}

000d6abc <_ZN9USBSerial4peekEv>:
{
  _blocking = block;
}

int USBSerial::peek()
{
   d6abc:	b508      	push	{r3, lr}
	return std::max(-1, (int)HAL_USB_USART_Receive_Data(_serial, true));
   d6abe:	2101      	movs	r1, #1
   d6ac0:	7c00      	ldrb	r0, [r0, #16]
   d6ac2:	f7fd fde3 	bl	d468c <HAL_USB_USART_Receive_Data>
}
   d6ac6:	ea30 0020 	bics.w	r0, r0, r0, asr #32
   d6aca:	bf28      	it	cs
   d6acc:	f04f 30ff 	movcs.w	r0, #4294967295	; 0xffffffff
   d6ad0:	bd08      	pop	{r3, pc}

000d6ad2 <_ZN9USBSerial17availableForWriteEv>:
{
	return std::max(-1, (int)HAL_USB_USART_Receive_Data(_serial, false));
}

int USBSerial::availableForWrite()
{
   d6ad2:	b508      	push	{r3, lr}
  return std::max(0, (int)HAL_USB_USART_Available_Data_For_Write(_serial));
   d6ad4:	7c00      	ldrb	r0, [r0, #16]
   d6ad6:	f7fd fdd1 	bl	d467c <HAL_USB_USART_Available_Data_For_Write>
}
   d6ada:	ea20 70e0 	bic.w	r0, r0, r0, asr #31
   d6ade:	bd08      	pop	{r3, pc}

000d6ae0 <_ZN9USBSerial9availableEv>:

int USBSerial::available()
{
   d6ae0:	b508      	push	{r3, lr}
	return std::max(0, (int)HAL_USB_USART_Available_Data(_serial));
   d6ae2:	7c00      	ldrb	r0, [r0, #16]
   d6ae4:	f7fd fdc2 	bl	d466c <HAL_USB_USART_Available_Data>
}
   d6ae8:	ea20 70e0 	bic.w	r0, r0, r0, asr #31
   d6aec:	bd08      	pop	{r3, pc}

000d6aee <_ZN9USBSerial5flushEv>:
  return 0;
}

void USBSerial::flush()
{
  HAL_USB_USART_Flush_Data(_serial);
   d6aee:	7c00      	ldrb	r0, [r0, #16]
   d6af0:	f7fd bddc 	b.w	d46ac <HAL_USB_USART_Flush_Data>

000d6af4 <_ZN9USBSerialD0Ev>:
   d6af4:	b510      	push	{r4, lr}
   d6af6:	2114      	movs	r1, #20
   d6af8:	4604      	mov	r4, r0
   d6afa:	f000 f9e6 	bl	d6eca <_ZdlPvj>
   d6afe:	4620      	mov	r0, r4
   d6b00:	bd10      	pop	{r4, pc}

000d6b02 <_ZN9USBSerial5writeEh>:
{
	return std::max(0, (int)HAL_USB_USART_Available_Data(_serial));
}

size_t USBSerial::write(uint8_t byte)
{
   d6b02:	b538      	push	{r3, r4, r5, lr}
   d6b04:	4604      	mov	r4, r0
  if (HAL_USB_USART_Available_Data_For_Write(_serial) > 0 || _blocking) {
   d6b06:	7c00      	ldrb	r0, [r0, #16]
{
	return std::max(0, (int)HAL_USB_USART_Available_Data(_serial));
}

size_t USBSerial::write(uint8_t byte)
{
   d6b08:	460d      	mov	r5, r1
  if (HAL_USB_USART_Available_Data_For_Write(_serial) > 0 || _blocking) {
   d6b0a:	f7fd fdb7 	bl	d467c <HAL_USB_USART_Available_Data_For_Write>
   d6b0e:	2800      	cmp	r0, #0
   d6b10:	dc01      	bgt.n	d6b16 <_ZN9USBSerial5writeEh+0x14>
   d6b12:	7c60      	ldrb	r0, [r4, #17]
   d6b14:	b128      	cbz	r0, d6b22 <_ZN9USBSerial5writeEh+0x20>
    return std::max(0, (int)HAL_USB_USART_Send_Data(_serial, byte));
   d6b16:	4629      	mov	r1, r5
   d6b18:	7c20      	ldrb	r0, [r4, #16]
   d6b1a:	f7fd fdbf 	bl	d469c <HAL_USB_USART_Send_Data>
   d6b1e:	ea20 70e0 	bic.w	r0, r0, r0, asr #31
  }
  return 0;
}
   d6b22:	bd38      	pop	{r3, r4, r5, pc}

000d6b24 <_ZN9USBSerialC1E20HAL_USB_USART_SerialRK20HAL_USB_USART_Config>:

  HAL_USB_USART_Config conf = acquireSerialBuffer();
  HAL_USB_USART_Init(_serial, &conf);
}

USBSerial::USBSerial(HAL_USB_USART_Serial serial, const HAL_USB_USART_Config& conf)
   d6b24:	b510      	push	{r4, lr}
   d6b26:	4604      	mov	r4, r0
   d6b28:	2300      	movs	r3, #0
   d6b2a:	6063      	str	r3, [r4, #4]
   d6b2c:	f44f 737a 	mov.w	r3, #1000	; 0x3e8
   d6b30:	60a3      	str	r3, [r4, #8]
   d6b32:	4b05      	ldr	r3, [pc, #20]	; (d6b48 <_ZN9USBSerialC1E20HAL_USB_USART_SerialRK20HAL_USB_USART_Config+0x24>)
   d6b34:	6023      	str	r3, [r4, #0]
{
  _serial = serial;
  _blocking = true;
   d6b36:	2301      	movs	r3, #1

  HAL_USB_USART_Config conf = acquireSerialBuffer();
  HAL_USB_USART_Init(_serial, &conf);
}

USBSerial::USBSerial(HAL_USB_USART_Serial serial, const HAL_USB_USART_Config& conf)
   d6b38:	4608      	mov	r0, r1
{
  _serial = serial;
   d6b3a:	7421      	strb	r1, [r4, #16]
  _blocking = true;
   d6b3c:	7463      	strb	r3, [r4, #17]

  HAL_USB_USART_Init(_serial, &conf);
   d6b3e:	4611      	mov	r1, r2
   d6b40:	f7fd fd7c 	bl	d463c <HAL_USB_USART_Init>
}
   d6b44:	4620      	mov	r0, r4
   d6b46:	bd10      	pop	{r4, pc}
   d6b48:	000d7fec 	.word	0x000d7fec

000d6b4c <_ZN9USBSerial5beginEl>:
// Public methods
//

void USBSerial::begin(long speed)
{
    HAL_USB_USART_Begin(_serial, speed, NULL);
   d6b4c:	2200      	movs	r2, #0
   d6b4e:	7c00      	ldrb	r0, [r0, #16]
   d6b50:	f7fd bd7c 	b.w	d464c <HAL_USB_USART_Begin>

000d6b54 <_ZN9USBSerial3endEv>:
}

void USBSerial::end()
{
    HAL_USB_USART_End(_serial);
   d6b54:	7c00      	ldrb	r0, [r0, #16]
   d6b56:	f7fd bd81 	b.w	d465c <HAL_USB_USART_End>

000d6b5a <_Z19acquireSerialBufferv>:

// Preinstantiate Objects //////////////////////////////////////////////////////
#ifdef SPARK_USB_SERIAL

HAL_USB_USART_Config __attribute__((weak)) acquireSerialBuffer()
{
   d6b5a:	b510      	push	{r4, lr}
  HAL_USB_USART_Config conf = {0};
   d6b5c:	2214      	movs	r2, #20

// Preinstantiate Objects //////////////////////////////////////////////////////
#ifdef SPARK_USB_SERIAL

HAL_USB_USART_Config __attribute__((weak)) acquireSerialBuffer()
{
   d6b5e:	4604      	mov	r4, r0
  HAL_USB_USART_Config conf = {0};
   d6b60:	2100      	movs	r1, #0
   d6b62:	f000 ff67 	bl	d7a34 <memset>
  conf.rx_buffer_size = USB_RX_BUFFER_SIZE;
  conf.tx_buffer_size = USB_TX_BUFFER_SIZE;
#endif

  return conf;
}
   d6b66:	4620      	mov	r0, r4
   d6b68:	bd10      	pop	{r4, pc}
	...

000d6b6c <_Z16_fetch_usbserialv>:

USBSerial& _fetch_usbserial()
{
   d6b6c:	b530      	push	{r4, r5, lr}
  HAL_USB_USART_Config conf = acquireSerialBuffer();
	static USBSerial _usbserial(HAL_USB_USART_SERIAL, conf);
   d6b6e:	4d0e      	ldr	r5, [pc, #56]	; (d6ba8 <_Z16_fetch_usbserialv+0x3c>)

  return conf;
}

USBSerial& _fetch_usbserial()
{
   d6b70:	b087      	sub	sp, #28
  HAL_USB_USART_Config conf = acquireSerialBuffer();
   d6b72:	a801      	add	r0, sp, #4
   d6b74:	f7ff fff1 	bl	d6b5a <_Z19acquireSerialBufferv>
	static USBSerial _usbserial(HAL_USB_USART_SERIAL, conf);
   d6b78:	6829      	ldr	r1, [r5, #0]
   d6b7a:	f011 0401 	ands.w	r4, r1, #1
   d6b7e:	d110      	bne.n	d6ba2 <_Z16_fetch_usbserialv+0x36>
   d6b80:	4628      	mov	r0, r5
   d6b82:	f7fd fa9b 	bl	d40bc <__cxa_guard_acquire>
   d6b86:	b160      	cbz	r0, d6ba2 <_Z16_fetch_usbserialv+0x36>
   d6b88:	aa01      	add	r2, sp, #4
   d6b8a:	4621      	mov	r1, r4
   d6b8c:	4807      	ldr	r0, [pc, #28]	; (d6bac <_Z16_fetch_usbserialv+0x40>)
   d6b8e:	f7ff ffc9 	bl	d6b24 <_ZN9USBSerialC1E20HAL_USB_USART_SerialRK20HAL_USB_USART_Config>
   d6b92:	4628      	mov	r0, r5
   d6b94:	f7fd fa97 	bl	d40c6 <__cxa_guard_release>
   d6b98:	4a05      	ldr	r2, [pc, #20]	; (d6bb0 <_Z16_fetch_usbserialv+0x44>)
   d6b9a:	4906      	ldr	r1, [pc, #24]	; (d6bb4 <_Z16_fetch_usbserialv+0x48>)
   d6b9c:	4803      	ldr	r0, [pc, #12]	; (d6bac <_Z16_fetch_usbserialv+0x40>)
   d6b9e:	f000 f98f 	bl	d6ec0 <__aeabi_atexit>
	return _usbserial;
}
   d6ba2:	4802      	ldr	r0, [pc, #8]	; (d6bac <_Z16_fetch_usbserialv+0x40>)
   d6ba4:	b007      	add	sp, #28
   d6ba6:	bd30      	pop	{r4, r5, pc}
   d6ba8:	2003e6f8 	.word	0x2003e6f8
   d6bac:	2003e6fc 	.word	0x2003e6fc
   d6bb0:	2003e2e8 	.word	0x2003e2e8
   d6bb4:	000d6aa5 	.word	0x000d6aa5

000d6bb8 <_ZN5spark9WiFiClass5readyEv>:
    bool connecting(void) {
        return network_connecting(*this, 0, NULL);
    }

    bool ready(void) {
        return network_ready(*this, 0, NULL);
   d6bb8:	2200      	movs	r2, #0
   d6bba:	4611      	mov	r1, r2
   d6bbc:	6840      	ldr	r0, [r0, #4]
   d6bbe:	f7fd bdf9 	b.w	d47b4 <network_ready>

000d6bc2 <_ZN5spark9WiFiClass9listeningEv>:
    uint16_t getListenTimeout(void) {
        return network_get_listen_timeout(*this, 0, NULL);
    }

    bool listening(void) {
        return network_listening(*this, 0, NULL);
   d6bc2:	2200      	movs	r2, #0
   d6bc4:	4611      	mov	r1, r2
   d6bc6:	6840      	ldr	r0, [r0, #4]
   d6bc8:	f7fd be14 	b.w	d47f4 <network_listening>

000d6bcc <_ZN5spark9WiFiClass16getListenTimeoutEv>:
        network_set_listen_timeout(*this, timeout, NULL);
    }
    inline void setListenTimeout(std::chrono::seconds s) { setListenTimeout(s.count()); }

    uint16_t getListenTimeout(void) {
        return network_get_listen_timeout(*this, 0, NULL);
   d6bcc:	2200      	movs	r2, #0
   d6bce:	4611      	mov	r1, r2
   d6bd0:	6840      	ldr	r0, [r0, #4]
   d6bd2:	f7fd be1f 	b.w	d4814 <network_get_listen_timeout>

000d6bd6 <_ZN5spark9WiFiClass16setListenTimeoutEt>:
    void listen(bool begin=true) {
        network_listen(*this, begin ? 0 : 1, NULL);
    }

    void setListenTimeout(uint16_t timeout) {
        network_set_listen_timeout(*this, timeout, NULL);
   d6bd6:	2200      	movs	r2, #0
   d6bd8:	6840      	ldr	r0, [r0, #4]
   d6bda:	f7fd be13 	b.w	d4804 <network_set_listen_timeout>

000d6bde <_ZN5spark9WiFiClass6listenEb>:
    void off(void) {
        network_off(*this, 0, 0, NULL);
    }

    void listen(bool begin=true) {
        network_listen(*this, begin ? 0 : 1, NULL);
   d6bde:	2200      	movs	r2, #0
   d6be0:	f081 0101 	eor.w	r1, r1, #1
   d6be4:	6840      	ldr	r0, [r0, #4]
   d6be6:	f7fd bdfd 	b.w	d47e4 <network_listen>

000d6bea <_ZN5spark9WiFiClass3offEv>:
    void on(void) {
        network_on(*this, 0, 0, NULL);
    }

    void off(void) {
        network_off(*this, 0, 0, NULL);
   d6bea:	2300      	movs	r3, #0
   d6bec:	461a      	mov	r2, r3
   d6bee:	4619      	mov	r1, r3
   d6bf0:	6840      	ldr	r0, [r0, #4]
   d6bf2:	f7fd bdef 	b.w	d47d4 <network_off>

000d6bf6 <_ZN5spark9WiFiClass2onEv>:
    bool ready(void) {
        return network_ready(*this, 0, NULL);
    }

    void on(void) {
        network_on(*this, 0, 0, NULL);
   d6bf6:	2300      	movs	r3, #0
   d6bf8:	461a      	mov	r2, r3
   d6bfa:	4619      	mov	r1, r3
   d6bfc:	6840      	ldr	r0, [r0, #4]
   d6bfe:	f7fd bde1 	b.w	d47c4 <network_on>

000d6c02 <_ZN5spark9WiFiClass10connectingEv>:
    void disconnect(void) {
        network_disconnect(*this, NETWORK_DISCONNECT_REASON_USER, NULL);
    }

    bool connecting(void) {
        return network_connecting(*this, 0, NULL);
   d6c02:	2200      	movs	r2, #0
   d6c04:	4611      	mov	r1, r2
   d6c06:	6840      	ldr	r0, [r0, #4]
   d6c08:	f7fd bdc4 	b.w	d4794 <network_connecting>

000d6c0c <_ZN5spark9WiFiClass10disconnectEv>:
    void connect(unsigned flags=0) {
        network_connect(*this, flags, 0, NULL);
    }

    void disconnect(void) {
        network_disconnect(*this, NETWORK_DISCONNECT_REASON_USER, NULL);
   d6c0c:	2200      	movs	r2, #0
   d6c0e:	2102      	movs	r1, #2
   d6c10:	6840      	ldr	r0, [r0, #4]
   d6c12:	f7fd bdc7 	b.w	d47a4 <network_disconnect>

000d6c16 <_ZN5spark9WiFiClass7connectEj>:
    uint32_t ping(IPAddress remoteIP, uint8_t nTries) {
        return inet_ping(&remoteIP.raw(), *this, nTries, NULL);
    }

    void connect(unsigned flags=0) {
        network_connect(*this, flags, 0, NULL);
   d6c16:	2300      	movs	r3, #0
   d6c18:	461a      	mov	r2, r3
   d6c1a:	6840      	ldr	r0, [r0, #4]
   d6c1c:	f7fd bdb2 	b.w	d4784 <network_connect>

000d6c20 <_GLOBAL__sub_I__ZN10WiFiSignalC2ERK21wlan_connected_info_t>:
   d6c20:	4b02      	ldr	r3, [pc, #8]	; (d6c2c <_GLOBAL__sub_I__ZN10WiFiSignalC2ERK21wlan_connected_info_t+0xc>)
   d6c22:	2204      	movs	r2, #4
   d6c24:	605a      	str	r2, [r3, #4]
        wlan_set_ipaddress_source(source, true, NULL);
    }

public:
    WiFiClass() :
            NetworkClass(NETWORK_INTERFACE_WIFI_STA) {
   d6c26:	4a02      	ldr	r2, [pc, #8]	; (d6c30 <_GLOBAL__sub_I__ZN10WiFiSignalC2ERK21wlan_connected_info_t+0x10>)
   d6c28:	601a      	str	r2, [r3, #0]
   d6c2a:	4770      	bx	lr
   d6c2c:	2003e710 	.word	0x2003e710
   d6c30:	000d801c 	.word	0x000d801c

000d6c34 <serialEventRun>:

/**
 * Provides background processing of serial data.
 */
void serialEventRun()
{
   d6c34:	b508      	push	{r3, lr}
    if (serialEvent && Serial.available()>0)
   d6c36:	4b0c      	ldr	r3, [pc, #48]	; (d6c68 <serialEventRun+0x34>)
   d6c38:	b133      	cbz	r3, d6c48 <serialEventRun+0x14>
   d6c3a:	f7ff ff97 	bl	d6b6c <_Z16_fetch_usbserialv>
   d6c3e:	6803      	ldr	r3, [r0, #0]
   d6c40:	691b      	ldr	r3, [r3, #16]
   d6c42:	4798      	blx	r3
   d6c44:	2800      	cmp	r0, #0
   d6c46:	dc09      	bgt.n	d6c5c <serialEventRun+0x28>
        serialEvent();

    if (serialEvent1 && Serial1.available()>0)
   d6c48:	4b08      	ldr	r3, [pc, #32]	; (d6c6c <serialEventRun+0x38>)
   d6c4a:	b163      	cbz	r3, d6c66 <serialEventRun+0x32>
   d6c4c:	f7ff ff02 	bl	d6a54 <_Z22__fetch_global_Serial1v>
   d6c50:	6803      	ldr	r3, [r0, #0]
   d6c52:	691b      	ldr	r3, [r3, #16]
   d6c54:	4798      	blx	r3
   d6c56:	2800      	cmp	r0, #0
   d6c58:	dc03      	bgt.n	d6c62 <serialEventRun+0x2e>
   d6c5a:	bd08      	pop	{r3, pc}
 * Provides background processing of serial data.
 */
void serialEventRun()
{
    if (serialEvent && Serial.available()>0)
        serialEvent();
   d6c5c:	f3af 8000 	nop.w
   d6c60:	e7f2      	b.n	d6c48 <serialEventRun+0x14>

    if (serialEvent1 && Serial1.available()>0)
        serialEvent1();
   d6c62:	f3af 8000 	nop.w
   d6c66:	bd08      	pop	{r3, pc}
	...

000d6c70 <_post_loop>:
#if Wiring_Serial5
void serialEvent5() __attribute__((weak));
#endif

void _post_loop()
{
   d6c70:	b508      	push	{r3, lr}
	serialEventRun();
   d6c72:	f7ff ffdf 	bl	d6c34 <serialEventRun>
		return !timeout_fn;
	}

	static inline system_tick_t current_time()
	{
		return HAL_Timer_Get_Milli_Seconds();
   d6c76:	f7fd fbf9 	bl	d446c <HAL_Timer_Get_Milli_Seconds>
	/**
	 * Lifesign that the application is still working normally.
	 */
	static void checkin()
	{
		last_checkin = current_time();
   d6c7a:	4b01      	ldr	r3, [pc, #4]	; (d6c80 <_post_loop+0x10>)
   d6c7c:	6018      	str	r0, [r3, #0]
   d6c7e:	bd08      	pop	{r3, pc}
   d6c80:	2003e720 	.word	0x2003e720

000d6c84 <_Z33system_initialize_user_backup_ramv>:
 * the dynamically linked application module.
 */
void system_initialize_user_backup_ram()
{
    size_t len = &link_global_retained_end-&link_global_retained_start;
    memcpy(&link_global_retained_start, &link_global_retained_initial_values, len);
   d6c84:	4802      	ldr	r0, [pc, #8]	; (d6c90 <_Z33system_initialize_user_backup_ramv+0xc>)
   d6c86:	4a03      	ldr	r2, [pc, #12]	; (d6c94 <_Z33system_initialize_user_backup_ramv+0x10>)
   d6c88:	4903      	ldr	r1, [pc, #12]	; (d6c98 <_Z33system_initialize_user_backup_ramv+0x14>)
   d6c8a:	1a12      	subs	r2, r2, r0
   d6c8c:	f000 beac 	b.w	d79e8 <memcpy>
   d6c90:	2003f400 	.word	0x2003f400
   d6c94:	2003f404 	.word	0x2003f404
   d6c98:	000d81f0 	.word	0x000d81f0

000d6c9c <_Z27ctrl_request_custom_handlerP12ctrl_request>:
bool __backup_ram_was_valid() { return false; }

#endif

// Default handler for CTRL_REQUEST_APP_CUSTOM requests
void __attribute((weak)) ctrl_request_custom_handler(ctrl_request* req) {
   d6c9c:	b507      	push	{r0, r1, r2, lr}
    system_ctrl_set_result(req, SYSTEM_ERROR_NOT_SUPPORTED, nullptr, nullptr, nullptr);
   d6c9e:	2300      	movs	r3, #0
   d6ca0:	9300      	str	r3, [sp, #0]
   d6ca2:	461a      	mov	r2, r3
   d6ca4:	f06f 0177 	mvn.w	r1, #119	; 0x77
   d6ca8:	f7fd fd4a 	bl	d4740 <system_ctrl_set_result>
}
   d6cac:	b003      	add	sp, #12
   d6cae:	f85d fb04 	ldr.w	pc, [sp], #4
	...

000d6cb4 <_ZL20ctrl_request_handlerP12ctrl_request>:
// Callback invoked to process a logging configuration request
void(*log_process_ctrl_request_callback)(ctrl_request* req) = nullptr;
#endif

// Application handler for control requests
static void ctrl_request_handler(ctrl_request* req) {
   d6cb4:	b507      	push	{r0, r1, r2, lr}
    switch (req->type) {
   d6cb6:	8843      	ldrh	r3, [r0, #2]
   d6cb8:	2b0a      	cmp	r3, #10
   d6cba:	d008      	beq.n	d6cce <_ZL20ctrl_request_handlerP12ctrl_request+0x1a>
   d6cbc:	2b50      	cmp	r3, #80	; 0x50
   d6cbe:	d109      	bne.n	d6cd4 <_ZL20ctrl_request_handlerP12ctrl_request+0x20>
#if Wiring_LogConfig
    case CTRL_REQUEST_LOG_CONFIG: {
        if (log_process_ctrl_request_callback) {
   d6cc0:	4b09      	ldr	r3, [pc, #36]	; (d6ce8 <_ZL20ctrl_request_handlerP12ctrl_request+0x34>)
   d6cc2:	681b      	ldr	r3, [r3, #0]
   d6cc4:	b13b      	cbz	r3, d6cd6 <_ZL20ctrl_request_handlerP12ctrl_request+0x22>
    }
    default:
        system_ctrl_set_result(req, SYSTEM_ERROR_NOT_SUPPORTED, nullptr, nullptr, nullptr);
        break;
    }
}
   d6cc6:	b003      	add	sp, #12
   d6cc8:	f85d eb04 	ldr.w	lr, [sp], #4
static void ctrl_request_handler(ctrl_request* req) {
    switch (req->type) {
#if Wiring_LogConfig
    case CTRL_REQUEST_LOG_CONFIG: {
        if (log_process_ctrl_request_callback) {
            log_process_ctrl_request_callback(req);
   d6ccc:	4718      	bx	r3
        }
        break;
    }
#endif
    case CTRL_REQUEST_APP_CUSTOM: {
        ctrl_request_custom_handler(req);
   d6cce:	f7ff ffe5 	bl	d6c9c <_Z27ctrl_request_custom_handlerP12ctrl_request>
        break;
   d6cd2:	e006      	b.n	d6ce2 <_ZL20ctrl_request_handlerP12ctrl_request+0x2e>
    }
    default:
        system_ctrl_set_result(req, SYSTEM_ERROR_NOT_SUPPORTED, nullptr, nullptr, nullptr);
   d6cd4:	2300      	movs	r3, #0
   d6cd6:	9300      	str	r3, [sp, #0]
   d6cd8:	461a      	mov	r2, r3
   d6cda:	f06f 0177 	mvn.w	r1, #119	; 0x77
   d6cde:	f7fd fd2f 	bl	d4740 <system_ctrl_set_result>
        break;
    }
}
   d6ce2:	b003      	add	sp, #12
   d6ce4:	f85d fb04 	ldr.w	pc, [sp], #4
   d6ce8:	2003e718 	.word	0x2003e718

000d6cec <module_user_init_hook>:

void module_user_init_hook()
{
   d6cec:	b538      	push	{r3, r4, r5, lr}
#if HAL_PLATFORM_BACKUP_RAM
    backup_ram_was_valid_ =  __backup_sram_signature==signature;
   d6cee:	4c10      	ldr	r4, [pc, #64]	; (d6d30 <module_user_init_hook+0x44>)
   d6cf0:	4d10      	ldr	r5, [pc, #64]	; (d6d34 <module_user_init_hook+0x48>)
   d6cf2:	6823      	ldr	r3, [r4, #0]
   d6cf4:	42ab      	cmp	r3, r5
   d6cf6:	4b10      	ldr	r3, [pc, #64]	; (d6d38 <module_user_init_hook+0x4c>)
   d6cf8:	bf0c      	ite	eq
   d6cfa:	2201      	moveq	r2, #1
   d6cfc:	2200      	movne	r2, #0
   d6cfe:	701a      	strb	r2, [r3, #0]
    if (!backup_ram_was_valid_) {
   d6d00:	d002      	beq.n	d6d08 <module_user_init_hook+0x1c>
        system_initialize_user_backup_ram();
   d6d02:	f7ff ffbf 	bl	d6c84 <_Z33system_initialize_user_backup_ramv>
        __backup_sram_signature = signature;
   d6d06:	6025      	str	r5, [r4, #0]
    }
#endif

#if HAL_PLATFORM_RNG
    // Initialize the default stdlib PRNG using hardware RNG as a seed
    const uint32_t seed = HAL_RNG_GetRandomNumber();
   d6d08:	f7fd fba0 	bl	d444c <HAL_RNG_GetRandomNumber>
   d6d0c:	4604      	mov	r4, r0
    srand(seed);
   d6d0e:	f000 fe99 	bl	d7a44 <srand>

    // If the user defines random_seed_from_cloud, call it with a seed value
    // generated by a hardware RNG as well.
    if (random_seed_from_cloud) {
   d6d12:	4b0a      	ldr	r3, [pc, #40]	; (d6d3c <module_user_init_hook+0x50>)
   d6d14:	b113      	cbz	r3, d6d1c <module_user_init_hook+0x30>
        random_seed_from_cloud(seed);
   d6d16:	4620      	mov	r0, r4
   d6d18:	f3af 8000 	nop.w
    }
#endif
    // Register the random_seed_from_cloud handler
    spark_set_random_seed_from_cloud_handler(&random_seed_from_cloud, nullptr);
   d6d1c:	2100      	movs	r1, #0
   d6d1e:	4807      	ldr	r0, [pc, #28]	; (d6d3c <module_user_init_hook+0x50>)
   d6d20:	f7fd fd28 	bl	d4774 <spark_set_random_seed_from_cloud_handler>

    // Register application handler for the control requests
    system_ctrl_set_app_request_handler(ctrl_request_handler, nullptr);
   d6d24:	2100      	movs	r1, #0
   d6d26:	4806      	ldr	r0, [pc, #24]	; (d6d40 <module_user_init_hook+0x54>)
}
   d6d28:	e8bd 4038 	ldmia.w	sp!, {r3, r4, r5, lr}
#endif
    // Register the random_seed_from_cloud handler
    spark_set_random_seed_from_cloud_handler(&random_seed_from_cloud, nullptr);

    // Register application handler for the control requests
    system_ctrl_set_app_request_handler(ctrl_request_handler, nullptr);
   d6d2c:	f7fd bcfe 	b.w	d472c <system_ctrl_set_app_request_handler>
   d6d30:	2003f400 	.word	0x2003f400
   d6d34:	9a271c1e 	.word	0x9a271c1e
   d6d38:	2003e71c 	.word	0x2003e71c
   d6d3c:	00000000 	.word	0x00000000
   d6d40:	000d6cb5 	.word	0x000d6cb5

000d6d44 <pinAvailable>:

/*
 * @brief Perform safety check on desired pin to see if it's already
 * being used.  Return 0 if used, otherwise return 1 if available.
 */
bool pinAvailable(uint16_t pin) {
   d6d44:	b510      	push	{r4, lr}
   d6d46:	4604      	mov	r4, r0

  // SPI safety check
#ifndef SPARK_WIRING_NO_SPI
  if(SPI.isEnabled() == true && (pin == SCK || pin == MOSI || pin == MISO))
   d6d48:	f000 f89a 	bl	d6e80 <_ZN8particle7globals11instanceSpiEv>
   d6d4c:	f7ff fd74 	bl	d6838 <_ZN8SPIClass9isEnabledEv>
   d6d50:	b128      	cbz	r0, d6d5e <pinAvailable+0x1a>
   d6d52:	f1a4 030b 	sub.w	r3, r4, #11
   d6d56:	2b02      	cmp	r3, #2
   d6d58:	d801      	bhi.n	d6d5e <pinAvailable+0x1a>
  {
    return 0; // 'pin' is used
   d6d5a:	2000      	movs	r0, #0
   d6d5c:	bd10      	pop	{r4, pc}
  }
#endif
  // I2C safety check
#ifndef SPARK_WIRING_NO_I2C
  if(Wire.isEnabled() == true && (pin == SCL || pin == SDA))
   d6d5e:	f000 f869 	bl	d6e34 <_Z19__fetch_global_Wirev>
   d6d62:	f7fe f957 	bl	d5014 <_ZN7TwoWire9isEnabledEv>
   d6d66:	b108      	cbz	r0, d6d6c <pinAvailable+0x28>
   d6d68:	2c01      	cmp	r4, #1
   d6d6a:	d9f6      	bls.n	d6d5a <pinAvailable+0x16>
    return 0; // 'pin' is used
  }
#endif
#ifndef SPARK_WIRING_NO_USART_SERIAL
  // Serial1 safety check
  if(Serial1.isEnabled() == true && (pin == RX || pin == TX))
   d6d6c:	f7ff fe72 	bl	d6a54 <_Z22__fetch_global_Serial1v>
   d6d70:	f7ff fe6c 	bl	d6a4c <_ZN11USARTSerial9isEnabledEv>
   d6d74:	b118      	cbz	r0, d6d7e <pinAvailable+0x3a>
   d6d76:	f1a4 0309 	sub.w	r3, r4, #9
   d6d7a:	2b01      	cmp	r3, #1
   d6d7c:	d9ed      	bls.n	d6d5a <pinAvailable+0x16>
  {
    return 0; // 'pin' is used
  }
#endif

  if (pin >= TOTAL_PINS)
   d6d7e:	2c23      	cmp	r4, #35	; 0x23
   d6d80:	bf8c      	ite	hi
   d6d82:	2000      	movhi	r0, #0
   d6d84:	2001      	movls	r0, #1
    return 0;
  else
    return 1; // 'pin' is available
}
   d6d86:	bd10      	pop	{r4, pc}

000d6d88 <pinMode>:
 * or INPUT_PULLDOWN
 */
void pinMode(uint16_t pin, PinMode setMode)
{

  if(pin >= TOTAL_PINS || setMode == PIN_MODE_NONE )
   d6d88:	2823      	cmp	r0, #35	; 0x23
/*
 * @brief Set the mode of the pin to OUTPUT, INPUT, INPUT_PULLUP,
 * or INPUT_PULLDOWN
 */
void pinMode(uint16_t pin, PinMode setMode)
{
   d6d8a:	b538      	push	{r3, r4, r5, lr}
   d6d8c:	4604      	mov	r4, r0
   d6d8e:	460d      	mov	r5, r1

  if(pin >= TOTAL_PINS || setMode == PIN_MODE_NONE )
   d6d90:	d80a      	bhi.n	d6da8 <pinMode+0x20>
   d6d92:	29ff      	cmp	r1, #255	; 0xff
   d6d94:	d008      	beq.n	d6da8 <pinMode+0x20>
  {
    return;
  }

  // Safety check
  if( !pinAvailable(pin) ) {
   d6d96:	f7ff ffd5 	bl	d6d44 <pinAvailable>
   d6d9a:	b128      	cbz	r0, d6da8 <pinMode+0x20>
    return;
  }

  HAL_Pin_Mode(pin, setMode);
   d6d9c:	4629      	mov	r1, r5
   d6d9e:	4620      	mov	r0, r4
}
   d6da0:	e8bd 4038 	ldmia.w	sp!, {r3, r4, r5, lr}
  // Safety check
  if( !pinAvailable(pin) ) {
    return;
  }

  HAL_Pin_Mode(pin, setMode);
   d6da4:	f7fd bb7a 	b.w	d449c <HAL_Pin_Mode>
   d6da8:	bd38      	pop	{r3, r4, r5, pc}

000d6daa <digitalRead>:

/*
 * @brief Reads the value of a GPIO pin. Should return either 1 (HIGH) or 0 (LOW).
 */
int32_t digitalRead(pin_t pin)
{
   d6daa:	b510      	push	{r4, lr}
   d6dac:	4604      	mov	r4, r0
    PinMode mode = HAL_Get_Pin_Mode(pin);
   d6dae:	f7fd fb7d 	bl	d44ac <HAL_Get_Pin_Mode>
    if (is_af_output_mode(mode))
   d6db2:	3804      	subs	r0, #4
   d6db4:	b2c0      	uxtb	r0, r0
   d6db6:	2801      	cmp	r0, #1
   d6db8:	d908      	bls.n	d6dcc <digitalRead+0x22>
        return LOW;

    // Safety check
    if( !pinAvailable(pin) ) {
   d6dba:	4620      	mov	r0, r4
   d6dbc:	f7ff ffc2 	bl	d6d44 <pinAvailable>
   d6dc0:	b120      	cbz	r0, d6dcc <digitalRead+0x22>
      return LOW;
    }

    return HAL_GPIO_Read(pin);
   d6dc2:	4620      	mov	r0, r4
}
   d6dc4:	e8bd 4010 	ldmia.w	sp!, {r4, lr}
    // Safety check
    if( !pinAvailable(pin) ) {
      return LOW;
    }

    return HAL_GPIO_Read(pin);
   d6dc8:	f7fd bb78 	b.w	d44bc <HAL_GPIO_Read>
}
   d6dcc:	2000      	movs	r0, #0
   d6dce:	bd10      	pop	{r4, pc}

000d6dd0 <analogRead>:
 * Note: ADC is 12-bit. Currently it returns 0-4095
 */
int32_t analogRead(pin_t pin)
{
  // Allow people to use 0-7 to define analog pins by checking to see if the values are too low.
  if(pin < FIRST_ANALOG_PIN)
   d6dd0:	280d      	cmp	r0, #13
 * @brief Read the analog value of a pin.
 * Should return a 16-bit value, 0-65536 (0 = LOW, 65536 = HIGH)
 * Note: ADC is 12-bit. Currently it returns 0-4095
 */
int32_t analogRead(pin_t pin)
{
   d6dd2:	b510      	push	{r4, lr}
   d6dd4:	4604      	mov	r4, r0
  // Allow people to use 0-7 to define analog pins by checking to see if the values are too low.
  if(pin < FIRST_ANALOG_PIN)
  {
    pin = pin + FIRST_ANALOG_PIN;
   d6dd6:	bf9c      	itt	ls
   d6dd8:	340e      	addls	r4, #14
   d6dda:	b2a4      	uxthls	r4, r4
  }

  // Safety check
  if( !pinAvailable(pin) ) {
   d6ddc:	4620      	mov	r0, r4
   d6dde:	f7ff ffb1 	bl	d6d44 <pinAvailable>
   d6de2:	b150      	cbz	r0, d6dfa <analogRead+0x2a>
    return LOW;
  }

  if(HAL_Validate_Pin_Function(pin, PF_ADC)!=PF_ADC)
   d6de4:	2103      	movs	r1, #3
   d6de6:	4620      	mov	r0, r4
   d6de8:	f7fd fb50 	bl	d448c <HAL_Validate_Pin_Function>
   d6dec:	2803      	cmp	r0, #3
   d6dee:	d104      	bne.n	d6dfa <analogRead+0x2a>
  {
    return LOW;
  }

  return HAL_ADC_Read(pin);
   d6df0:	4620      	mov	r0, r4
}
   d6df2:	e8bd 4010 	ldmia.w	sp!, {r4, lr}
  if(HAL_Validate_Pin_Function(pin, PF_ADC)!=PF_ADC)
  {
    return LOW;
  }

  return HAL_ADC_Read(pin);
   d6df6:	f7fd bb69 	b.w	d44cc <HAL_ADC_Read>
}
   d6dfa:	2000      	movs	r0, #0
   d6dfc:	bd10      	pop	{r4, pc}
	...

000d6e00 <_Z17acquireWireBufferv>:
   d6e00:	b570      	push	{r4, r5, r6, lr}
   d6e02:	4604      	mov	r4, r0
   d6e04:	2514      	movs	r5, #20
   d6e06:	462a      	mov	r2, r5
   d6e08:	4e09      	ldr	r6, [pc, #36]	; (d6e30 <_Z17acquireWireBufferv+0x30>)
   d6e0a:	2100      	movs	r1, #0
   d6e0c:	f000 fe12 	bl	d7a34 <memset>
   d6e10:	8025      	strh	r5, [r4, #0]
   d6e12:	2520      	movs	r5, #32
   d6e14:	4631      	mov	r1, r6
   d6e16:	60a5      	str	r5, [r4, #8]
   d6e18:	6125      	str	r5, [r4, #16]
   d6e1a:	4628      	mov	r0, r5
   d6e1c:	f000 f86f 	bl	d6efe <_ZnajRKSt9nothrow_t>
   d6e20:	4631      	mov	r1, r6
   d6e22:	6060      	str	r0, [r4, #4]
   d6e24:	4628      	mov	r0, r5
   d6e26:	f000 f86a 	bl	d6efe <_ZnajRKSt9nothrow_t>
   d6e2a:	60e0      	str	r0, [r4, #12]
   d6e2c:	4620      	mov	r0, r4
   d6e2e:	bd70      	pop	{r4, r5, r6, pc}
   d6e30:	000d8048 	.word	0x000d8048

000d6e34 <_Z19__fetch_global_Wirev>:
	return defaultWireConfig();
}
#endif

TwoWire& __fetch_global_Wire()
{
   d6e34:	b530      	push	{r4, r5, lr}
	static TwoWire wire(HAL_I2C_INTERFACE1, acquireWireBuffer());
   d6e36:	4d0e      	ldr	r5, [pc, #56]	; (d6e70 <_Z19__fetch_global_Wirev+0x3c>)
   d6e38:	6829      	ldr	r1, [r5, #0]
   d6e3a:	f011 0401 	ands.w	r4, r1, #1
	return defaultWireConfig();
}
#endif

TwoWire& __fetch_global_Wire()
{
   d6e3e:	b087      	sub	sp, #28
	static TwoWire wire(HAL_I2C_INTERFACE1, acquireWireBuffer());
   d6e40:	d113      	bne.n	d6e6a <_Z19__fetch_global_Wirev+0x36>
   d6e42:	4628      	mov	r0, r5
   d6e44:	f7fd f93a 	bl	d40bc <__cxa_guard_acquire>
   d6e48:	b178      	cbz	r0, d6e6a <_Z19__fetch_global_Wirev+0x36>
   d6e4a:	a801      	add	r0, sp, #4
   d6e4c:	f7ff ffd8 	bl	d6e00 <_Z17acquireWireBufferv>
   d6e50:	aa01      	add	r2, sp, #4
   d6e52:	4621      	mov	r1, r4
   d6e54:	4807      	ldr	r0, [pc, #28]	; (d6e74 <_Z19__fetch_global_Wirev+0x40>)
   d6e56:	f7fe f8cb 	bl	d4ff0 <_ZN7TwoWireC1E17HAL_I2C_InterfaceRK14HAL_I2C_Config>
   d6e5a:	4628      	mov	r0, r5
   d6e5c:	f7fd f933 	bl	d40c6 <__cxa_guard_release>
   d6e60:	4a05      	ldr	r2, [pc, #20]	; (d6e78 <_Z19__fetch_global_Wirev+0x44>)
   d6e62:	4906      	ldr	r1, [pc, #24]	; (d6e7c <_Z19__fetch_global_Wirev+0x48>)
   d6e64:	4803      	ldr	r0, [pc, #12]	; (d6e74 <_Z19__fetch_global_Wirev+0x40>)
   d6e66:	f000 f82b 	bl	d6ec0 <__aeabi_atexit>
	return wire;
}
   d6e6a:	4802      	ldr	r0, [pc, #8]	; (d6e74 <_Z19__fetch_global_Wirev+0x40>)
   d6e6c:	b007      	add	sp, #28
   d6e6e:	bd30      	pop	{r4, r5, pc}
   d6e70:	2003e724 	.word	0x2003e724
   d6e74:	2003e728 	.word	0x2003e728
   d6e78:	2003e2e8 	.word	0x2003e2e8
   d6e7c:	000d4f99 	.word	0x000d4f99

000d6e80 <_ZN8particle7globals11instanceSpiEv>:
#ifndef SPARK_WIRING_NO_SPI

namespace particle {
namespace globals {

SPIClass& instanceSpi() {
   d6e80:	b538      	push	{r3, r4, r5, lr}
    static SPIClass instance(HAL_SPI_INTERFACE1);
   d6e82:	4d0b      	ldr	r5, [pc, #44]	; (d6eb0 <_ZN8particle7globals11instanceSpiEv+0x30>)
   d6e84:	6829      	ldr	r1, [r5, #0]
   d6e86:	f011 0401 	ands.w	r4, r1, #1
   d6e8a:	d10f      	bne.n	d6eac <_ZN8particle7globals11instanceSpiEv+0x2c>
   d6e8c:	4628      	mov	r0, r5
   d6e8e:	f7fd f915 	bl	d40bc <__cxa_guard_acquire>
   d6e92:	b158      	cbz	r0, d6eac <_ZN8particle7globals11instanceSpiEv+0x2c>
   d6e94:	4621      	mov	r1, r4
   d6e96:	4807      	ldr	r0, [pc, #28]	; (d6eb4 <_ZN8particle7globals11instanceSpiEv+0x34>)
   d6e98:	f7ff fcc0 	bl	d681c <_ZN8SPIClassC1E17HAL_SPI_Interface>
   d6e9c:	4628      	mov	r0, r5
   d6e9e:	f7fd f912 	bl	d40c6 <__cxa_guard_release>
   d6ea2:	4a05      	ldr	r2, [pc, #20]	; (d6eb8 <_ZN8particle7globals11instanceSpiEv+0x38>)
   d6ea4:	4905      	ldr	r1, [pc, #20]	; (d6ebc <_ZN8particle7globals11instanceSpiEv+0x3c>)
   d6ea6:	4803      	ldr	r0, [pc, #12]	; (d6eb4 <_ZN8particle7globals11instanceSpiEv+0x34>)
   d6ea8:	f000 f80a 	bl	d6ec0 <__aeabi_atexit>
    return instance;
}
   d6eac:	4801      	ldr	r0, [pc, #4]	; (d6eb4 <_ZN8particle7globals11instanceSpiEv+0x34>)
   d6eae:	bd38      	pop	{r3, r4, r5, pc}
   d6eb0:	2003e748 	.word	0x2003e748
   d6eb4:	2003e73c 	.word	0x2003e73c
   d6eb8:	2003e2e8 	.word	0x2003e2e8
   d6ebc:	000d680d 	.word	0x000d680d

000d6ec0 <__aeabi_atexit>:
   d6ec0:	460b      	mov	r3, r1
   d6ec2:	4601      	mov	r1, r0
   d6ec4:	4618      	mov	r0, r3
   d6ec6:	f000 bd81 	b.w	d79cc <__cxa_atexit>

000d6eca <_ZdlPvj>:
   d6eca:	f7fd b8e8 	b.w	d409e <_ZdlPv>
	...

000d6ed0 <_ZSt15get_new_handlerv>:
   d6ed0:	4b02      	ldr	r3, [pc, #8]	; (d6edc <_ZSt15get_new_handlerv+0xc>)
   d6ed2:	6818      	ldr	r0, [r3, #0]
   d6ed4:	f3bf 8f5f 	dmb	sy
   d6ed8:	4770      	bx	lr
   d6eda:	bf00      	nop
   d6edc:	2003e74c 	.word	0x2003e74c

000d6ee0 <_ZnwjRKSt9nothrow_t>:
   d6ee0:	b510      	push	{r4, lr}
   d6ee2:	2800      	cmp	r0, #0
   d6ee4:	bf14      	ite	ne
   d6ee6:	4604      	movne	r4, r0
   d6ee8:	2401      	moveq	r4, #1
   d6eea:	4620      	mov	r0, r4
   d6eec:	f7fd fc9a 	bl	d4824 <malloc>
   d6ef0:	b920      	cbnz	r0, d6efc <_ZnwjRKSt9nothrow_t+0x1c>
   d6ef2:	f7ff ffed 	bl	d6ed0 <_ZSt15get_new_handlerv>
   d6ef6:	b108      	cbz	r0, d6efc <_ZnwjRKSt9nothrow_t+0x1c>
   d6ef8:	4780      	blx	r0
   d6efa:	e7f6      	b.n	d6eea <_ZnwjRKSt9nothrow_t+0xa>
   d6efc:	bd10      	pop	{r4, pc}

000d6efe <_ZnajRKSt9nothrow_t>:
   d6efe:	f7ff bfef 	b.w	d6ee0 <_ZnwjRKSt9nothrow_t>

000d6f02 <_ZSt25__throw_bad_function_callv>:
   d6f02:	b508      	push	{r3, lr}
   d6f04:	f7fd fcb6 	bl	d4874 <abort>

000d6f08 <_GLOBAL__sub_I__ZNSt12ctype_bynameIwEC2ERKSsj>:
   d6f08:	4b24      	ldr	r3, [pc, #144]	; (d6f9c <_GLOBAL__sub_I__ZNSt12ctype_bynameIwEC2ERKSsj+0x94>)
   d6f0a:	681a      	ldr	r2, [r3, #0]
   d6f0c:	07d0      	lsls	r0, r2, #31
   d6f0e:	bf5c      	itt	pl
   d6f10:	2201      	movpl	r2, #1
   d6f12:	601a      	strpl	r2, [r3, #0]
   d6f14:	4b22      	ldr	r3, [pc, #136]	; (d6fa0 <_GLOBAL__sub_I__ZNSt12ctype_bynameIwEC2ERKSsj+0x98>)
   d6f16:	681a      	ldr	r2, [r3, #0]
   d6f18:	07d1      	lsls	r1, r2, #31
   d6f1a:	bf5c      	itt	pl
   d6f1c:	2201      	movpl	r2, #1
   d6f1e:	601a      	strpl	r2, [r3, #0]
   d6f20:	4b20      	ldr	r3, [pc, #128]	; (d6fa4 <_GLOBAL__sub_I__ZNSt12ctype_bynameIwEC2ERKSsj+0x9c>)
   d6f22:	681a      	ldr	r2, [r3, #0]
   d6f24:	07d2      	lsls	r2, r2, #31
   d6f26:	bf5c      	itt	pl
   d6f28:	2201      	movpl	r2, #1
   d6f2a:	601a      	strpl	r2, [r3, #0]
   d6f2c:	4b1e      	ldr	r3, [pc, #120]	; (d6fa8 <_GLOBAL__sub_I__ZNSt12ctype_bynameIwEC2ERKSsj+0xa0>)
   d6f2e:	681a      	ldr	r2, [r3, #0]
   d6f30:	07d0      	lsls	r0, r2, #31
   d6f32:	bf5c      	itt	pl
   d6f34:	2201      	movpl	r2, #1
   d6f36:	601a      	strpl	r2, [r3, #0]
   d6f38:	4b1c      	ldr	r3, [pc, #112]	; (d6fac <_GLOBAL__sub_I__ZNSt12ctype_bynameIwEC2ERKSsj+0xa4>)
   d6f3a:	681a      	ldr	r2, [r3, #0]
   d6f3c:	07d1      	lsls	r1, r2, #31
   d6f3e:	bf5c      	itt	pl
   d6f40:	2201      	movpl	r2, #1
   d6f42:	601a      	strpl	r2, [r3, #0]
   d6f44:	4b1a      	ldr	r3, [pc, #104]	; (d6fb0 <_GLOBAL__sub_I__ZNSt12ctype_bynameIwEC2ERKSsj+0xa8>)
   d6f46:	681a      	ldr	r2, [r3, #0]
   d6f48:	07d2      	lsls	r2, r2, #31
   d6f4a:	bf5c      	itt	pl
   d6f4c:	2201      	movpl	r2, #1
   d6f4e:	601a      	strpl	r2, [r3, #0]
   d6f50:	4b18      	ldr	r3, [pc, #96]	; (d6fb4 <_GLOBAL__sub_I__ZNSt12ctype_bynameIwEC2ERKSsj+0xac>)
   d6f52:	681a      	ldr	r2, [r3, #0]
   d6f54:	07d0      	lsls	r0, r2, #31
   d6f56:	bf5c      	itt	pl
   d6f58:	2201      	movpl	r2, #1
   d6f5a:	601a      	strpl	r2, [r3, #0]
   d6f5c:	4b16      	ldr	r3, [pc, #88]	; (d6fb8 <_GLOBAL__sub_I__ZNSt12ctype_bynameIwEC2ERKSsj+0xb0>)
   d6f5e:	681a      	ldr	r2, [r3, #0]
   d6f60:	07d1      	lsls	r1, r2, #31
   d6f62:	bf5c      	itt	pl
   d6f64:	2201      	movpl	r2, #1
   d6f66:	601a      	strpl	r2, [r3, #0]
   d6f68:	4b14      	ldr	r3, [pc, #80]	; (d6fbc <_GLOBAL__sub_I__ZNSt12ctype_bynameIwEC2ERKSsj+0xb4>)
   d6f6a:	681a      	ldr	r2, [r3, #0]
   d6f6c:	07d2      	lsls	r2, r2, #31
   d6f6e:	bf5c      	itt	pl
   d6f70:	2201      	movpl	r2, #1
   d6f72:	601a      	strpl	r2, [r3, #0]
   d6f74:	4b12      	ldr	r3, [pc, #72]	; (d6fc0 <_GLOBAL__sub_I__ZNSt12ctype_bynameIwEC2ERKSsj+0xb8>)
   d6f76:	681a      	ldr	r2, [r3, #0]
   d6f78:	07d0      	lsls	r0, r2, #31
   d6f7a:	bf5c      	itt	pl
   d6f7c:	2201      	movpl	r2, #1
   d6f7e:	601a      	strpl	r2, [r3, #0]
   d6f80:	4b10      	ldr	r3, [pc, #64]	; (d6fc4 <_GLOBAL__sub_I__ZNSt12ctype_bynameIwEC2ERKSsj+0xbc>)
   d6f82:	681a      	ldr	r2, [r3, #0]
   d6f84:	07d1      	lsls	r1, r2, #31
   d6f86:	bf5c      	itt	pl
   d6f88:	2201      	movpl	r2, #1
   d6f8a:	601a      	strpl	r2, [r3, #0]
   d6f8c:	4b0e      	ldr	r3, [pc, #56]	; (d6fc8 <_GLOBAL__sub_I__ZNSt12ctype_bynameIwEC2ERKSsj+0xc0>)
   d6f8e:	681a      	ldr	r2, [r3, #0]
   d6f90:	07d2      	lsls	r2, r2, #31
   d6f92:	bf5c      	itt	pl
   d6f94:	2201      	movpl	r2, #1
   d6f96:	601a      	strpl	r2, [r3, #0]
   d6f98:	4770      	bx	lr
   d6f9a:	bf00      	nop
   d6f9c:	2003e77c 	.word	0x2003e77c
   d6fa0:	2003e778 	.word	0x2003e778
   d6fa4:	2003e774 	.word	0x2003e774
   d6fa8:	2003e770 	.word	0x2003e770
   d6fac:	2003e76c 	.word	0x2003e76c
   d6fb0:	2003e768 	.word	0x2003e768
   d6fb4:	2003e764 	.word	0x2003e764
   d6fb8:	2003e760 	.word	0x2003e760
   d6fbc:	2003e75c 	.word	0x2003e75c
   d6fc0:	2003e758 	.word	0x2003e758
   d6fc4:	2003e754 	.word	0x2003e754
   d6fc8:	2003e750 	.word	0x2003e750

000d6fcc <_GLOBAL__sub_I__ZNSt12ctype_bynameIcEC2ERKNSt7__cxx1112basic_stringIcSt11char_traitsIcESaIcEEEj>:
   d6fcc:	4b18      	ldr	r3, [pc, #96]	; (d7030 <_GLOBAL__sub_I__ZNSt12ctype_bynameIcEC2ERKNSt7__cxx1112basic_stringIcSt11char_traitsIcESaIcEEEj+0x64>)
   d6fce:	681a      	ldr	r2, [r3, #0]
   d6fd0:	07d1      	lsls	r1, r2, #31
   d6fd2:	bf5c      	itt	pl
   d6fd4:	2201      	movpl	r2, #1
   d6fd6:	601a      	strpl	r2, [r3, #0]
   d6fd8:	4b16      	ldr	r3, [pc, #88]	; (d7034 <_GLOBAL__sub_I__ZNSt12ctype_bynameIcEC2ERKNSt7__cxx1112basic_stringIcSt11char_traitsIcESaIcEEEj+0x68>)
   d6fda:	681a      	ldr	r2, [r3, #0]
   d6fdc:	07d2      	lsls	r2, r2, #31
   d6fde:	bf5c      	itt	pl
   d6fe0:	2201      	movpl	r2, #1
   d6fe2:	601a      	strpl	r2, [r3, #0]
   d6fe4:	4b14      	ldr	r3, [pc, #80]	; (d7038 <_GLOBAL__sub_I__ZNSt12ctype_bynameIcEC2ERKNSt7__cxx1112basic_stringIcSt11char_traitsIcESaIcEEEj+0x6c>)
   d6fe6:	681a      	ldr	r2, [r3, #0]
   d6fe8:	07d0      	lsls	r0, r2, #31
   d6fea:	bf5c      	itt	pl
   d6fec:	2201      	movpl	r2, #1
   d6fee:	601a      	strpl	r2, [r3, #0]
   d6ff0:	4b12      	ldr	r3, [pc, #72]	; (d703c <_GLOBAL__sub_I__ZNSt12ctype_bynameIcEC2ERKNSt7__cxx1112basic_stringIcSt11char_traitsIcESaIcEEEj+0x70>)
   d6ff2:	681a      	ldr	r2, [r3, #0]
   d6ff4:	07d1      	lsls	r1, r2, #31
   d6ff6:	bf5c      	itt	pl
   d6ff8:	2201      	movpl	r2, #1
   d6ffa:	601a      	strpl	r2, [r3, #0]
   d6ffc:	4b10      	ldr	r3, [pc, #64]	; (d7040 <_GLOBAL__sub_I__ZNSt12ctype_bynameIcEC2ERKNSt7__cxx1112basic_stringIcSt11char_traitsIcESaIcEEEj+0x74>)
   d6ffe:	681a      	ldr	r2, [r3, #0]
   d7000:	07d2      	lsls	r2, r2, #31
   d7002:	bf5c      	itt	pl
   d7004:	2201      	movpl	r2, #1
   d7006:	601a      	strpl	r2, [r3, #0]
   d7008:	4b0e      	ldr	r3, [pc, #56]	; (d7044 <_GLOBAL__sub_I__ZNSt12ctype_bynameIcEC2ERKNSt7__cxx1112basic_stringIcSt11char_traitsIcESaIcEEEj+0x78>)
   d700a:	681a      	ldr	r2, [r3, #0]
   d700c:	07d0      	lsls	r0, r2, #31
   d700e:	bf5c      	itt	pl
   d7010:	2201      	movpl	r2, #1
   d7012:	601a      	strpl	r2, [r3, #0]
   d7014:	4b0c      	ldr	r3, [pc, #48]	; (d7048 <_GLOBAL__sub_I__ZNSt12ctype_bynameIcEC2ERKNSt7__cxx1112basic_stringIcSt11char_traitsIcESaIcEEEj+0x7c>)
   d7016:	681a      	ldr	r2, [r3, #0]
   d7018:	07d1      	lsls	r1, r2, #31
   d701a:	bf5c      	itt	pl
   d701c:	2201      	movpl	r2, #1
   d701e:	601a      	strpl	r2, [r3, #0]
   d7020:	4b0a      	ldr	r3, [pc, #40]	; (d704c <_GLOBAL__sub_I__ZNSt12ctype_bynameIcEC2ERKNSt7__cxx1112basic_stringIcSt11char_traitsIcESaIcEEEj+0x80>)
   d7022:	681a      	ldr	r2, [r3, #0]
   d7024:	07d2      	lsls	r2, r2, #31
   d7026:	bf5c      	itt	pl
   d7028:	2201      	movpl	r2, #1
   d702a:	601a      	strpl	r2, [r3, #0]
   d702c:	4770      	bx	lr
   d702e:	bf00      	nop
   d7030:	2003e79c 	.word	0x2003e79c
   d7034:	2003e798 	.word	0x2003e798
   d7038:	2003e794 	.word	0x2003e794
   d703c:	2003e790 	.word	0x2003e790
   d7040:	2003e78c 	.word	0x2003e78c
   d7044:	2003e788 	.word	0x2003e788
   d7048:	2003e784 	.word	0x2003e784
   d704c:	2003e780 	.word	0x2003e780

000d7050 <_GLOBAL__sub_I__ZNSt12ctype_bynameIwEC2ERKNSt7__cxx1112basic_stringIcSt11char_traitsIcESaIcEEEj>:
   d7050:	4b18      	ldr	r3, [pc, #96]	; (d70b4 <_GLOBAL__sub_I__ZNSt12ctype_bynameIwEC2ERKNSt7__cxx1112basic_stringIcSt11char_traitsIcESaIcEEEj+0x64>)
   d7052:	681a      	ldr	r2, [r3, #0]
   d7054:	07d1      	lsls	r1, r2, #31
   d7056:	bf5c      	itt	pl
   d7058:	2201      	movpl	r2, #1
   d705a:	601a      	strpl	r2, [r3, #0]
   d705c:	4b16      	ldr	r3, [pc, #88]	; (d70b8 <_GLOBAL__sub_I__ZNSt12ctype_bynameIwEC2ERKNSt7__cxx1112basic_stringIcSt11char_traitsIcESaIcEEEj+0x68>)
   d705e:	681a      	ldr	r2, [r3, #0]
   d7060:	07d2      	lsls	r2, r2, #31
   d7062:	bf5c      	itt	pl
   d7064:	2201      	movpl	r2, #1
   d7066:	601a      	strpl	r2, [r3, #0]
   d7068:	4b14      	ldr	r3, [pc, #80]	; (d70bc <_GLOBAL__sub_I__ZNSt12ctype_bynameIwEC2ERKNSt7__cxx1112basic_stringIcSt11char_traitsIcESaIcEEEj+0x6c>)
   d706a:	681a      	ldr	r2, [r3, #0]
   d706c:	07d0      	lsls	r0, r2, #31
   d706e:	bf5c      	itt	pl
   d7070:	2201      	movpl	r2, #1
   d7072:	601a      	strpl	r2, [r3, #0]
   d7074:	4b12      	ldr	r3, [pc, #72]	; (d70c0 <_GLOBAL__sub_I__ZNSt12ctype_bynameIwEC2ERKNSt7__cxx1112basic_stringIcSt11char_traitsIcESaIcEEEj+0x70>)
   d7076:	681a      	ldr	r2, [r3, #0]
   d7078:	07d1      	lsls	r1, r2, #31
   d707a:	bf5c      	itt	pl
   d707c:	2201      	movpl	r2, #1
   d707e:	601a      	strpl	r2, [r3, #0]
   d7080:	4b10      	ldr	r3, [pc, #64]	; (d70c4 <_GLOBAL__sub_I__ZNSt12ctype_bynameIwEC2ERKNSt7__cxx1112basic_stringIcSt11char_traitsIcESaIcEEEj+0x74>)
   d7082:	681a      	ldr	r2, [r3, #0]
   d7084:	07d2      	lsls	r2, r2, #31
   d7086:	bf5c      	itt	pl
   d7088:	2201      	movpl	r2, #1
   d708a:	601a      	strpl	r2, [r3, #0]
   d708c:	4b0e      	ldr	r3, [pc, #56]	; (d70c8 <_GLOBAL__sub_I__ZNSt12ctype_bynameIwEC2ERKNSt7__cxx1112basic_stringIcSt11char_traitsIcESaIcEEEj+0x78>)
   d708e:	681a      	ldr	r2, [r3, #0]
   d7090:	07d0      	lsls	r0, r2, #31
   d7092:	bf5c      	itt	pl
   d7094:	2201      	movpl	r2, #1
   d7096:	601a      	strpl	r2, [r3, #0]
   d7098:	4b0c      	ldr	r3, [pc, #48]	; (d70cc <_GLOBAL__sub_I__ZNSt12ctype_bynameIwEC2ERKNSt7__cxx1112basic_stringIcSt11char_traitsIcESaIcEEEj+0x7c>)
   d709a:	681a      	ldr	r2, [r3, #0]
   d709c:	07d1      	lsls	r1, r2, #31
   d709e:	bf5c      	itt	pl
   d70a0:	2201      	movpl	r2, #1
   d70a2:	601a      	strpl	r2, [r3, #0]
   d70a4:	4b0a      	ldr	r3, [pc, #40]	; (d70d0 <_GLOBAL__sub_I__ZNSt12ctype_bynameIwEC2ERKNSt7__cxx1112basic_stringIcSt11char_traitsIcESaIcEEEj+0x80>)
   d70a6:	681a      	ldr	r2, [r3, #0]
   d70a8:	07d2      	lsls	r2, r2, #31
   d70aa:	bf5c      	itt	pl
   d70ac:	2201      	movpl	r2, #1
   d70ae:	601a      	strpl	r2, [r3, #0]
   d70b0:	4770      	bx	lr
   d70b2:	bf00      	nop
   d70b4:	2003e7bc 	.word	0x2003e7bc
   d70b8:	2003e7b8 	.word	0x2003e7b8
   d70bc:	2003e7b4 	.word	0x2003e7b4
   d70c0:	2003e7b0 	.word	0x2003e7b0
   d70c4:	2003e7ac 	.word	0x2003e7ac
   d70c8:	2003e7a8 	.word	0x2003e7a8
   d70cc:	2003e7a4 	.word	0x2003e7a4
   d70d0:	2003e7a0 	.word	0x2003e7a0

000d70d4 <_GLOBAL__sub_I__ZNSt12ctype_bynameIcEC2ERKSsj>:
   d70d4:	4b24      	ldr	r3, [pc, #144]	; (d7168 <_GLOBAL__sub_I__ZNSt12ctype_bynameIcEC2ERKSsj+0x94>)
   d70d6:	681a      	ldr	r2, [r3, #0]
   d70d8:	07d0      	lsls	r0, r2, #31
   d70da:	bf5c      	itt	pl
   d70dc:	2201      	movpl	r2, #1
   d70de:	601a      	strpl	r2, [r3, #0]
   d70e0:	4b22      	ldr	r3, [pc, #136]	; (d716c <_GLOBAL__sub_I__ZNSt12ctype_bynameIcEC2ERKSsj+0x98>)
   d70e2:	681a      	ldr	r2, [r3, #0]
   d70e4:	07d1      	lsls	r1, r2, #31
   d70e6:	bf5c      	itt	pl
   d70e8:	2201      	movpl	r2, #1
   d70ea:	601a      	strpl	r2, [r3, #0]
   d70ec:	4b20      	ldr	r3, [pc, #128]	; (d7170 <_GLOBAL__sub_I__ZNSt12ctype_bynameIcEC2ERKSsj+0x9c>)
   d70ee:	681a      	ldr	r2, [r3, #0]
   d70f0:	07d2      	lsls	r2, r2, #31
   d70f2:	bf5c      	itt	pl
   d70f4:	2201      	movpl	r2, #1
   d70f6:	601a      	strpl	r2, [r3, #0]
   d70f8:	4b1e      	ldr	r3, [pc, #120]	; (d7174 <_GLOBAL__sub_I__ZNSt12ctype_bynameIcEC2ERKSsj+0xa0>)
   d70fa:	681a      	ldr	r2, [r3, #0]
   d70fc:	07d0      	lsls	r0, r2, #31
   d70fe:	bf5c      	itt	pl
   d7100:	2201      	movpl	r2, #1
   d7102:	601a      	strpl	r2, [r3, #0]
   d7104:	4b1c      	ldr	r3, [pc, #112]	; (d7178 <_GLOBAL__sub_I__ZNSt12ctype_bynameIcEC2ERKSsj+0xa4>)
   d7106:	681a      	ldr	r2, [r3, #0]
   d7108:	07d1      	lsls	r1, r2, #31
   d710a:	bf5c      	itt	pl
   d710c:	2201      	movpl	r2, #1
   d710e:	601a      	strpl	r2, [r3, #0]
   d7110:	4b1a      	ldr	r3, [pc, #104]	; (d717c <_GLOBAL__sub_I__ZNSt12ctype_bynameIcEC2ERKSsj+0xa8>)
   d7112:	681a      	ldr	r2, [r3, #0]
   d7114:	07d2      	lsls	r2, r2, #31
   d7116:	bf5c      	itt	pl
   d7118:	2201      	movpl	r2, #1
   d711a:	601a      	strpl	r2, [r3, #0]
   d711c:	4b18      	ldr	r3, [pc, #96]	; (d7180 <_GLOBAL__sub_I__ZNSt12ctype_bynameIcEC2ERKSsj+0xac>)
   d711e:	681a      	ldr	r2, [r3, #0]
   d7120:	07d0      	lsls	r0, r2, #31
   d7122:	bf5c      	itt	pl
   d7124:	2201      	movpl	r2, #1
   d7126:	601a      	strpl	r2, [r3, #0]
   d7128:	4b16      	ldr	r3, [pc, #88]	; (d7184 <_GLOBAL__sub_I__ZNSt12ctype_bynameIcEC2ERKSsj+0xb0>)
   d712a:	681a      	ldr	r2, [r3, #0]
   d712c:	07d1      	lsls	r1, r2, #31
   d712e:	bf5c      	itt	pl
   d7130:	2201      	movpl	r2, #1
   d7132:	601a      	strpl	r2, [r3, #0]
   d7134:	4b14      	ldr	r3, [pc, #80]	; (d7188 <_GLOBAL__sub_I__ZNSt12ctype_bynameIcEC2ERKSsj+0xb4>)
   d7136:	681a      	ldr	r2, [r3, #0]
   d7138:	07d2      	lsls	r2, r2, #31
   d713a:	bf5c      	itt	pl
   d713c:	2201      	movpl	r2, #1
   d713e:	601a      	strpl	r2, [r3, #0]
   d7140:	4b12      	ldr	r3, [pc, #72]	; (d718c <_GLOBAL__sub_I__ZNSt12ctype_bynameIcEC2ERKSsj+0xb8>)
   d7142:	681a      	ldr	r2, [r3, #0]
   d7144:	07d0      	lsls	r0, r2, #31
   d7146:	bf5c      	itt	pl
   d7148:	2201      	movpl	r2, #1
   d714a:	601a      	strpl	r2, [r3, #0]
   d714c:	4b10      	ldr	r3, [pc, #64]	; (d7190 <_GLOBAL__sub_I__ZNSt12ctype_bynameIcEC2ERKSsj+0xbc>)
   d714e:	681a      	ldr	r2, [r3, #0]
   d7150:	07d1      	lsls	r1, r2, #31
   d7152:	bf5c      	itt	pl
   d7154:	2201      	movpl	r2, #1
   d7156:	601a      	strpl	r2, [r3, #0]
   d7158:	4b0e      	ldr	r3, [pc, #56]	; (d7194 <_GLOBAL__sub_I__ZNSt12ctype_bynameIcEC2ERKSsj+0xc0>)
   d715a:	681a      	ldr	r2, [r3, #0]
   d715c:	07d2      	lsls	r2, r2, #31
   d715e:	bf5c      	itt	pl
   d7160:	2201      	movpl	r2, #1
   d7162:	601a      	strpl	r2, [r3, #0]
   d7164:	4770      	bx	lr
   d7166:	bf00      	nop
   d7168:	2003e7ec 	.word	0x2003e7ec
   d716c:	2003e7e8 	.word	0x2003e7e8
   d7170:	2003e7e4 	.word	0x2003e7e4
   d7174:	2003e7e0 	.word	0x2003e7e0
   d7178:	2003e7dc 	.word	0x2003e7dc
   d717c:	2003e7d8 	.word	0x2003e7d8
   d7180:	2003e7d4 	.word	0x2003e7d4
   d7184:	2003e7d0 	.word	0x2003e7d0
   d7188:	2003e7cc 	.word	0x2003e7cc
   d718c:	2003e7c8 	.word	0x2003e7c8
   d7190:	2003e7c4 	.word	0x2003e7c4
   d7194:	2003e7c0 	.word	0x2003e7c0

000d7198 <__aeabi_drsub>:
   d7198:	f081 4100 	eor.w	r1, r1, #2147483648	; 0x80000000
   d719c:	e002      	b.n	d71a4 <__adddf3>
   d719e:	bf00      	nop

000d71a0 <__aeabi_dsub>:
   d71a0:	f083 4300 	eor.w	r3, r3, #2147483648	; 0x80000000

000d71a4 <__adddf3>:
   d71a4:	b530      	push	{r4, r5, lr}
   d71a6:	ea4f 0441 	mov.w	r4, r1, lsl #1
   d71aa:	ea4f 0543 	mov.w	r5, r3, lsl #1
   d71ae:	ea94 0f05 	teq	r4, r5
   d71b2:	bf08      	it	eq
   d71b4:	ea90 0f02 	teqeq	r0, r2
   d71b8:	bf1f      	itttt	ne
   d71ba:	ea54 0c00 	orrsne.w	ip, r4, r0
   d71be:	ea55 0c02 	orrsne.w	ip, r5, r2
   d71c2:	ea7f 5c64 	mvnsne.w	ip, r4, asr #21
   d71c6:	ea7f 5c65 	mvnsne.w	ip, r5, asr #21
   d71ca:	f000 80e2 	beq.w	d7392 <__adddf3+0x1ee>
   d71ce:	ea4f 5454 	mov.w	r4, r4, lsr #21
   d71d2:	ebd4 5555 	rsbs	r5, r4, r5, lsr #21
   d71d6:	bfb8      	it	lt
   d71d8:	426d      	neglt	r5, r5
   d71da:	dd0c      	ble.n	d71f6 <__adddf3+0x52>
   d71dc:	442c      	add	r4, r5
   d71de:	ea80 0202 	eor.w	r2, r0, r2
   d71e2:	ea81 0303 	eor.w	r3, r1, r3
   d71e6:	ea82 0000 	eor.w	r0, r2, r0
   d71ea:	ea83 0101 	eor.w	r1, r3, r1
   d71ee:	ea80 0202 	eor.w	r2, r0, r2
   d71f2:	ea81 0303 	eor.w	r3, r1, r3
   d71f6:	2d36      	cmp	r5, #54	; 0x36
   d71f8:	bf88      	it	hi
   d71fa:	bd30      	pophi	{r4, r5, pc}
   d71fc:	f011 4f00 	tst.w	r1, #2147483648	; 0x80000000
   d7200:	ea4f 3101 	mov.w	r1, r1, lsl #12
   d7204:	f44f 1c80 	mov.w	ip, #1048576	; 0x100000
   d7208:	ea4c 3111 	orr.w	r1, ip, r1, lsr #12
   d720c:	d002      	beq.n	d7214 <__adddf3+0x70>
   d720e:	4240      	negs	r0, r0
   d7210:	eb61 0141 	sbc.w	r1, r1, r1, lsl #1
   d7214:	f013 4f00 	tst.w	r3, #2147483648	; 0x80000000
   d7218:	ea4f 3303 	mov.w	r3, r3, lsl #12
   d721c:	ea4c 3313 	orr.w	r3, ip, r3, lsr #12
   d7220:	d002      	beq.n	d7228 <__adddf3+0x84>
   d7222:	4252      	negs	r2, r2
   d7224:	eb63 0343 	sbc.w	r3, r3, r3, lsl #1
   d7228:	ea94 0f05 	teq	r4, r5
   d722c:	f000 80a7 	beq.w	d737e <__adddf3+0x1da>
   d7230:	f1a4 0401 	sub.w	r4, r4, #1
   d7234:	f1d5 0e20 	rsbs	lr, r5, #32
   d7238:	db0d      	blt.n	d7256 <__adddf3+0xb2>
   d723a:	fa02 fc0e 	lsl.w	ip, r2, lr
   d723e:	fa22 f205 	lsr.w	r2, r2, r5
   d7242:	1880      	adds	r0, r0, r2
   d7244:	f141 0100 	adc.w	r1, r1, #0
   d7248:	fa03 f20e 	lsl.w	r2, r3, lr
   d724c:	1880      	adds	r0, r0, r2
   d724e:	fa43 f305 	asr.w	r3, r3, r5
   d7252:	4159      	adcs	r1, r3
   d7254:	e00e      	b.n	d7274 <__adddf3+0xd0>
   d7256:	f1a5 0520 	sub.w	r5, r5, #32
   d725a:	f10e 0e20 	add.w	lr, lr, #32
   d725e:	2a01      	cmp	r2, #1
   d7260:	fa03 fc0e 	lsl.w	ip, r3, lr
   d7264:	bf28      	it	cs
   d7266:	f04c 0c02 	orrcs.w	ip, ip, #2
   d726a:	fa43 f305 	asr.w	r3, r3, r5
   d726e:	18c0      	adds	r0, r0, r3
   d7270:	eb51 71e3 	adcs.w	r1, r1, r3, asr #31
   d7274:	f001 4500 	and.w	r5, r1, #2147483648	; 0x80000000
   d7278:	d507      	bpl.n	d728a <__adddf3+0xe6>
   d727a:	f04f 0e00 	mov.w	lr, #0
   d727e:	f1dc 0c00 	rsbs	ip, ip, #0
   d7282:	eb7e 0000 	sbcs.w	r0, lr, r0
   d7286:	eb6e 0101 	sbc.w	r1, lr, r1
   d728a:	f5b1 1f80 	cmp.w	r1, #1048576	; 0x100000
   d728e:	d31b      	bcc.n	d72c8 <__adddf3+0x124>
   d7290:	f5b1 1f00 	cmp.w	r1, #2097152	; 0x200000
   d7294:	d30c      	bcc.n	d72b0 <__adddf3+0x10c>
   d7296:	0849      	lsrs	r1, r1, #1
   d7298:	ea5f 0030 	movs.w	r0, r0, rrx
   d729c:	ea4f 0c3c 	mov.w	ip, ip, rrx
   d72a0:	f104 0401 	add.w	r4, r4, #1
   d72a4:	ea4f 5244 	mov.w	r2, r4, lsl #21
   d72a8:	f512 0f80 	cmn.w	r2, #4194304	; 0x400000
   d72ac:	f080 809a 	bcs.w	d73e4 <__adddf3+0x240>
   d72b0:	f1bc 4f00 	cmp.w	ip, #2147483648	; 0x80000000
   d72b4:	bf08      	it	eq
   d72b6:	ea5f 0c50 	movseq.w	ip, r0, lsr #1
   d72ba:	f150 0000 	adcs.w	r0, r0, #0
   d72be:	eb41 5104 	adc.w	r1, r1, r4, lsl #20
   d72c2:	ea41 0105 	orr.w	r1, r1, r5
   d72c6:	bd30      	pop	{r4, r5, pc}
   d72c8:	ea5f 0c4c 	movs.w	ip, ip, lsl #1
   d72cc:	4140      	adcs	r0, r0
   d72ce:	eb41 0101 	adc.w	r1, r1, r1
   d72d2:	f411 1f80 	tst.w	r1, #1048576	; 0x100000
   d72d6:	f1a4 0401 	sub.w	r4, r4, #1
   d72da:	d1e9      	bne.n	d72b0 <__adddf3+0x10c>
   d72dc:	f091 0f00 	teq	r1, #0
   d72e0:	bf04      	itt	eq
   d72e2:	4601      	moveq	r1, r0
   d72e4:	2000      	moveq	r0, #0
   d72e6:	fab1 f381 	clz	r3, r1
   d72ea:	bf08      	it	eq
   d72ec:	3320      	addeq	r3, #32
   d72ee:	f1a3 030b 	sub.w	r3, r3, #11
   d72f2:	f1b3 0220 	subs.w	r2, r3, #32
   d72f6:	da0c      	bge.n	d7312 <__adddf3+0x16e>
   d72f8:	320c      	adds	r2, #12
   d72fa:	dd08      	ble.n	d730e <__adddf3+0x16a>
   d72fc:	f102 0c14 	add.w	ip, r2, #20
   d7300:	f1c2 020c 	rsb	r2, r2, #12
   d7304:	fa01 f00c 	lsl.w	r0, r1, ip
   d7308:	fa21 f102 	lsr.w	r1, r1, r2
   d730c:	e00c      	b.n	d7328 <__adddf3+0x184>
   d730e:	f102 0214 	add.w	r2, r2, #20
   d7312:	bfd8      	it	le
   d7314:	f1c2 0c20 	rsble	ip, r2, #32
   d7318:	fa01 f102 	lsl.w	r1, r1, r2
   d731c:	fa20 fc0c 	lsr.w	ip, r0, ip
   d7320:	bfdc      	itt	le
   d7322:	ea41 010c 	orrle.w	r1, r1, ip
   d7326:	4090      	lslle	r0, r2
   d7328:	1ae4      	subs	r4, r4, r3
   d732a:	bfa2      	ittt	ge
   d732c:	eb01 5104 	addge.w	r1, r1, r4, lsl #20
   d7330:	4329      	orrge	r1, r5
   d7332:	bd30      	popge	{r4, r5, pc}
   d7334:	ea6f 0404 	mvn.w	r4, r4
   d7338:	3c1f      	subs	r4, #31
   d733a:	da1c      	bge.n	d7376 <__adddf3+0x1d2>
   d733c:	340c      	adds	r4, #12
   d733e:	dc0e      	bgt.n	d735e <__adddf3+0x1ba>
   d7340:	f104 0414 	add.w	r4, r4, #20
   d7344:	f1c4 0220 	rsb	r2, r4, #32
   d7348:	fa20 f004 	lsr.w	r0, r0, r4
   d734c:	fa01 f302 	lsl.w	r3, r1, r2
   d7350:	ea40 0003 	orr.w	r0, r0, r3
   d7354:	fa21 f304 	lsr.w	r3, r1, r4
   d7358:	ea45 0103 	orr.w	r1, r5, r3
   d735c:	bd30      	pop	{r4, r5, pc}
   d735e:	f1c4 040c 	rsb	r4, r4, #12
   d7362:	f1c4 0220 	rsb	r2, r4, #32
   d7366:	fa20 f002 	lsr.w	r0, r0, r2
   d736a:	fa01 f304 	lsl.w	r3, r1, r4
   d736e:	ea40 0003 	orr.w	r0, r0, r3
   d7372:	4629      	mov	r1, r5
   d7374:	bd30      	pop	{r4, r5, pc}
   d7376:	fa21 f004 	lsr.w	r0, r1, r4
   d737a:	4629      	mov	r1, r5
   d737c:	bd30      	pop	{r4, r5, pc}
   d737e:	f094 0f00 	teq	r4, #0
   d7382:	f483 1380 	eor.w	r3, r3, #1048576	; 0x100000
   d7386:	bf06      	itte	eq
   d7388:	f481 1180 	eoreq.w	r1, r1, #1048576	; 0x100000
   d738c:	3401      	addeq	r4, #1
   d738e:	3d01      	subne	r5, #1
   d7390:	e74e      	b.n	d7230 <__adddf3+0x8c>
   d7392:	ea7f 5c64 	mvns.w	ip, r4, asr #21
   d7396:	bf18      	it	ne
   d7398:	ea7f 5c65 	mvnsne.w	ip, r5, asr #21
   d739c:	d029      	beq.n	d73f2 <__adddf3+0x24e>
   d739e:	ea94 0f05 	teq	r4, r5
   d73a2:	bf08      	it	eq
   d73a4:	ea90 0f02 	teqeq	r0, r2
   d73a8:	d005      	beq.n	d73b6 <__adddf3+0x212>
   d73aa:	ea54 0c00 	orrs.w	ip, r4, r0
   d73ae:	bf04      	itt	eq
   d73b0:	4619      	moveq	r1, r3
   d73b2:	4610      	moveq	r0, r2
   d73b4:	bd30      	pop	{r4, r5, pc}
   d73b6:	ea91 0f03 	teq	r1, r3
   d73ba:	bf1e      	ittt	ne
   d73bc:	2100      	movne	r1, #0
   d73be:	2000      	movne	r0, #0
   d73c0:	bd30      	popne	{r4, r5, pc}
   d73c2:	ea5f 5c54 	movs.w	ip, r4, lsr #21
   d73c6:	d105      	bne.n	d73d4 <__adddf3+0x230>
   d73c8:	0040      	lsls	r0, r0, #1
   d73ca:	4149      	adcs	r1, r1
   d73cc:	bf28      	it	cs
   d73ce:	f041 4100 	orrcs.w	r1, r1, #2147483648	; 0x80000000
   d73d2:	bd30      	pop	{r4, r5, pc}
   d73d4:	f514 0480 	adds.w	r4, r4, #4194304	; 0x400000
   d73d8:	bf3c      	itt	cc
   d73da:	f501 1180 	addcc.w	r1, r1, #1048576	; 0x100000
   d73de:	bd30      	popcc	{r4, r5, pc}
   d73e0:	f001 4500 	and.w	r5, r1, #2147483648	; 0x80000000
   d73e4:	f045 41fe 	orr.w	r1, r5, #2130706432	; 0x7f000000
   d73e8:	f441 0170 	orr.w	r1, r1, #15728640	; 0xf00000
   d73ec:	f04f 0000 	mov.w	r0, #0
   d73f0:	bd30      	pop	{r4, r5, pc}
   d73f2:	ea7f 5c64 	mvns.w	ip, r4, asr #21
   d73f6:	bf1a      	itte	ne
   d73f8:	4619      	movne	r1, r3
   d73fa:	4610      	movne	r0, r2
   d73fc:	ea7f 5c65 	mvnseq.w	ip, r5, asr #21
   d7400:	bf1c      	itt	ne
   d7402:	460b      	movne	r3, r1
   d7404:	4602      	movne	r2, r0
   d7406:	ea50 3401 	orrs.w	r4, r0, r1, lsl #12
   d740a:	bf06      	itte	eq
   d740c:	ea52 3503 	orrseq.w	r5, r2, r3, lsl #12
   d7410:	ea91 0f03 	teqeq	r1, r3
   d7414:	f441 2100 	orrne.w	r1, r1, #524288	; 0x80000
   d7418:	bd30      	pop	{r4, r5, pc}
   d741a:	bf00      	nop

000d741c <__aeabi_ui2d>:
   d741c:	f090 0f00 	teq	r0, #0
   d7420:	bf04      	itt	eq
   d7422:	2100      	moveq	r1, #0
   d7424:	4770      	bxeq	lr
   d7426:	b530      	push	{r4, r5, lr}
   d7428:	f44f 6480 	mov.w	r4, #1024	; 0x400
   d742c:	f104 0432 	add.w	r4, r4, #50	; 0x32
   d7430:	f04f 0500 	mov.w	r5, #0
   d7434:	f04f 0100 	mov.w	r1, #0
   d7438:	e750      	b.n	d72dc <__adddf3+0x138>
   d743a:	bf00      	nop

000d743c <__aeabi_i2d>:
   d743c:	f090 0f00 	teq	r0, #0
   d7440:	bf04      	itt	eq
   d7442:	2100      	moveq	r1, #0
   d7444:	4770      	bxeq	lr
   d7446:	b530      	push	{r4, r5, lr}
   d7448:	f44f 6480 	mov.w	r4, #1024	; 0x400
   d744c:	f104 0432 	add.w	r4, r4, #50	; 0x32
   d7450:	f010 4500 	ands.w	r5, r0, #2147483648	; 0x80000000
   d7454:	bf48      	it	mi
   d7456:	4240      	negmi	r0, r0
   d7458:	f04f 0100 	mov.w	r1, #0
   d745c:	e73e      	b.n	d72dc <__adddf3+0x138>
   d745e:	bf00      	nop

000d7460 <__aeabi_f2d>:
   d7460:	0042      	lsls	r2, r0, #1
   d7462:	ea4f 01e2 	mov.w	r1, r2, asr #3
   d7466:	ea4f 0131 	mov.w	r1, r1, rrx
   d746a:	ea4f 7002 	mov.w	r0, r2, lsl #28
   d746e:	bf1f      	itttt	ne
   d7470:	f012 437f 	andsne.w	r3, r2, #4278190080	; 0xff000000
   d7474:	f093 4f7f 	teqne	r3, #4278190080	; 0xff000000
   d7478:	f081 5160 	eorne.w	r1, r1, #939524096	; 0x38000000
   d747c:	4770      	bxne	lr
   d747e:	f092 0f00 	teq	r2, #0
   d7482:	bf14      	ite	ne
   d7484:	f093 4f7f 	teqne	r3, #4278190080	; 0xff000000
   d7488:	4770      	bxeq	lr
   d748a:	b530      	push	{r4, r5, lr}
   d748c:	f44f 7460 	mov.w	r4, #896	; 0x380
   d7490:	f001 4500 	and.w	r5, r1, #2147483648	; 0x80000000
   d7494:	f021 4100 	bic.w	r1, r1, #2147483648	; 0x80000000
   d7498:	e720      	b.n	d72dc <__adddf3+0x138>
   d749a:	bf00      	nop

000d749c <__aeabi_ul2d>:
   d749c:	ea50 0201 	orrs.w	r2, r0, r1
   d74a0:	bf08      	it	eq
   d74a2:	4770      	bxeq	lr
   d74a4:	b530      	push	{r4, r5, lr}
   d74a6:	f04f 0500 	mov.w	r5, #0
   d74aa:	e00a      	b.n	d74c2 <__aeabi_l2d+0x16>

000d74ac <__aeabi_l2d>:
   d74ac:	ea50 0201 	orrs.w	r2, r0, r1
   d74b0:	bf08      	it	eq
   d74b2:	4770      	bxeq	lr
   d74b4:	b530      	push	{r4, r5, lr}
   d74b6:	f011 4500 	ands.w	r5, r1, #2147483648	; 0x80000000
   d74ba:	d502      	bpl.n	d74c2 <__aeabi_l2d+0x16>
   d74bc:	4240      	negs	r0, r0
   d74be:	eb61 0141 	sbc.w	r1, r1, r1, lsl #1
   d74c2:	f44f 6480 	mov.w	r4, #1024	; 0x400
   d74c6:	f104 0432 	add.w	r4, r4, #50	; 0x32
   d74ca:	ea5f 5c91 	movs.w	ip, r1, lsr #22
   d74ce:	f43f aedc 	beq.w	d728a <__adddf3+0xe6>
   d74d2:	f04f 0203 	mov.w	r2, #3
   d74d6:	ea5f 0cdc 	movs.w	ip, ip, lsr #3
   d74da:	bf18      	it	ne
   d74dc:	3203      	addne	r2, #3
   d74de:	ea5f 0cdc 	movs.w	ip, ip, lsr #3
   d74e2:	bf18      	it	ne
   d74e4:	3203      	addne	r2, #3
   d74e6:	eb02 02dc 	add.w	r2, r2, ip, lsr #3
   d74ea:	f1c2 0320 	rsb	r3, r2, #32
   d74ee:	fa00 fc03 	lsl.w	ip, r0, r3
   d74f2:	fa20 f002 	lsr.w	r0, r0, r2
   d74f6:	fa01 fe03 	lsl.w	lr, r1, r3
   d74fa:	ea40 000e 	orr.w	r0, r0, lr
   d74fe:	fa21 f102 	lsr.w	r1, r1, r2
   d7502:	4414      	add	r4, r2
   d7504:	e6c1      	b.n	d728a <__adddf3+0xe6>
   d7506:	bf00      	nop

000d7508 <__aeabi_dmul>:
   d7508:	b570      	push	{r4, r5, r6, lr}
   d750a:	f04f 0cff 	mov.w	ip, #255	; 0xff
   d750e:	f44c 6ce0 	orr.w	ip, ip, #1792	; 0x700
   d7512:	ea1c 5411 	ands.w	r4, ip, r1, lsr #20
   d7516:	bf1d      	ittte	ne
   d7518:	ea1c 5513 	andsne.w	r5, ip, r3, lsr #20
   d751c:	ea94 0f0c 	teqne	r4, ip
   d7520:	ea95 0f0c 	teqne	r5, ip
   d7524:	f000 f8de 	bleq	d76e4 <__aeabi_dmul+0x1dc>
   d7528:	442c      	add	r4, r5
   d752a:	ea81 0603 	eor.w	r6, r1, r3
   d752e:	ea21 514c 	bic.w	r1, r1, ip, lsl #21
   d7532:	ea23 534c 	bic.w	r3, r3, ip, lsl #21
   d7536:	ea50 3501 	orrs.w	r5, r0, r1, lsl #12
   d753a:	bf18      	it	ne
   d753c:	ea52 3503 	orrsne.w	r5, r2, r3, lsl #12
   d7540:	f441 1180 	orr.w	r1, r1, #1048576	; 0x100000
   d7544:	f443 1380 	orr.w	r3, r3, #1048576	; 0x100000
   d7548:	d038      	beq.n	d75bc <__aeabi_dmul+0xb4>
   d754a:	fba0 ce02 	umull	ip, lr, r0, r2
   d754e:	f04f 0500 	mov.w	r5, #0
   d7552:	fbe1 e502 	umlal	lr, r5, r1, r2
   d7556:	f006 4200 	and.w	r2, r6, #2147483648	; 0x80000000
   d755a:	fbe0 e503 	umlal	lr, r5, r0, r3
   d755e:	f04f 0600 	mov.w	r6, #0
   d7562:	fbe1 5603 	umlal	r5, r6, r1, r3
   d7566:	f09c 0f00 	teq	ip, #0
   d756a:	bf18      	it	ne
   d756c:	f04e 0e01 	orrne.w	lr, lr, #1
   d7570:	f1a4 04ff 	sub.w	r4, r4, #255	; 0xff
   d7574:	f5b6 7f00 	cmp.w	r6, #512	; 0x200
   d7578:	f564 7440 	sbc.w	r4, r4, #768	; 0x300
   d757c:	d204      	bcs.n	d7588 <__aeabi_dmul+0x80>
   d757e:	ea5f 0e4e 	movs.w	lr, lr, lsl #1
   d7582:	416d      	adcs	r5, r5
   d7584:	eb46 0606 	adc.w	r6, r6, r6
   d7588:	ea42 21c6 	orr.w	r1, r2, r6, lsl #11
   d758c:	ea41 5155 	orr.w	r1, r1, r5, lsr #21
   d7590:	ea4f 20c5 	mov.w	r0, r5, lsl #11
   d7594:	ea40 505e 	orr.w	r0, r0, lr, lsr #21
   d7598:	ea4f 2ece 	mov.w	lr, lr, lsl #11
   d759c:	f1b4 0cfd 	subs.w	ip, r4, #253	; 0xfd
   d75a0:	bf88      	it	hi
   d75a2:	f5bc 6fe0 	cmphi.w	ip, #1792	; 0x700
   d75a6:	d81e      	bhi.n	d75e6 <__aeabi_dmul+0xde>
   d75a8:	f1be 4f00 	cmp.w	lr, #2147483648	; 0x80000000
   d75ac:	bf08      	it	eq
   d75ae:	ea5f 0e50 	movseq.w	lr, r0, lsr #1
   d75b2:	f150 0000 	adcs.w	r0, r0, #0
   d75b6:	eb41 5104 	adc.w	r1, r1, r4, lsl #20
   d75ba:	bd70      	pop	{r4, r5, r6, pc}
   d75bc:	f006 4600 	and.w	r6, r6, #2147483648	; 0x80000000
   d75c0:	ea46 0101 	orr.w	r1, r6, r1
   d75c4:	ea40 0002 	orr.w	r0, r0, r2
   d75c8:	ea81 0103 	eor.w	r1, r1, r3
   d75cc:	ebb4 045c 	subs.w	r4, r4, ip, lsr #1
   d75d0:	bfc2      	ittt	gt
   d75d2:	ebd4 050c 	rsbsgt	r5, r4, ip
   d75d6:	ea41 5104 	orrgt.w	r1, r1, r4, lsl #20
   d75da:	bd70      	popgt	{r4, r5, r6, pc}
   d75dc:	f441 1180 	orr.w	r1, r1, #1048576	; 0x100000
   d75e0:	f04f 0e00 	mov.w	lr, #0
   d75e4:	3c01      	subs	r4, #1
   d75e6:	f300 80ab 	bgt.w	d7740 <__aeabi_dmul+0x238>
   d75ea:	f114 0f36 	cmn.w	r4, #54	; 0x36
   d75ee:	bfde      	ittt	le
   d75f0:	2000      	movle	r0, #0
   d75f2:	f001 4100 	andle.w	r1, r1, #2147483648	; 0x80000000
   d75f6:	bd70      	pople	{r4, r5, r6, pc}
   d75f8:	f1c4 0400 	rsb	r4, r4, #0
   d75fc:	3c20      	subs	r4, #32
   d75fe:	da35      	bge.n	d766c <__aeabi_dmul+0x164>
   d7600:	340c      	adds	r4, #12
   d7602:	dc1b      	bgt.n	d763c <__aeabi_dmul+0x134>
   d7604:	f104 0414 	add.w	r4, r4, #20
   d7608:	f1c4 0520 	rsb	r5, r4, #32
   d760c:	fa00 f305 	lsl.w	r3, r0, r5
   d7610:	fa20 f004 	lsr.w	r0, r0, r4
   d7614:	fa01 f205 	lsl.w	r2, r1, r5
   d7618:	ea40 0002 	orr.w	r0, r0, r2
   d761c:	f001 4200 	and.w	r2, r1, #2147483648	; 0x80000000
   d7620:	f021 4100 	bic.w	r1, r1, #2147483648	; 0x80000000
   d7624:	eb10 70d3 	adds.w	r0, r0, r3, lsr #31
   d7628:	fa21 f604 	lsr.w	r6, r1, r4
   d762c:	eb42 0106 	adc.w	r1, r2, r6
   d7630:	ea5e 0e43 	orrs.w	lr, lr, r3, lsl #1
   d7634:	bf08      	it	eq
   d7636:	ea20 70d3 	biceq.w	r0, r0, r3, lsr #31
   d763a:	bd70      	pop	{r4, r5, r6, pc}
   d763c:	f1c4 040c 	rsb	r4, r4, #12
   d7640:	f1c4 0520 	rsb	r5, r4, #32
   d7644:	fa00 f304 	lsl.w	r3, r0, r4
   d7648:	fa20 f005 	lsr.w	r0, r0, r5
   d764c:	fa01 f204 	lsl.w	r2, r1, r4
   d7650:	ea40 0002 	orr.w	r0, r0, r2
   d7654:	f001 4100 	and.w	r1, r1, #2147483648	; 0x80000000
   d7658:	eb10 70d3 	adds.w	r0, r0, r3, lsr #31
   d765c:	f141 0100 	adc.w	r1, r1, #0
   d7660:	ea5e 0e43 	orrs.w	lr, lr, r3, lsl #1
   d7664:	bf08      	it	eq
   d7666:	ea20 70d3 	biceq.w	r0, r0, r3, lsr #31
   d766a:	bd70      	pop	{r4, r5, r6, pc}
   d766c:	f1c4 0520 	rsb	r5, r4, #32
   d7670:	fa00 f205 	lsl.w	r2, r0, r5
   d7674:	ea4e 0e02 	orr.w	lr, lr, r2
   d7678:	fa20 f304 	lsr.w	r3, r0, r4
   d767c:	fa01 f205 	lsl.w	r2, r1, r5
   d7680:	ea43 0302 	orr.w	r3, r3, r2
   d7684:	fa21 f004 	lsr.w	r0, r1, r4
   d7688:	f001 4100 	and.w	r1, r1, #2147483648	; 0x80000000
   d768c:	fa21 f204 	lsr.w	r2, r1, r4
   d7690:	ea20 0002 	bic.w	r0, r0, r2
   d7694:	eb00 70d3 	add.w	r0, r0, r3, lsr #31
   d7698:	ea5e 0e43 	orrs.w	lr, lr, r3, lsl #1
   d769c:	bf08      	it	eq
   d769e:	ea20 70d3 	biceq.w	r0, r0, r3, lsr #31
   d76a2:	bd70      	pop	{r4, r5, r6, pc}
   d76a4:	f094 0f00 	teq	r4, #0
   d76a8:	d10f      	bne.n	d76ca <__aeabi_dmul+0x1c2>
   d76aa:	f001 4600 	and.w	r6, r1, #2147483648	; 0x80000000
   d76ae:	0040      	lsls	r0, r0, #1
   d76b0:	eb41 0101 	adc.w	r1, r1, r1
   d76b4:	f411 1f80 	tst.w	r1, #1048576	; 0x100000
   d76b8:	bf08      	it	eq
   d76ba:	3c01      	subeq	r4, #1
   d76bc:	d0f7      	beq.n	d76ae <__aeabi_dmul+0x1a6>
   d76be:	ea41 0106 	orr.w	r1, r1, r6
   d76c2:	f095 0f00 	teq	r5, #0
   d76c6:	bf18      	it	ne
   d76c8:	4770      	bxne	lr
   d76ca:	f003 4600 	and.w	r6, r3, #2147483648	; 0x80000000
   d76ce:	0052      	lsls	r2, r2, #1
   d76d0:	eb43 0303 	adc.w	r3, r3, r3
   d76d4:	f413 1f80 	tst.w	r3, #1048576	; 0x100000
   d76d8:	bf08      	it	eq
   d76da:	3d01      	subeq	r5, #1
   d76dc:	d0f7      	beq.n	d76ce <__aeabi_dmul+0x1c6>
   d76de:	ea43 0306 	orr.w	r3, r3, r6
   d76e2:	4770      	bx	lr
   d76e4:	ea94 0f0c 	teq	r4, ip
   d76e8:	ea0c 5513 	and.w	r5, ip, r3, lsr #20
   d76ec:	bf18      	it	ne
   d76ee:	ea95 0f0c 	teqne	r5, ip
   d76f2:	d00c      	beq.n	d770e <__aeabi_dmul+0x206>
   d76f4:	ea50 0641 	orrs.w	r6, r0, r1, lsl #1
   d76f8:	bf18      	it	ne
   d76fa:	ea52 0643 	orrsne.w	r6, r2, r3, lsl #1
   d76fe:	d1d1      	bne.n	d76a4 <__aeabi_dmul+0x19c>
   d7700:	ea81 0103 	eor.w	r1, r1, r3
   d7704:	f001 4100 	and.w	r1, r1, #2147483648	; 0x80000000
   d7708:	f04f 0000 	mov.w	r0, #0
   d770c:	bd70      	pop	{r4, r5, r6, pc}
   d770e:	ea50 0641 	orrs.w	r6, r0, r1, lsl #1
   d7712:	bf06      	itte	eq
   d7714:	4610      	moveq	r0, r2
   d7716:	4619      	moveq	r1, r3
   d7718:	ea52 0643 	orrsne.w	r6, r2, r3, lsl #1
   d771c:	d019      	beq.n	d7752 <__aeabi_dmul+0x24a>
   d771e:	ea94 0f0c 	teq	r4, ip
   d7722:	d102      	bne.n	d772a <__aeabi_dmul+0x222>
   d7724:	ea50 3601 	orrs.w	r6, r0, r1, lsl #12
   d7728:	d113      	bne.n	d7752 <__aeabi_dmul+0x24a>
   d772a:	ea95 0f0c 	teq	r5, ip
   d772e:	d105      	bne.n	d773c <__aeabi_dmul+0x234>
   d7730:	ea52 3603 	orrs.w	r6, r2, r3, lsl #12
   d7734:	bf1c      	itt	ne
   d7736:	4610      	movne	r0, r2
   d7738:	4619      	movne	r1, r3
   d773a:	d10a      	bne.n	d7752 <__aeabi_dmul+0x24a>
   d773c:	ea81 0103 	eor.w	r1, r1, r3
   d7740:	f001 4100 	and.w	r1, r1, #2147483648	; 0x80000000
   d7744:	f041 41fe 	orr.w	r1, r1, #2130706432	; 0x7f000000
   d7748:	f441 0170 	orr.w	r1, r1, #15728640	; 0xf00000
   d774c:	f04f 0000 	mov.w	r0, #0
   d7750:	bd70      	pop	{r4, r5, r6, pc}
   d7752:	f041 41fe 	orr.w	r1, r1, #2130706432	; 0x7f000000
   d7756:	f441 0178 	orr.w	r1, r1, #16252928	; 0xf80000
   d775a:	bd70      	pop	{r4, r5, r6, pc}

000d775c <__aeabi_ddiv>:
   d775c:	b570      	push	{r4, r5, r6, lr}
   d775e:	f04f 0cff 	mov.w	ip, #255	; 0xff
   d7762:	f44c 6ce0 	orr.w	ip, ip, #1792	; 0x700
   d7766:	ea1c 5411 	ands.w	r4, ip, r1, lsr #20
   d776a:	bf1d      	ittte	ne
   d776c:	ea1c 5513 	andsne.w	r5, ip, r3, lsr #20
   d7770:	ea94 0f0c 	teqne	r4, ip
   d7774:	ea95 0f0c 	teqne	r5, ip
   d7778:	f000 f8a7 	bleq	d78ca <__aeabi_ddiv+0x16e>
   d777c:	eba4 0405 	sub.w	r4, r4, r5
   d7780:	ea81 0e03 	eor.w	lr, r1, r3
   d7784:	ea52 3503 	orrs.w	r5, r2, r3, lsl #12
   d7788:	ea4f 3101 	mov.w	r1, r1, lsl #12
   d778c:	f000 8088 	beq.w	d78a0 <__aeabi_ddiv+0x144>
   d7790:	ea4f 3303 	mov.w	r3, r3, lsl #12
   d7794:	f04f 5580 	mov.w	r5, #268435456	; 0x10000000
   d7798:	ea45 1313 	orr.w	r3, r5, r3, lsr #4
   d779c:	ea43 6312 	orr.w	r3, r3, r2, lsr #24
   d77a0:	ea4f 2202 	mov.w	r2, r2, lsl #8
   d77a4:	ea45 1511 	orr.w	r5, r5, r1, lsr #4
   d77a8:	ea45 6510 	orr.w	r5, r5, r0, lsr #24
   d77ac:	ea4f 2600 	mov.w	r6, r0, lsl #8
   d77b0:	f00e 4100 	and.w	r1, lr, #2147483648	; 0x80000000
   d77b4:	429d      	cmp	r5, r3
   d77b6:	bf08      	it	eq
   d77b8:	4296      	cmpeq	r6, r2
   d77ba:	f144 04fd 	adc.w	r4, r4, #253	; 0xfd
   d77be:	f504 7440 	add.w	r4, r4, #768	; 0x300
   d77c2:	d202      	bcs.n	d77ca <__aeabi_ddiv+0x6e>
   d77c4:	085b      	lsrs	r3, r3, #1
   d77c6:	ea4f 0232 	mov.w	r2, r2, rrx
   d77ca:	1ab6      	subs	r6, r6, r2
   d77cc:	eb65 0503 	sbc.w	r5, r5, r3
   d77d0:	085b      	lsrs	r3, r3, #1
   d77d2:	ea4f 0232 	mov.w	r2, r2, rrx
   d77d6:	f44f 1080 	mov.w	r0, #1048576	; 0x100000
   d77da:	f44f 2c00 	mov.w	ip, #524288	; 0x80000
   d77de:	ebb6 0e02 	subs.w	lr, r6, r2
   d77e2:	eb75 0e03 	sbcs.w	lr, r5, r3
   d77e6:	bf22      	ittt	cs
   d77e8:	1ab6      	subcs	r6, r6, r2
   d77ea:	4675      	movcs	r5, lr
   d77ec:	ea40 000c 	orrcs.w	r0, r0, ip
   d77f0:	085b      	lsrs	r3, r3, #1
   d77f2:	ea4f 0232 	mov.w	r2, r2, rrx
   d77f6:	ebb6 0e02 	subs.w	lr, r6, r2
   d77fa:	eb75 0e03 	sbcs.w	lr, r5, r3
   d77fe:	bf22      	ittt	cs
   d7800:	1ab6      	subcs	r6, r6, r2
   d7802:	4675      	movcs	r5, lr
   d7804:	ea40 005c 	orrcs.w	r0, r0, ip, lsr #1
   d7808:	085b      	lsrs	r3, r3, #1
   d780a:	ea4f 0232 	mov.w	r2, r2, rrx
   d780e:	ebb6 0e02 	subs.w	lr, r6, r2
   d7812:	eb75 0e03 	sbcs.w	lr, r5, r3
   d7816:	bf22      	ittt	cs
   d7818:	1ab6      	subcs	r6, r6, r2
   d781a:	4675      	movcs	r5, lr
   d781c:	ea40 009c 	orrcs.w	r0, r0, ip, lsr #2
   d7820:	085b      	lsrs	r3, r3, #1
   d7822:	ea4f 0232 	mov.w	r2, r2, rrx
   d7826:	ebb6 0e02 	subs.w	lr, r6, r2
   d782a:	eb75 0e03 	sbcs.w	lr, r5, r3
   d782e:	bf22      	ittt	cs
   d7830:	1ab6      	subcs	r6, r6, r2
   d7832:	4675      	movcs	r5, lr
   d7834:	ea40 00dc 	orrcs.w	r0, r0, ip, lsr #3
   d7838:	ea55 0e06 	orrs.w	lr, r5, r6
   d783c:	d018      	beq.n	d7870 <__aeabi_ddiv+0x114>
   d783e:	ea4f 1505 	mov.w	r5, r5, lsl #4
   d7842:	ea45 7516 	orr.w	r5, r5, r6, lsr #28
   d7846:	ea4f 1606 	mov.w	r6, r6, lsl #4
   d784a:	ea4f 03c3 	mov.w	r3, r3, lsl #3
   d784e:	ea43 7352 	orr.w	r3, r3, r2, lsr #29
   d7852:	ea4f 02c2 	mov.w	r2, r2, lsl #3
   d7856:	ea5f 1c1c 	movs.w	ip, ip, lsr #4
   d785a:	d1c0      	bne.n	d77de <__aeabi_ddiv+0x82>
   d785c:	f411 1f80 	tst.w	r1, #1048576	; 0x100000
   d7860:	d10b      	bne.n	d787a <__aeabi_ddiv+0x11e>
   d7862:	ea41 0100 	orr.w	r1, r1, r0
   d7866:	f04f 0000 	mov.w	r0, #0
   d786a:	f04f 4c00 	mov.w	ip, #2147483648	; 0x80000000
   d786e:	e7b6      	b.n	d77de <__aeabi_ddiv+0x82>
   d7870:	f411 1f80 	tst.w	r1, #1048576	; 0x100000
   d7874:	bf04      	itt	eq
   d7876:	4301      	orreq	r1, r0
   d7878:	2000      	moveq	r0, #0
   d787a:	f1b4 0cfd 	subs.w	ip, r4, #253	; 0xfd
   d787e:	bf88      	it	hi
   d7880:	f5bc 6fe0 	cmphi.w	ip, #1792	; 0x700
   d7884:	f63f aeaf 	bhi.w	d75e6 <__aeabi_dmul+0xde>
   d7888:	ebb5 0c03 	subs.w	ip, r5, r3
   d788c:	bf04      	itt	eq
   d788e:	ebb6 0c02 	subseq.w	ip, r6, r2
   d7892:	ea5f 0c50 	movseq.w	ip, r0, lsr #1
   d7896:	f150 0000 	adcs.w	r0, r0, #0
   d789a:	eb41 5104 	adc.w	r1, r1, r4, lsl #20
   d789e:	bd70      	pop	{r4, r5, r6, pc}
   d78a0:	f00e 4e00 	and.w	lr, lr, #2147483648	; 0x80000000
   d78a4:	ea4e 3111 	orr.w	r1, lr, r1, lsr #12
   d78a8:	eb14 045c 	adds.w	r4, r4, ip, lsr #1
   d78ac:	bfc2      	ittt	gt
   d78ae:	ebd4 050c 	rsbsgt	r5, r4, ip
   d78b2:	ea41 5104 	orrgt.w	r1, r1, r4, lsl #20
   d78b6:	bd70      	popgt	{r4, r5, r6, pc}
   d78b8:	f441 1180 	orr.w	r1, r1, #1048576	; 0x100000
   d78bc:	f04f 0e00 	mov.w	lr, #0
   d78c0:	3c01      	subs	r4, #1
   d78c2:	e690      	b.n	d75e6 <__aeabi_dmul+0xde>
   d78c4:	ea45 0e06 	orr.w	lr, r5, r6
   d78c8:	e68d      	b.n	d75e6 <__aeabi_dmul+0xde>
   d78ca:	ea0c 5513 	and.w	r5, ip, r3, lsr #20
   d78ce:	ea94 0f0c 	teq	r4, ip
   d78d2:	bf08      	it	eq
   d78d4:	ea95 0f0c 	teqeq	r5, ip
   d78d8:	f43f af3b 	beq.w	d7752 <__aeabi_dmul+0x24a>
   d78dc:	ea94 0f0c 	teq	r4, ip
   d78e0:	d10a      	bne.n	d78f8 <__aeabi_ddiv+0x19c>
   d78e2:	ea50 3401 	orrs.w	r4, r0, r1, lsl #12
   d78e6:	f47f af34 	bne.w	d7752 <__aeabi_dmul+0x24a>
   d78ea:	ea95 0f0c 	teq	r5, ip
   d78ee:	f47f af25 	bne.w	d773c <__aeabi_dmul+0x234>
   d78f2:	4610      	mov	r0, r2
   d78f4:	4619      	mov	r1, r3
   d78f6:	e72c      	b.n	d7752 <__aeabi_dmul+0x24a>
   d78f8:	ea95 0f0c 	teq	r5, ip
   d78fc:	d106      	bne.n	d790c <__aeabi_ddiv+0x1b0>
   d78fe:	ea52 3503 	orrs.w	r5, r2, r3, lsl #12
   d7902:	f43f aefd 	beq.w	d7700 <__aeabi_dmul+0x1f8>
   d7906:	4610      	mov	r0, r2
   d7908:	4619      	mov	r1, r3
   d790a:	e722      	b.n	d7752 <__aeabi_dmul+0x24a>
   d790c:	ea50 0641 	orrs.w	r6, r0, r1, lsl #1
   d7910:	bf18      	it	ne
   d7912:	ea52 0643 	orrsne.w	r6, r2, r3, lsl #1
   d7916:	f47f aec5 	bne.w	d76a4 <__aeabi_dmul+0x19c>
   d791a:	ea50 0441 	orrs.w	r4, r0, r1, lsl #1
   d791e:	f47f af0d 	bne.w	d773c <__aeabi_dmul+0x234>
   d7922:	ea52 0543 	orrs.w	r5, r2, r3, lsl #1
   d7926:	f47f aeeb 	bne.w	d7700 <__aeabi_dmul+0x1f8>
   d792a:	e712      	b.n	d7752 <__aeabi_dmul+0x24a>

000d792c <__aeabi_d2f>:
   d792c:	ea4f 0241 	mov.w	r2, r1, lsl #1
   d7930:	f1b2 43e0 	subs.w	r3, r2, #1879048192	; 0x70000000
   d7934:	bf24      	itt	cs
   d7936:	f5b3 1c00 	subscs.w	ip, r3, #2097152	; 0x200000
   d793a:	f1dc 5cfe 	rsbscs	ip, ip, #532676608	; 0x1fc00000
   d793e:	d90d      	bls.n	d795c <__aeabi_d2f+0x30>
   d7940:	f001 4c00 	and.w	ip, r1, #2147483648	; 0x80000000
   d7944:	ea4f 02c0 	mov.w	r2, r0, lsl #3
   d7948:	ea4c 7050 	orr.w	r0, ip, r0, lsr #29
   d794c:	f1b2 4f00 	cmp.w	r2, #2147483648	; 0x80000000
   d7950:	eb40 0083 	adc.w	r0, r0, r3, lsl #2
   d7954:	bf08      	it	eq
   d7956:	f020 0001 	biceq.w	r0, r0, #1
   d795a:	4770      	bx	lr
   d795c:	f011 4f80 	tst.w	r1, #1073741824	; 0x40000000
   d7960:	d121      	bne.n	d79a6 <__aeabi_d2f+0x7a>
   d7962:	f113 7238 	adds.w	r2, r3, #48234496	; 0x2e00000
   d7966:	bfbc      	itt	lt
   d7968:	f001 4000 	andlt.w	r0, r1, #2147483648	; 0x80000000
   d796c:	4770      	bxlt	lr
   d796e:	f441 1180 	orr.w	r1, r1, #1048576	; 0x100000
   d7972:	ea4f 5252 	mov.w	r2, r2, lsr #21
   d7976:	f1c2 0218 	rsb	r2, r2, #24
   d797a:	f1c2 0c20 	rsb	ip, r2, #32
   d797e:	fa10 f30c 	lsls.w	r3, r0, ip
   d7982:	fa20 f002 	lsr.w	r0, r0, r2
   d7986:	bf18      	it	ne
   d7988:	f040 0001 	orrne.w	r0, r0, #1
   d798c:	ea4f 23c1 	mov.w	r3, r1, lsl #11
   d7990:	ea4f 23d3 	mov.w	r3, r3, lsr #11
   d7994:	fa03 fc0c 	lsl.w	ip, r3, ip
   d7998:	ea40 000c 	orr.w	r0, r0, ip
   d799c:	fa23 f302 	lsr.w	r3, r3, r2
   d79a0:	ea4f 0343 	mov.w	r3, r3, lsl #1
   d79a4:	e7cc      	b.n	d7940 <__aeabi_d2f+0x14>
   d79a6:	ea7f 5362 	mvns.w	r3, r2, asr #21
   d79aa:	d107      	bne.n	d79bc <__aeabi_d2f+0x90>
   d79ac:	ea50 3301 	orrs.w	r3, r0, r1, lsl #12
   d79b0:	bf1e      	ittt	ne
   d79b2:	f04f 40fe 	movne.w	r0, #2130706432	; 0x7f000000
   d79b6:	f440 0040 	orrne.w	r0, r0, #12582912	; 0xc00000
   d79ba:	4770      	bxne	lr
   d79bc:	f001 4000 	and.w	r0, r1, #2147483648	; 0x80000000
   d79c0:	f040 40fe 	orr.w	r0, r0, #2130706432	; 0x7f000000
   d79c4:	f440 0000 	orr.w	r0, r0, #8388608	; 0x800000
   d79c8:	4770      	bx	lr
   d79ca:	bf00      	nop

000d79cc <__cxa_atexit>:
   d79cc:	b510      	push	{r4, lr}
   d79ce:	4c05      	ldr	r4, [pc, #20]	; (d79e4 <__cxa_atexit+0x18>)
   d79d0:	4613      	mov	r3, r2
   d79d2:	b12c      	cbz	r4, d79e0 <__cxa_atexit+0x14>
   d79d4:	460a      	mov	r2, r1
   d79d6:	4601      	mov	r1, r0
   d79d8:	2002      	movs	r0, #2
   d79da:	f3af 8000 	nop.w
   d79de:	bd10      	pop	{r4, pc}
   d79e0:	4620      	mov	r0, r4
   d79e2:	bd10      	pop	{r4, pc}
   d79e4:	00000000 	.word	0x00000000

000d79e8 <memcpy>:
   d79e8:	b510      	push	{r4, lr}
   d79ea:	1e43      	subs	r3, r0, #1
   d79ec:	440a      	add	r2, r1
   d79ee:	4291      	cmp	r1, r2
   d79f0:	d004      	beq.n	d79fc <memcpy+0x14>
   d79f2:	f811 4b01 	ldrb.w	r4, [r1], #1
   d79f6:	f803 4f01 	strb.w	r4, [r3, #1]!
   d79fa:	e7f8      	b.n	d79ee <memcpy+0x6>
   d79fc:	bd10      	pop	{r4, pc}

000d79fe <memmove>:
   d79fe:	4288      	cmp	r0, r1
   d7a00:	b510      	push	{r4, lr}
   d7a02:	eb01 0302 	add.w	r3, r1, r2
   d7a06:	d801      	bhi.n	d7a0c <memmove+0xe>
   d7a08:	1e42      	subs	r2, r0, #1
   d7a0a:	e00b      	b.n	d7a24 <memmove+0x26>
   d7a0c:	4298      	cmp	r0, r3
   d7a0e:	d2fb      	bcs.n	d7a08 <memmove+0xa>
   d7a10:	1881      	adds	r1, r0, r2
   d7a12:	1ad2      	subs	r2, r2, r3
   d7a14:	42d3      	cmn	r3, r2
   d7a16:	d004      	beq.n	d7a22 <memmove+0x24>
   d7a18:	f813 4d01 	ldrb.w	r4, [r3, #-1]!
   d7a1c:	f801 4d01 	strb.w	r4, [r1, #-1]!
   d7a20:	e7f8      	b.n	d7a14 <memmove+0x16>
   d7a22:	bd10      	pop	{r4, pc}
   d7a24:	4299      	cmp	r1, r3
   d7a26:	d004      	beq.n	d7a32 <memmove+0x34>
   d7a28:	f811 4b01 	ldrb.w	r4, [r1], #1
   d7a2c:	f802 4f01 	strb.w	r4, [r2, #1]!
   d7a30:	e7f8      	b.n	d7a24 <memmove+0x26>
   d7a32:	bd10      	pop	{r4, pc}

000d7a34 <memset>:
   d7a34:	4402      	add	r2, r0
   d7a36:	4603      	mov	r3, r0
   d7a38:	4293      	cmp	r3, r2
   d7a3a:	d002      	beq.n	d7a42 <memset+0xe>
   d7a3c:	f803 1b01 	strb.w	r1, [r3], #1
   d7a40:	e7fa      	b.n	d7a38 <memset+0x4>
   d7a42:	4770      	bx	lr

000d7a44 <srand>:
   d7a44:	b538      	push	{r3, r4, r5, lr}
   d7a46:	4b12      	ldr	r3, [pc, #72]	; (d7a90 <srand+0x4c>)
   d7a48:	681c      	ldr	r4, [r3, #0]
   d7a4a:	6ba3      	ldr	r3, [r4, #56]	; 0x38
   d7a4c:	4605      	mov	r5, r0
   d7a4e:	b9d3      	cbnz	r3, d7a86 <srand+0x42>
   d7a50:	2018      	movs	r0, #24
   d7a52:	f7fc fee7 	bl	d4824 <malloc>
   d7a56:	f243 330e 	movw	r3, #13070	; 0x330e
   d7a5a:	63a0      	str	r0, [r4, #56]	; 0x38
   d7a5c:	8003      	strh	r3, [r0, #0]
   d7a5e:	f64a 33cd 	movw	r3, #43981	; 0xabcd
   d7a62:	8043      	strh	r3, [r0, #2]
   d7a64:	f241 2334 	movw	r3, #4660	; 0x1234
   d7a68:	8083      	strh	r3, [r0, #4]
   d7a6a:	f24e 636d 	movw	r3, #58989	; 0xe66d
   d7a6e:	80c3      	strh	r3, [r0, #6]
   d7a70:	f64d 63ec 	movw	r3, #57068	; 0xdeec
   d7a74:	8103      	strh	r3, [r0, #8]
   d7a76:	2305      	movs	r3, #5
   d7a78:	8143      	strh	r3, [r0, #10]
   d7a7a:	230b      	movs	r3, #11
   d7a7c:	8183      	strh	r3, [r0, #12]
   d7a7e:	2201      	movs	r2, #1
   d7a80:	2300      	movs	r3, #0
   d7a82:	e9c0 2304 	strd	r2, r3, [r0, #16]
   d7a86:	6ba3      	ldr	r3, [r4, #56]	; 0x38
   d7a88:	2200      	movs	r2, #0
   d7a8a:	611d      	str	r5, [r3, #16]
   d7a8c:	615a      	str	r2, [r3, #20]
   d7a8e:	bd38      	pop	{r3, r4, r5, pc}
   d7a90:	2003e2e4 	.word	0x2003e2e4

000d7a94 <strchr>:
   d7a94:	b2c9      	uxtb	r1, r1
   d7a96:	4603      	mov	r3, r0
   d7a98:	f810 2b01 	ldrb.w	r2, [r0], #1
   d7a9c:	b11a      	cbz	r2, d7aa6 <strchr+0x12>
   d7a9e:	4291      	cmp	r1, r2
   d7aa0:	d1f9      	bne.n	d7a96 <strchr+0x2>
   d7aa2:	4618      	mov	r0, r3
   d7aa4:	4770      	bx	lr
   d7aa6:	2900      	cmp	r1, #0
   d7aa8:	bf0c      	ite	eq
   d7aaa:	4618      	moveq	r0, r3
   d7aac:	2000      	movne	r0, #0
   d7aae:	4770      	bx	lr

000d7ab0 <strchrnul>:
   d7ab0:	b510      	push	{r4, lr}
   d7ab2:	4604      	mov	r4, r0
   d7ab4:	f7ff ffee 	bl	d7a94 <strchr>
   d7ab8:	b918      	cbnz	r0, d7ac2 <strchrnul+0x12>
   d7aba:	4620      	mov	r0, r4
   d7abc:	f000 f82f 	bl	d7b1e <strlen>
   d7ac0:	4420      	add	r0, r4
   d7ac2:	bd10      	pop	{r4, pc}

000d7ac4 <strcmp>:
   d7ac4:	f810 2b01 	ldrb.w	r2, [r0], #1
   d7ac8:	f811 3b01 	ldrb.w	r3, [r1], #1
   d7acc:	2a01      	cmp	r2, #1
   d7ace:	bf28      	it	cs
   d7ad0:	429a      	cmpcs	r2, r3
   d7ad2:	d0f7      	beq.n	d7ac4 <strcmp>
   d7ad4:	1ad0      	subs	r0, r2, r3
   d7ad6:	4770      	bx	lr

000d7ad8 <strcpy>:
   d7ad8:	4603      	mov	r3, r0
   d7ada:	f811 2b01 	ldrb.w	r2, [r1], #1
   d7ade:	f803 2b01 	strb.w	r2, [r3], #1
   d7ae2:	2a00      	cmp	r2, #0
   d7ae4:	d1f9      	bne.n	d7ada <strcpy+0x2>
   d7ae6:	4770      	bx	lr

000d7ae8 <strdup>:
   d7ae8:	4b02      	ldr	r3, [pc, #8]	; (d7af4 <strdup+0xc>)
   d7aea:	4601      	mov	r1, r0
   d7aec:	6818      	ldr	r0, [r3, #0]
   d7aee:	f000 b803 	b.w	d7af8 <_strdup_r>
   d7af2:	bf00      	nop
   d7af4:	2003e2e4 	.word	0x2003e2e4

000d7af8 <_strdup_r>:
   d7af8:	b570      	push	{r4, r5, r6, lr}
   d7afa:	4606      	mov	r6, r0
   d7afc:	4608      	mov	r0, r1
   d7afe:	460c      	mov	r4, r1
   d7b00:	f000 f80d 	bl	d7b1e <strlen>
   d7b04:	1c45      	adds	r5, r0, #1
   d7b06:	4629      	mov	r1, r5
   d7b08:	4630      	mov	r0, r6
   d7b0a:	f7fc febb 	bl	d4884 <_malloc_r>
   d7b0e:	4606      	mov	r6, r0
   d7b10:	b118      	cbz	r0, d7b1a <_strdup_r+0x22>
   d7b12:	462a      	mov	r2, r5
   d7b14:	4621      	mov	r1, r4
   d7b16:	f7ff ff67 	bl	d79e8 <memcpy>
   d7b1a:	4630      	mov	r0, r6
   d7b1c:	bd70      	pop	{r4, r5, r6, pc}

000d7b1e <strlen>:
   d7b1e:	4603      	mov	r3, r0
   d7b20:	f813 2b01 	ldrb.w	r2, [r3], #1
   d7b24:	2a00      	cmp	r2, #0
   d7b26:	d1fb      	bne.n	d7b20 <strlen+0x2>
   d7b28:	1a18      	subs	r0, r3, r0
   d7b2a:	3801      	subs	r0, #1
   d7b2c:	4770      	bx	lr

000d7b2e <strncmp>:
   d7b2e:	b530      	push	{r4, r5, lr}
   d7b30:	b182      	cbz	r2, d7b54 <strncmp+0x26>
   d7b32:	1e45      	subs	r5, r0, #1
   d7b34:	3901      	subs	r1, #1
   d7b36:	f815 3f01 	ldrb.w	r3, [r5, #1]!
   d7b3a:	f811 4f01 	ldrb.w	r4, [r1, #1]!
   d7b3e:	42a3      	cmp	r3, r4
   d7b40:	d106      	bne.n	d7b50 <strncmp+0x22>
   d7b42:	43ec      	mvns	r4, r5
   d7b44:	4414      	add	r4, r2
   d7b46:	42e0      	cmn	r0, r4
   d7b48:	d001      	beq.n	d7b4e <strncmp+0x20>
   d7b4a:	2b00      	cmp	r3, #0
   d7b4c:	d1f3      	bne.n	d7b36 <strncmp+0x8>
   d7b4e:	461c      	mov	r4, r3
   d7b50:	1b18      	subs	r0, r3, r4
   d7b52:	bd30      	pop	{r4, r5, pc}
   d7b54:	4610      	mov	r0, r2
   d7b56:	bd30      	pop	{r4, r5, pc}

000d7b58 <strrchr>:
   d7b58:	b538      	push	{r3, r4, r5, lr}
   d7b5a:	4603      	mov	r3, r0
   d7b5c:	460d      	mov	r5, r1
   d7b5e:	b141      	cbz	r1, d7b72 <strrchr+0x1a>
   d7b60:	2400      	movs	r4, #0
   d7b62:	4629      	mov	r1, r5
   d7b64:	4618      	mov	r0, r3
   d7b66:	f7ff ff95 	bl	d7a94 <strchr>
   d7b6a:	b130      	cbz	r0, d7b7a <strrchr+0x22>
   d7b6c:	1c43      	adds	r3, r0, #1
   d7b6e:	4604      	mov	r4, r0
   d7b70:	e7f7      	b.n	d7b62 <strrchr+0xa>
   d7b72:	e8bd 4038 	ldmia.w	sp!, {r3, r4, r5, lr}
   d7b76:	f7ff bf8d 	b.w	d7a94 <strchr>
   d7b7a:	4620      	mov	r0, r4
   d7b7c:	bd38      	pop	{r3, r4, r5, pc}
	...

000d7b80 <_strtol_r>:
   d7b80:	e92d 47f0 	stmdb	sp!, {r4, r5, r6, r7, r8, r9, sl, lr}
   d7b84:	4680      	mov	r8, r0
   d7b86:	4840      	ldr	r0, [pc, #256]	; (d7c88 <_strtol_r+0x108>)
   d7b88:	f8d0 9000 	ldr.w	r9, [r0]
   d7b8c:	460f      	mov	r7, r1
   d7b8e:	463d      	mov	r5, r7
   d7b90:	f815 4b01 	ldrb.w	r4, [r5], #1
   d7b94:	eb09 0004 	add.w	r0, r9, r4
   d7b98:	7840      	ldrb	r0, [r0, #1]
   d7b9a:	f000 0008 	and.w	r0, r0, #8
   d7b9e:	f000 06ff 	and.w	r6, r0, #255	; 0xff
   d7ba2:	b108      	cbz	r0, d7ba8 <_strtol_r+0x28>
   d7ba4:	462f      	mov	r7, r5
   d7ba6:	e7f2      	b.n	d7b8e <_strtol_r+0xe>
   d7ba8:	2c2d      	cmp	r4, #45	; 0x2d
   d7baa:	d103      	bne.n	d7bb4 <_strtol_r+0x34>
   d7bac:	1cbd      	adds	r5, r7, #2
   d7bae:	787c      	ldrb	r4, [r7, #1]
   d7bb0:	2601      	movs	r6, #1
   d7bb2:	e003      	b.n	d7bbc <_strtol_r+0x3c>
   d7bb4:	2c2b      	cmp	r4, #43	; 0x2b
   d7bb6:	bf04      	itt	eq
   d7bb8:	787c      	ldrbeq	r4, [r7, #1]
   d7bba:	1cbd      	addeq	r5, r7, #2
   d7bbc:	b113      	cbz	r3, d7bc4 <_strtol_r+0x44>
   d7bbe:	2b10      	cmp	r3, #16
   d7bc0:	d10a      	bne.n	d7bd8 <_strtol_r+0x58>
   d7bc2:	e05b      	b.n	d7c7c <_strtol_r+0xfc>
   d7bc4:	2c30      	cmp	r4, #48	; 0x30
   d7bc6:	d157      	bne.n	d7c78 <_strtol_r+0xf8>
   d7bc8:	7828      	ldrb	r0, [r5, #0]
   d7bca:	f000 00df 	and.w	r0, r0, #223	; 0xdf
   d7bce:	2858      	cmp	r0, #88	; 0x58
   d7bd0:	d14d      	bne.n	d7c6e <_strtol_r+0xee>
   d7bd2:	786c      	ldrb	r4, [r5, #1]
   d7bd4:	2310      	movs	r3, #16
   d7bd6:	3502      	adds	r5, #2
   d7bd8:	2e00      	cmp	r6, #0
   d7bda:	bf14      	ite	ne
   d7bdc:	f04f 4c00 	movne.w	ip, #2147483648	; 0x80000000
   d7be0:	f06f 4c00 	mvneq.w	ip, #2147483648	; 0x80000000
   d7be4:	2700      	movs	r7, #0
   d7be6:	fbbc faf3 	udiv	sl, ip, r3
   d7bea:	4638      	mov	r0, r7
   d7bec:	fb03 cc1a 	mls	ip, r3, sl, ip
   d7bf0:	eb09 0e04 	add.w	lr, r9, r4
   d7bf4:	f89e e001 	ldrb.w	lr, [lr, #1]
   d7bf8:	f01e 0f04 	tst.w	lr, #4
   d7bfc:	d001      	beq.n	d7c02 <_strtol_r+0x82>
   d7bfe:	3c30      	subs	r4, #48	; 0x30
   d7c00:	e00b      	b.n	d7c1a <_strtol_r+0x9a>
   d7c02:	f01e 0e03 	ands.w	lr, lr, #3
   d7c06:	d01b      	beq.n	d7c40 <_strtol_r+0xc0>
   d7c08:	f1be 0f01 	cmp.w	lr, #1
   d7c0c:	bf0c      	ite	eq
   d7c0e:	f04f 0e37 	moveq.w	lr, #55	; 0x37
   d7c12:	f04f 0e57 	movne.w	lr, #87	; 0x57
   d7c16:	ebce 0404 	rsb	r4, lr, r4
   d7c1a:	42a3      	cmp	r3, r4
   d7c1c:	dd10      	ble.n	d7c40 <_strtol_r+0xc0>
   d7c1e:	f1b7 3fff 	cmp.w	r7, #4294967295	; 0xffffffff
   d7c22:	d00a      	beq.n	d7c3a <_strtol_r+0xba>
   d7c24:	4550      	cmp	r0, sl
   d7c26:	d806      	bhi.n	d7c36 <_strtol_r+0xb6>
   d7c28:	d101      	bne.n	d7c2e <_strtol_r+0xae>
   d7c2a:	4564      	cmp	r4, ip
   d7c2c:	dc03      	bgt.n	d7c36 <_strtol_r+0xb6>
   d7c2e:	fb03 4000 	mla	r0, r3, r0, r4
   d7c32:	2701      	movs	r7, #1
   d7c34:	e001      	b.n	d7c3a <_strtol_r+0xba>
   d7c36:	f04f 37ff 	mov.w	r7, #4294967295	; 0xffffffff
   d7c3a:	f815 4b01 	ldrb.w	r4, [r5], #1
   d7c3e:	e7d7      	b.n	d7bf0 <_strtol_r+0x70>
   d7c40:	1c7b      	adds	r3, r7, #1
   d7c42:	d10c      	bne.n	d7c5e <_strtol_r+0xde>
   d7c44:	2e00      	cmp	r6, #0
   d7c46:	f04f 0322 	mov.w	r3, #34	; 0x22
   d7c4a:	bf14      	ite	ne
   d7c4c:	f04f 4000 	movne.w	r0, #2147483648	; 0x80000000
   d7c50:	f06f 4000 	mvneq.w	r0, #2147483648	; 0x80000000
   d7c54:	f8c8 3000 	str.w	r3, [r8]
   d7c58:	b92a      	cbnz	r2, d7c66 <_strtol_r+0xe6>
   d7c5a:	e8bd 87f0 	ldmia.w	sp!, {r4, r5, r6, r7, r8, r9, sl, pc}
   d7c5e:	b106      	cbz	r6, d7c62 <_strtol_r+0xe2>
   d7c60:	4240      	negs	r0, r0
   d7c62:	b172      	cbz	r2, d7c82 <_strtol_r+0x102>
   d7c64:	b107      	cbz	r7, d7c68 <_strtol_r+0xe8>
   d7c66:	1e69      	subs	r1, r5, #1
   d7c68:	6011      	str	r1, [r2, #0]
   d7c6a:	e8bd 87f0 	ldmia.w	sp!, {r4, r5, r6, r7, r8, r9, sl, pc}
   d7c6e:	2430      	movs	r4, #48	; 0x30
   d7c70:	2b00      	cmp	r3, #0
   d7c72:	d1b1      	bne.n	d7bd8 <_strtol_r+0x58>
   d7c74:	2308      	movs	r3, #8
   d7c76:	e7af      	b.n	d7bd8 <_strtol_r+0x58>
   d7c78:	230a      	movs	r3, #10
   d7c7a:	e7ad      	b.n	d7bd8 <_strtol_r+0x58>
   d7c7c:	2c30      	cmp	r4, #48	; 0x30
   d7c7e:	d0a3      	beq.n	d7bc8 <_strtol_r+0x48>
   d7c80:	e7aa      	b.n	d7bd8 <_strtol_r+0x58>
   d7c82:	e8bd 87f0 	ldmia.w	sp!, {r4, r5, r6, r7, r8, r9, sl, pc}
   d7c86:	bf00      	nop
   d7c88:	2003e280 	.word	0x2003e280

000d7c8c <strtol>:
   d7c8c:	4613      	mov	r3, r2
   d7c8e:	460a      	mov	r2, r1
   d7c90:	4601      	mov	r1, r0
   d7c92:	4802      	ldr	r0, [pc, #8]	; (d7c9c <strtol+0x10>)
   d7c94:	6800      	ldr	r0, [r0, #0]
   d7c96:	f7ff bf73 	b.w	d7b80 <_strtol_r>
   d7c9a:	bf00      	nop
   d7c9c:	2003e2e4 	.word	0x2003e2e4

000d7ca0 <dynalib_user>:
   d7ca0:	000d4021 000d405d 000d4089 000d408d     !@..]@...@...@..
   d7cb0:	00000000                                ....

000d7cb4 <_ZTVN5spark10LogHandlerE>:
	...
   d7cc4:	000d40a9 000d40cd                       .@...@..

000d7ccc <_ZTVN5spark16SerialLogHandlerE>:
	...
   d7cd4:	000d40d9 000d410d 000d60d5 000d40cf     .@...A...`...@..
   d7ce4:	746c6f76 3d656761 66312e25 52575020     voltage=%.1f PWR
   d7cf4:	2064253d 3d474843 62006425 65747461     =%d CHG=%d.batte
   d7d04:	00007972                                ry..

000d7d08 <_ZTVSt15_Sp_counted_ptrIPN8particle6detail10FutureImplIbNS1_13FutureContextEEELN9__gnu_cxx12_Lock_policyE0EE>:
	...
   d7d10:	000d4965 000d496b 000d49c1 000d4979     eI..kI...I..yI..
   d7d20:	000d4967                                gI..

000d7d24 <_ZTVN5spark13EthernetClassE>:
	...
   d7d2c:	000d4f7b 000d4f71 000d4f67 000d4f5d     {O..qO..gO..]O..
   d7d3c:	000d4f51 000d4f45 000d4f39 000d4f31     QO..EO..9O..1O..
   d7d4c:	000d4f27 000d4f1d 000d65e5              'O...O...e..

000d7d58 <_ZTV7TwoWire>:
	...
   d7d60:	000d4f99 000d4fe3 000d4fbb 000d4f9b     .O...O...O...O..
   d7d70:	000d4fc3 000d4fcb 000d4fd3 000d4fdb     .O...O...O...O..

000d7d80 <_ZTV9IPAddress>:
	...
   d7d88:	000d502d 000d501d 000d501f 00302e30     -P...P...P..0.0.
   d7d98:	736c6166 72740065 25006575 2e250075     false.true.%u.%.
   d7da8:	00666c2a 6e006725 006c6c75 34302575     *lf.%g.null.u%04
   d7db8:	00000078                                x...

000d7dbc <_ZTVN5spark16JSONStreamWriterE>:
	...
   d7dc4:	000d54b1 000d54d7 000d548b 000d512f     .T...T...T../Q..

000d7dd4 <_ZTVN5spark20JSONStreamLogHandlerE>:
	...
   d7ddc:	000d592d 000d5941 000d6289 000d5493     -Y..AY...b...T..
   d7dec:	64756162 72655300 006c6169 69726553     baud.Serial.Seri
   d7dfc:	00316c61 65707974 72617000 63006d61     al1.type.param.c
   d7e0c:	6900646d 6e680064 74730064 66006d72     md.id.hnd.strm.f
   d7e1c:	00746c69 006c766c 48646461 6c646e61     ilt.lvl.addHandl
   d7e2c:	72007265 766f6d65 6e614865 72656c64     er.removeHandler
   d7e3c:	756e6500 6e61486d 72656c64 534a0073     .enumHandlers.JS
   d7e4c:	74534e4f 6d616572 48676f4c 6c646e61     ONStreamLogHandl
   d7e5c:	61007265 25007070 75303130 205d0020     er.app.%010u .] 
   d7e6c:	00202c00 203a2928 005b2000 65646f63     ., .(): . [.code
   d7e7c:	00203d20 64006925 69617465 3d20736c      = .%i.details =
   d7e8c:	0a0d0020 006e6c00 63006e66 0065646f      ....ln.fn.code.
   d7e9c:	61746564 6e006c69 00656e6f 63617274     detail.none.trac
   d7eac:	6e690065 77006f66 006e7261 6f727265     e.info.warn.erro
   d7ebc:	61700072 0063696e 006c6c61              r.panic.all.

000d7ec8 <_ZTVN5spark16StreamLogHandlerE>:
	...
   d7ed0:	000d5901 000d5919 000d60d5 000d40cf     .Y...Y...`...@..

000d7ee0 <_ZTVN5spark24DefaultLogHandlerFactoryE>:
	...
   d7ee8:	000d54af 000d54e5 000d5ffd 000d5495     .T...T..._...T..

000d7ef8 <_ZTVN5spark26DefaultOutputStreamFactoryE>:
	...
   d7f00:	000d54ad 000d54f3 000d5845 000d5501     .T...T..EX...U..

000d7f10 <_ZTVN5spark9MeshClassE>:
	...
   d7f18:	000d645f 000d6455 000d644b 000d6441     _d..Ud..Kd..Ad..
   d7f28:	000d6435 000d6429 000d641d 000d6415     5d..)d...d...d..
   d7f38:	000d640b 000d6401 000d65e5              .d...d...e..

000d7f44 <_ZTVN5spark12NetworkClassE>:
	...
   d7f4c:	000d657d 000d6587 000d6591 000d659b     }e...e...e...e..
   d7f5c:	000d65a5 000d65b1 000d65bd 000d65c9     .e...e...e...e..
   d7f6c:	000d65d1 000d65db 000d65e5              .e...e...e..

000d7f78 <_ZTV8SPIClass>:
	...
   d7f80:	000d680d 000d680f 2b25005a 3a643330     .h...h..Z.%+03d:
   d7f90:	75323025 2d592500 252d6d25 48255464     %02u.%Y-%m-%dT%H
   d7fa0:	3a4d253a 7a255325 63736100 656d6974     :%M:%S%z.asctime
   d7fb0:	00000000                                ....

000d7fb4 <_ZTV11USARTSerial>:
	...
   d7fbc:	000d6989 000d69d9 000d69e7 000d66c5     .i...i...i...f..
   d7fcc:	000d699d 000d69bf 000d69ab 000d69d3     .i...i...i...i..
   d7fdc:	000d698b 000d698f                       .i...i..

000d7fe4 <_ZTV9USBSerial>:
	...
   d7fec:	000d6aa5 000d6af5 000d6b03 000d66c5     .j...j...k...f..
   d7ffc:	000d6ae1 000d6aa7 000d6abd 000d6aef     .j...j...j...j..
   d800c:	000d6ad3 000d6aa1                       .j...j..

000d8014 <_ZTVN5spark9WiFiClassE>:
	...
   d801c:	000d6c17 000d6c0d 000d6c03 000d6bb9     .l...l...l...k..
   d802c:	000d6bf7 000d6beb 000d6bdf 000d6bd7     .k...k...k...k..
   d803c:	000d6bcd 000d6bc3 000d65e5              .k...k...e..

000d8048 <_ZSt7nothrow>:
	...

000d8049 <_ctype_>:
   d8049:	20202000 20202020 28282020 20282828     .         ((((( 
   d8059:	20202020 20202020 20202020 20202020                     
   d8069:	10108820 10101010 10101010 10101010      ...............
   d8079:	04040410 04040404 10040404 10101010     ................
   d8089:	41411010 41414141 01010101 01010101     ..AAAAAA........
   d8099:	01010101 01010101 01010101 10101010     ................
   d80a9:	42421010 42424242 02020202 02020202     ..BBBBBB........
   d80b9:	02020202 02020202 02020202 10101010     ................
   d80c9:	00000020 00000000 00000000 00000000      ...............
	...

000d814c <__sf_fake_stdin>:
	...

000d816c <__sf_fake_stdout>:
	...

000d818c <__sf_fake_stderr>:
	...
   d81ac:	00000043                                         C.

000d81ae <link_const_variable_data_end>:
	...

000d81b0 <link_constructors_location>:
   d81b0:	000d4331 	.word	0x000d4331
   d81b4:	000d493d 	.word	0x000d493d
   d81b8:	000d4f85 	.word	0x000d4f85
   d81bc:	000d60c5 	.word	0x000d60c5
   d81c0:	000d652d 	.word	0x000d652d
   d81c4:	000d66b1 	.word	0x000d66b1
   d81c8:	000d67f1 	.word	0x000d67f1
   d81cc:	000d6941 	.word	0x000d6941
   d81d0:	000d6975 	.word	0x000d6975
   d81d4:	000d6c21 	.word	0x000d6c21
   d81d8:	000d6f09 	.word	0x000d6f09
   d81dc:	000d6fcd 	.word	0x000d6fcd
   d81e0:	000d7051 	.word	0x000d7051
   d81e4:	000d70d5 	.word	0x000d70d5

000d81e8 <link_constructors_end>:
	...
